 ConEmu64

 Timestamp is 5c3663e7 (Thu Jan 10 00:13:11 2019)

 Preferred load address is 0000000140000000

 Start         Length     Name                   Class
 0001:00000000 00000100H .text$di                CODE
 0001:00000100 0013c400H .text$mn                CODE
 0001:0013c500 00000020H .text$mn$00             CODE
 0001:0013c520 00002b90H .text$x                 CODE
 0001:0013f0b0 00000183H .text$yd                CODE
 0002:00000000 00000fe8H .idata$5                DATA
 0002:00000fe8 00000010H .00cfg                  DATA
 0002:00000ff8 00000008H .CRT$XCA                DATA
 0002:00001000 00000008H .CRT$XCAA               DATA
 0002:00001008 00000048H .CRT$XCU                DATA
 0002:00001050 00000008H .CRT$XCZ                DATA
 0002:00001058 00000008H .CRT$XIA                DATA
 0002:00001060 00000008H .CRT$XIAA               DATA
 0002:00001068 00000008H .CRT$XIAC               DATA
 0002:00001070 00000020H .CRT$XIC                DATA
 0002:00001090 00000008H .CRT$XIZ                DATA
 0002:00001098 00000008H .CRT$XLA                DATA
 0002:000010a0 00000008H .CRT$XLZ                DATA
 0002:000010a8 00000008H .CRT$XPA                DATA
 0002:000010b0 00000010H .CRT$XPX                DATA
 0002:000010c0 00000008H .CRT$XPXA               DATA
 0002:000010c8 00000008H .CRT$XPZ                DATA
 0002:000010d0 00000008H .CRT$XTA                DATA
 0002:000010d8 00000008H .CRT$XTZ                DATA
 0002:000010e0 00000000H .gfids$x                DATA
 0002:000010e0 00000000H .gfids$y                DATA
 0002:000010e0 0006dd50H .rdata                  DATA
 0002:0006ee30 00000030H .rdata$T                DATA
 0002:0006ee60 000044acH .rdata$r                DATA
 0002:0007330c 000003ecH .rdata$zzzdbg           DATA
 0002:000736f8 00000008H .rtc$IAA                DATA
 0002:00073700 00000008H .rtc$IZZ                DATA
 0002:00073708 00000008H .rtc$TAA                DATA
 0002:00073710 00000008H .rtc$TZZ                DATA
 0002:00073718 00000004H .tls                    DATA
 0002:0007371c 00000004H .tls$                   DATA
 0002:00073720 00000010H .tls$ZZZ                DATA
 0002:00073730 00014b38H .xdata                  DATA
 0002:00088268 0000031cH .xdata$x                DATA
 0002:00088584 00000000H .edata                  DATA
 0002:00088584 00000104H .idata$2                DATA
 0002:00088688 00000018H .idata$3                DATA
 0002:000886a0 00000fe8H .idata$4                DATA
 0002:00089688 00002354H .idata$6                DATA
 0003:00000000 00004ec0H .data                   DATA
 0003:00004ec0 000014b0H .data$r                 DATA
 0003:00006370 000467f8H .bss                    DATA
 0004:00000000 0000bc34H .pdata                  DATA
 0005:00000000 00001250H .rsrc$01                DATA
 0005:00001250 00045770H .rsrc$02                DATA

  Address         Publics by Value              Rva+Base               Lib:Object

 0000:00000000       __guard_fids_count         0000000000000000     <absolute>
 0000:00000000       ___safe_se_handler_table   0000000000000000     <absolute>
 0000:00000000       __hybrid_code_map_count    0000000000000000     <absolute>
 0000:00000000       __enclave_config           0000000000000000     <absolute>
 0000:00000000       ___safe_se_handler_count   0000000000000000     <absolute>
 0000:00000000       __guard_longjmp_table      0000000000000000     <absolute>
 0000:00000000       __hybrid_auxiliary_iat     0000000000000000     <absolute>
 0000:00000000       __hybrid_code_map          0000000000000000     <absolute>
 0000:00000000       __guard_iat_table          0000000000000000     <absolute>
 0000:00000000       __guard_iat_count          0000000000000000     <absolute>
 0000:00000000       __guard_longjmp_count      0000000000000000     <absolute>
 0000:00000000       __guard_fids_table         0000000000000000     <absolute>
 0000:00000000       __volatile_metadata        0000000000000000     <absolute>
 0000:00000000       __dynamic_value_reloc_table 0000000000000000     <absolute>
 0000:00000100       __guard_flags              0000000000000100     <absolute>
 0000:00000000       __ImageBase                0000000140000000     <linker-defined>
 0001:00000100       ??$SafeDelete@VCImgButtons@@@@YAXAEAPEAVCImgButtons@@@Z 0000000140001100 f i AboutDlg.obj
 0001:00000148       ??$swprintf_c@$0BE@@@YAHAEAY0BE@_WPEB_WZZ 0000000140001148 f i AboutDlg.obj
 0001:00000174       ??$swprintf_c@$0BI@@@YAHAEAY0BI@_WPEB_WZZ 0000000140001174 f i AboutDlg.obj
 0001:000001a0       ??$swprintf_c@$0CA@@@YAHAEAY0CA@_WPEB_WZZ 00000001400011a0 f i AboutDlg.obj
 0001:000001cc       ??$swprintf_c@$0EBA@@@YAHAEAY0EBA@_WPEB_WZZ 00000001400011cc f i AboutDlg.obj
 0001:000001f8       ??$swprintf_c@$0IA@@@YAHAEAY0IA@_WPEB_WZZ 00000001400011f8 f i AboutDlg.obj
 0001:00000224       ??$ultow_s@$0CA@@@YAPEB_WIAEAY0CA@_WH@Z 0000000140001224 f i AboutDlg.obj
 0001:00000250       ?InitCommCtrls@ConEmuAbout@@YAXXZ 0000000140001250 f   AboutDlg.obj
 0001:00000284       ?LoadWindowsBuild@LoadStartupEnvEx@@KAPEA_WAEBU_OSVERSIONINFOEXW@@@Z 0000000140001284 f i AboutDlg.obj
 0001:00000510       ?LogStartEnvInt@ConEmuAbout@@YAXPEB_W_J_N2@Z 0000000140001510 f   AboutDlg.obj
 0001:000005b0       ?OnInfo_About@ConEmuAbout@@YAXPEB_W@Z 00000001400015b0 f   AboutDlg.obj
 0001:0000076c       ?OnInfo_Donate@ConEmuAbout@@YAXXZ 000000014000176c f   AboutDlg.obj
 0001:0000079c       ?OnInfo_DonateLink@ConEmuAbout@@YAXXZ 000000014000179c f   AboutDlg.obj
 0001:000007f0       ?OnInfo_DownloadPage@ConEmuAbout@@YAXXZ 00000001400017f0 f   AboutDlg.obj
 0001:00000844       ?OnInfo_FirstStartPage@ConEmuAbout@@YAXXZ 0000000140001844 f   AboutDlg.obj
 0001:00000898       ?OnInfo_Help@ConEmuAbout@@YAXXZ 0000000140001898 f   AboutDlg.obj
 0001:0000094c       ?OnInfo_HomePage@ConEmuAbout@@YAXXZ 000000014000194c f   AboutDlg.obj
 0001:000009a0       ?OnInfo_OnlineWiki@ConEmuAbout@@YAXPEB_W@Z 00000001400019a0 f   AboutDlg.obj
 0001:00000a54       ?OnInfo_ReportBug@ConEmuAbout@@YAXXZ 0000000140001a54 f   AboutDlg.obj
 0001:00000aa8       ?OnInfo_ReportCrash@ConEmuAbout@@YAXPEB_W@Z 0000000140001aa8 f   AboutDlg.obj
 0001:00000b60       ?OnInfo_ThrowTrapException@ConEmuAbout@@YAX_N@Z 0000000140001b60 f   AboutDlg.obj
 0001:00000c04       ?OnInfo_WhatsNew@ConEmuAbout@@YAX_N@Z 0000000140001c04 f   AboutDlg.obj
 0001:00000d14       ?ReloadSysInfo@ConEmuAbout@@YAXXZ 0000000140001d14 f   AboutDlg.obj
 0001:00000d6c       ?StringCchCatW@@YAJPEA_W_KPEB_W@Z 0000000140001d6c f i AboutDlg.obj
 0001:00000e3c       ?StringCchCopyW@@YAJPEA_W_KPEB_W@Z 0000000140001e3c f i AboutDlg.obj
 0001:00000eb4       ?StringCchVPrintfW@@YAJPEA_W_KPEB_WPEAD@Z 0000000140001eb4 f i AboutDlg.obj
 0001:00000f58       ?TabSelected@ConEmuAbout@@YAXPEAUHWND__@@H@Z 0000000140001f58 f   AboutDlg.obj
 0001:00001058       ?ToString@LoadStartupEnvEx@@SAXPEAUCEStartupEnv@@P6AXPEB_W_J_N3@Z2@Z 0000000140002058 f i AboutDlg.obj
 0001:00002018       ?aboutProc@ConEmuAbout@@YA_JPEAUHWND__@@I_K_J@Z 0000000140003018 f   AboutDlg.obj
 0001:00002734       ?searchProc@ConEmuAbout@@YAXPEAUHWND__@@0_N@Z 0000000140003734 f   AboutDlg.obj
 0001:00002a70       __local_stdio_printf_options 0000000140003a70 f i AboutDlg.obj
 0001:00002a78       ??$swprintf_c@$0FA@@@YAHAEAY0FA@_WPEB_WZZ 0000000140003a78 f i AltNumpad.obj
 0001:00002aa4       ??$swprintf_c@$0HI@@@YAHAEAY0HI@_WPEB_WZZ 0000000140003aa4 f i AltNumpad.obj
 0001:00002ad0       ??0CAltNumpad@@QEAA@PEAVCConEmuMain@@@Z 0000000140003ad0 f   AltNumpad.obj
 0001:00002af8       ??1CPushInfo@@QEAA@XZ      0000000140003af8 f   PushInfo.obj
 0001:00002af8       _guard_check_icall_nop     0000000140003af8 f   LIBCMT:guard_support.obj
 0001:00002af8       ??1HandleMonitor@@QEAA@XZ  0000000140003af8 f   GdiObjects.obj
 0001:00002af8       ?ExecuteProcessFinished@CConEmuMain@@IEAAX_N@Z 0000000140003af8 f   ConEmu.obj
 0001:00002af8       ?PostCreateThreadFinished@CDefaultTerminal@@MEAAXXZ 0000000140003af8 f   DefaultTerm.obj
 0001:00002af8       ?Alias@CStartEnvTitle@@UEAAXPEB_W0@Z 0000000140003af8 f   common-user64:ProcessSetEnv.obj
 0001:00002af8       _initialize_denormal_control 0000000140003af8 f   LIBCMT:denormal_control.obj
 0001:00002af8       ?OnUseGlass@CConEmuMain@@MEAAX_N@Z 0000000140003af8 f   ConEmu.obj
 0001:00002af8       ?OnUseDwm@CConEmuMain@@MEAAX_N@Z 0000000140003af8 f   ConEmu.obj
 0001:00002af8       ?DragFeedBack@CBaseDropTarget@@UEAAXK@Z 0000000140003af8 f   BaseDragDrops.obj
 0001:00002af8       ?PostCreateThreadFinished@CDefTermBase@@MEAAXXZ 0000000140003af8 f   DefaultTerm.obj
 0001:00002af8       ?Type@CStartEnvTitle@@UEAAXPEB_W0@Z 0000000140003af8 f   common-user64:ProcessSetEnv.obj
 0001:00002af8       ?OnUseTheming@CConEmuMain@@MEAAX_N@Z 0000000140003af8 f   ConEmu.obj
 0001:00002af8       ?PreCreateThread@CDefTermBase@@MEAAXXZ 0000000140003af8 f   DefaultTerm.obj
 0001:00002af8       _initialize_invalid_parameter_handler 0000000140003af8 f   LIBCMT:invalid_parameter_handler.obj
 0001:00002af8       ?Set@CStartEnvTitle@@UEAAXPEB_W0@Z 0000000140003af8 f   common-user64:ProcessSetEnv.obj
 0001:00002af8       ?DeleteKey@SettingsINI@@UEAAXPEB_W@Z 0000000140003af8 f   Registry.obj
 0001:00002af8       ??1CRConFiles@@QEAA@XZ     0000000140003af8 f   RConFiles.obj
 0001:00002af8       ?SyncWindowToConsole@CVConGroup@@SAXXZ 0000000140003af8 f   VConGroup.obj
 0001:00002af8       ?ChCp@CStartEnvTitle@@UEAAXPEB_W@Z 0000000140003af8 f   common-user64:ProcessSetEnv.obj
 0001:00002af8       ?ResetCache@CRConFiles@@QEAAXXZ 0000000140003af8 f   RConFiles.obj
 0001:00002af8       ?ResetOnStart@CVirtualConsole@@QEAAXXZ 0000000140003af8 f   VirtualConsole.obj
 0001:00002af8       ?ConhostLocker@CDefTermBase@@MEAAX_NAEA_N@Z 0000000140003af8 f   DefaultTerm.obj
 0001:00002af8       ?PrintRecentStack@CTabBarClass@@QEAAXXZ 0000000140003af8 f   TabBar.obj
 0001:00002af8       ?OnTaskbarCreated@CDragDropData@@QEAAXXZ 0000000140003af8 f   DragDropData.obj
 0001:00002af8       ?Echo@CStartEnvTitle@@UEAAXPEB_W0@Z 0000000140003af8 f   common-user64:ProcessSetEnv.obj
 0001:00002af8       ?OnPostLocalize@CSetPgBase@@UEAAXPEAUHWND__@@@Z 0000000140003af8 f   SetPgANSI.obj
 0001:00002af8       ?LogHookingStatus@CDefTermBase@@UEAAXKPEB_W@Z 0000000140003af8 f   DefaultTerm.obj
 0001:00002af8       ?Save@SettingsINI@@UEAAXPEB_WPEBEKK@Z 0000000140003af8 f   Registry.obj
 0001:00002af8       ??1CAltNumpad@@QEAA@XZ     0000000140003af8 f   AltNumpad.obj
 0001:00002afc       ?ClearAltNumber@CAltNumpad@@IEAAX_N@Z 0000000140003afc f   AltNumpad.obj
 0001:00002ba0       ?DumpAltNumber@CAltNumpad@@IEAA?AW4AltCharAction@@XZ 0000000140003ba0 f   AltNumpad.obj
 0001:00002ccc       ?DumpChars@CAltNumpad@@IEAAXPEA_W@Z 0000000140003ccc f   AltNumpad.obj
 0001:00002d90       ?DumpStatus@CAltNumpad@@IEAAXXZ 0000000140003d90 f   AltNumpad.obj
 0001:00002ef8       ?GetChars@CAltNumpad@@IEAAHAEAY02_W@Z 0000000140003ef8 f   AltNumpad.obj
 0001:00002f84       ?OnKeyboard@CAltNumpad@@QEAA_NPEAUHWND__@@I_K_J@Z 0000000140003f84 f   AltNumpad.obj
 0001:00003360       ?StartCapture@CAltNumpad@@QEAAXII_N@Z 0000000140004360 f   AltNumpad.obj
 0001:00003470       ?isAltNumpad@CAltNumpad@@IEAA_NXZ 0000000140004470 f   AltNumpad.obj
 0001:000034d4       ?isUseAltGrayPlus@CAltNumpad@@IEAA_NXZ 00000001400044d4 f   AltNumpad.obj
 0001:00003550       ??$SafeDelete@VCDpiForDialog@@@@YAXAEAPEAVCDpiForDialog@@@Z 0000000140004550 f i Attach.obj
 0001:00003598       ??$SafeDelete@VCStatus@@@@YAXAEAPEAVCStatus@@@Z 0000000140004598 f i ConEmu.obj
 0001:00003598       ??$SafeDelete@VCConEmuInside@@@@YAXAEAPEAVCConEmuInside@@@Z 0000000140004598 f i ConEmu.obj
 0001:00003598       ??$SafeDelete@VCRConPalette@@@@YAXAEAPEAVCRConPalette@@@Z 0000000140004598 f i RealConsole.obj
 0001:00003598       ??$SafeDelete@VCTabPanelBase@@@@YAXAEAPEAVCTabPanelBase@@@Z 0000000140004598 f i TabBar.obj
 0001:00003598       ??$SafeDelete@VCToolTip@@@@YAXAEAPEAVCToolTip@@@Z 0000000140004598 f i ConEmu.obj
 0001:00003598       ??$SafeDelete@VCDynDialog@@@@YAXAEAPEAVCDynDialog@@@Z 0000000140004598 f i Attach.obj
 0001:00003598       ??$SafeDelete@VCSetPgBase@@@@YAXAEAPEAVCSetPgBase@@@Z 0000000140004598 f i OptionsClass.obj
 0001:00003598       ??$SafeDelete@VMFileLogEx@@@@YAXAEAPEAVMFileLogEx@@@Z 0000000140004598 f i ConEmu.obj
 0001:00003598       ??$SafeDelete@VCTabBarClass@@@@YAXAEAPEAVCTabBarClass@@@Z 0000000140004598 f i ConEmu.obj
 0001:00003598       ??$SafeDelete@VCBackground@@@@YAXAEAPEAVCBackground@@@Z 0000000140004598 f i VirtualConsole.obj
 0001:00003598       ??$SafeDelete@VCVConGuard@@@@YAXAEAPEAVCVConGuard@@@Z 0000000140004598 f i VConGroup.obj
 0001:00003598       ??$SafeDelete@VCTaskSchedulerBase@@@@YAXAEAPEAVCTaskSchedulerBase@@@Z 0000000140004598 f i TaskScheduler.obj
 0001:00003598       ??$SafeDelete@VCFormatCopy@@@@YAXAEAPEAVCFormatCopy@@@Z 0000000140004598 f i RealBuffer.obj
 0001:00003598       ??$SafeDelete@VMFileLog@@@@YAXAEAPEAVMFileLog@@@Z 0000000140004598 f i RealConsole.obj
 0001:00003598       ??$SafeDelete@VCSettings@@@@YAXAEAPEAVCSettings@@@Z 0000000140004598 f i ConEmuApp.obj
 0001:00003598       ??$SafeDelete@URConStartArgsEx@@@@YAXAEAPEAURConStartArgsEx@@@Z 0000000140004598 f i GuiServer.obj
 0001:000035cc       ??$_Emplace_reallocate@AEBUProcessInfo@CDefTermBase@@@?$vector@UProcessInfo@CDefTermBase@@V?$MArrayAllocator@UProcessInfo@CDefTermBase@@@@@std@@QEAAPEAUProcessInfo@CDefTermBase@@QEAU23@AEBU23@@Z 00000001400045cc f i ConEmu.obj
 0001:000035cc       ??$_Emplace_reallocate@AEBUGuiMacroArg@@@?$vector@UGuiMacroArg@@V?$MArrayAllocator@UGuiMacroArg@@@@@std@@QEAAPEAUGuiMacroArg@@QEAU2@AEBU2@@Z 00000001400045cc f i Macro.obj
 0001:000035cc       ??$_Emplace_reallocate@AEBUAttachParm@@@?$vector@UAttachParm@@V?$MArrayAllocator@UAttachParm@@@@@std@@QEAAPEAUAttachParm@@QEAU2@AEBU2@@Z 00000001400045cc f i Attach.obj
 0001:000035cc       ??$_Emplace_reallocate@AEBU_FindAllMonitorsItem@@@?$vector@U_FindAllMonitorsItem@@V?$MArrayAllocator@U_FindAllMonitorsItem@@@@@std@@QEAAPEAU_FindAllMonitorsItem@@QEAU2@AEBU2@@Z 00000001400045cc f i common-user64:Monitors.obj
 0001:00003714       ??$swprintf_c@$0BAE@@@YAHAEAY0BAE@_WPEB_WZZ 0000000140004714 f i Attach.obj
 0001:00003740       ??$swprintf_c@$0CAD@@@YAHAEAY0CAD@_WPEB_WZZ 0000000140004740 f i Attach.obj
 0001:0000376c       ??$swprintf_c@$0DAM@@@YAHAEAY0DAM@_WPEB_WZZ 000000014000476c f i Attach.obj
 0001:00003798       ??$swprintf_c@$0EAA@@@YAHAEAY0EAA@_WPEB_WZZ 0000000140004798 f i Attach.obj
 0001:000037c4       ??0CAttachDlg@@QEAA@XZ     00000001400047c4 f   Attach.obj
 0001:00003808       ??0CProcessData@@QEAA@XZ   0000000140004808 f i Attach.obj
 0001:00003880       ??0bad_alloc@std@@QEAA@AEBV01@@Z 0000000140004880 f i Attach.obj
 0001:000038c0       ??0bad_alloc@std@@QEAA@XZ  00000001400048c0 f i Attach.obj
 0001:000038e0       ??0exception@std@@QEAA@AEBV01@@Z 00000001400048e0 f i Attach.obj
 0001:00003918       ??1CAttachDlg@@QEAA@XZ     0000000140004918 f   Attach.obj
 0001:00003930       ??1CProcessData@@QEAA@XZ   0000000140004930 f i Attach.obj
 0001:00003978       ??1bad_exception@std@@UEAA@XZ 0000000140004978 f i libvcruntime:frame.obj
 0001:00003978       ??1length_error@std@@UEAA@XZ 0000000140004978 f i libcpmt:xthrow.obj
 0001:00003978       ??1bad_cast@std@@UEAA@XZ   0000000140004978 f i libvcruntime:rtti.obj
 0001:00003978       ??1bad_alloc@std@@UEAA@XZ  0000000140004978 f i Attach.obj
 0001:00003978       ??1__non_rtti_object@std@@UEAA@XZ 0000000140004978 f i libvcruntime:rtti.obj
 0001:00003978       ??1parse_error@rapidxml@@UEAA@XZ 0000000140004978 f i Registry.obj
 0001:0000398c       ??_Gexception@std@@UEAAPEAXI@Z 000000014000498c f i Attach.obj
 0001:0000398c       ??_Ebad_alloc@std@@UEAAPEAXI@Z 000000014000498c f i Attach.obj
 0001:0000398c       ??_G__non_rtti_object@std@@UEAAPEAXI@Z 000000014000498c f i libvcruntime:rtti.obj
 0001:0000398c       ??_Ebad_exception@std@@UEAAPEAXI@Z 000000014000498c f i libvcruntime:frame.obj
 0001:0000398c       ??_Glength_error@std@@UEAAPEAXI@Z 000000014000498c f i libcpmt:xthrow.obj
 0001:0000398c       ??_E__non_rtti_object@std@@UEAAPEAXI@Z 000000014000498c f i libvcruntime:rtti.obj
 0001:0000398c       ??_Elength_error@std@@UEAAPEAXI@Z 000000014000498c f i libcpmt:xthrow.obj
 0001:0000398c       ??_Gbad_typeid@std@@UEAAPEAXI@Z 000000014000498c f i libvcruntime:rtti.obj
 0001:0000398c       ??_Elogic_error@std@@UEAAPEAXI@Z 000000014000498c f i libcpmt:xthrow.obj
 0001:0000398c       ??_Gbad_exception@std@@UEAAPEAXI@Z 000000014000498c f i libvcruntime:frame.obj
 0001:0000398c       ??_Gbad_alloc@std@@UEAAPEAXI@Z 000000014000498c f i Attach.obj
 0001:0000398c       ??_Glogic_error@std@@UEAAPEAXI@Z 000000014000498c f i libcpmt:xthrow.obj
 0001:0000398c       ??_Gbad_cast@std@@UEAAPEAXI@Z 000000014000498c f i libvcruntime:rtti.obj
 0001:0000398c       ??_Ebad_cast@std@@UEAAPEAXI@Z 000000014000498c f i libvcruntime:rtti.obj
 0001:0000398c       ??_Eexception@std@@UEAAPEAXI@Z 000000014000498c f i Attach.obj
 0001:0000398c       ??_Ebad_typeid@std@@UEAAPEAXI@Z 000000014000498c f i libvcruntime:rtti.obj
 0001:000039d0       ?AttachDlg@CAttachDlg@@QEAAXXZ 00000001400049d0 f   Attach.obj
 0001:00003a88       ?AttachDlgEnumWin@CAttachDlg@@SAHPEAUHWND__@@_J@Z 0000000140004a88 f   Attach.obj
 0001:00003ca8       ?AttachDlgProc@CAttachDlg@@SA_JPEAUHWND__@@I_K_J@Z 0000000140004ca8 f   Attach.obj
 0001:00004744       ?AttachFromMacro@CAttachDlg@@SA?AW4AttachMacroRet@1@K_N@Z 0000000140005744 f   Attach.obj
 0001:000049c4       ?CanAttachWindow@CAttachDlg@@KA_NPEAUHWND__@@KPEAVCProcessData@@AEAUAttachWndInfo@1@@Z 00000001400059c4 f   Attach.obj
 0001:00004e58       ?Close@CAttachDlg@@QEAAXXZ 0000000140005e58 f   Attach.obj
 0001:00004f00       ?FindProcessName@CProcessData@@IEAA_NKPEA_WK@Z 0000000140005f00 f i Attach.obj
 0001:00004ffc       ?GetHWND@CAttachDlg@@QEAAPEAUHWND__@@XZ 0000000140005ffc f   Attach.obj
 0001:00005008       ?GetInternalProcessData@CProcessData@@IEAAHPEAXPEAUModuleData@1@AEAPEAUPROCESS_PARAMETERS@1@AEAPEAD_N@Z 0000000140006008 f i Attach.obj
 0001:0000518c       ?GetOpenProcessData@CProcessData@@IEAAXPEAXPEA_WK1K1K@Z 000000014000618c f i Attach.obj
 0001:00005378       ?GetProcessName@CProcessData@@QEAA_NKPEA_WK0KPEAH@Z 0000000140006378 f i Attach.obj
 0001:00005624       ?LoadPerfData@CProcessData@@IEAA_NXZ 0000000140006624 f i Attach.obj
 0001:000058fc       ?OnStartAttach@CAttachDlg@@IEAA_NXZ 00000001400068fc f   Attach.obj
 0001:00005c84       ?StartAttach@CAttachDlg@@KA_NPEAUHWND__@@KKW4AttachProcessType@@HH@Z 0000000140006c84 f   Attach.obj
 0001:00006350       ?StartAttachThread@CAttachDlg@@SAKPEAV?$MArray@UAttachParm@@@@@Z 0000000140007350 f   Attach.obj
 0001:00006404       ?_Xlength@?$vector@UGuiMacroArg@@V?$MArrayAllocator@UGuiMacroArg@@@@@std@@CAXXZ 0000000140007404 f i Macro.obj
 0001:00006404       ?_Xlength@?$vector@PEAVCustomFont@@V?$MArrayAllocator@PEAVCustomFont@@@@@std@@CAXXZ 0000000140007404 f i CustomFonts.obj
 0001:00006404       ?_Xlength@?$vector@UConProcess@@V?$MArrayAllocator@UConProcess@@@@@std@@CAXXZ 0000000140007404 f i RealConsole.obj
 0001:00006404       ?_Xlength@?$vector@URegFont@@V?$MArrayAllocator@URegFont@@@@@std@@CAXXZ 0000000140007404 f i FontMgr.obj
 0001:00006404       ?_Xlength@?$vector@PEAVCFont@@V?$MArrayAllocator@PEAVCFont@@@@@std@@CAXXZ 0000000140007404 f i FontMgr.obj
 0001:00006404       ?_Xlength@?$vector@U_FindAllMonitorsItem@@V?$MArrayAllocator@U_FindAllMonitorsItem@@@@@std@@CAXXZ 0000000140007404 f i common-user64:Monitors.obj
 0001:00006404       ?_Xlength@?$vector@PEA_WV?$MArrayAllocator@PEA_W@@@std@@CAXXZ 0000000140007404 f i CmdHistory.obj
 0001:00006404       ?_Xlength@?$vector@PEAVCBackgroundInfo@@V?$MArrayAllocator@PEAVCBackgroundInfo@@@@@std@@CAXXZ 0000000140007404 f i Background.obj
 0001:00006404       ?_Xlength@?$vector@UThreadHandle@CDefTermBase@@V?$MArrayAllocator@UThreadHandle@CDefTermBase@@@@@std@@CAXXZ 0000000140007404 f i ConEmu.obj
 0001:00006404       ?_Xlength@?$vector@DV?$MArrayAllocator@D@@@std@@CAXXZ 0000000140007404 f i Registry.obj
 0001:00006404       ?_Xlength@?$vector@PEAVCTabID@@V?$MArrayAllocator@PEAVCTabID@@@@@std@@CAXXZ 0000000140007404 f i TabBar.obj
 0001:00006404       ?_Xlength@?$vector@PEAUCommand@CProcessEnvCmd@@V?$MArrayAllocator@PEAUCommand@CProcessEnvCmd@@@@@std@@CAXXZ 0000000140007404 f i common-user64:ProcessSetEnv.obj
 0001:00006404       ?_Xlength@?$vector@HV?$MArrayAllocator@H@@@std@@CAXXZ 0000000140007404 f i CmdHistory.obj
 0001:00006404       ?_Xlength@?$vector@U_ThInfo@CDragDrop@@V?$MArrayAllocator@U_ThInfo@CDragDrop@@@@@std@@CAXXZ 0000000140007404 f i DragDrop.obj
 0001:00006404       ?_Xlength@?$vector@UDlgItem@CDpiForDialog@@V?$MArrayAllocator@UDlgItem@CDpiForDialog@@@@@std@@CAXXZ 0000000140007404 f i DpiAware.obj
 0001:00006404       ?_Xlength@?$vector@UBtnInfo@@V?$MArrayAllocator@UBtnInfo@@@@@std@@CAXXZ 0000000140007404 f i ImgButton.obj
 0001:00006404       ?_Xlength@?$vector@UVarDef@CVarDefs@FastConfig@@V?$MArrayAllocator@UVarDef@CVarDefs@FastConfig@@@@@std@@CAXXZ 0000000140007404 f i OptionsFast.obj
 0001:00006404       ?_Xlength@?$vector@UProcessInfo@CDefTermBase@@V?$MArrayAllocator@UProcessInfo@CDefTermBase@@@@@std@@CAXXZ 0000000140007404 f i ConEmu.obj
 0001:00006404       ?_Xlength@?$vector@UFoundFile@FastConfig@@V?$MArrayAllocator@UFoundFile@FastConfig@@@@@std@@CAXXZ 0000000140007404 f i OptionsFast.obj
 0001:00006404       ?_Xlength@?$vector@UMonitorInfoCache@CConEmuSize@@V?$MArrayAllocator@UMonitorInfoCache@CConEmuSize@@@@@std@@CAXXZ 0000000140007404 f i ConEmuSize.obj
 0001:00006404       ?_Xlength@?$vector@PEAVCVConGroup@@V?$MArrayAllocator@PEAVCVConGroup@@@@@std@@CAXXZ 0000000140007404 f i VConGroup.obj
 0001:00006404       ?_Xlength@?$vector@PEAVCVConGuard@@V?$MArrayAllocator@PEAVCVConGuard@@@@@std@@CAXXZ 0000000140007404 f i VConGroup.obj
 0001:00006404       ?_Xlength@?$vector@PEAUSwitch@@V?$MArrayAllocator@PEAUSwitch@@@@@std@@CAXXZ 0000000140007404 f i SetPgIntegr.obj
 0001:00006404       ?_Xlength@?$vector@UDragData@CDataObject@@V?$MArrayAllocator@UDragData@CDataObject@@@@@std@@CAXXZ 0000000140007404 f i BaseDragDrops.obj
 0001:00006404       ?_Xlength@?$vector@UItemInfo@CDynDialog@@V?$MArrayAllocator@UItemInfo@CDynDialog@@@@@std@@CAXXZ 0000000140007404 f i DynDialog.obj
 0001:00006404       ?_Xlength@?$vector@UAttachParm@@V?$MArrayAllocator@UAttachParm@@@@@std@@CAXXZ 0000000140007404 f i Attach.obj
 0001:00006404       ?_Xlength@?$vector@UCmdTaskPopupItem@CConEmuMenu@@V?$MArrayAllocator@UCmdTaskPopupItem@CConEmuMenu@@@@@std@@CAXXZ 0000000140007404 f i Menu.obj
 0001:00006404       ?_Xlength@?$vector@UHighlightRect@CVirtualConsole@@V?$MArrayAllocator@UHighlightRect@CVirtualConsole@@@@@std@@CAXXZ 0000000140007404 f i VirtualConsole.obj
 0001:00006404       ?_Xlength@?$vector@PEAXV?$MArrayAllocator@PEAX@@@std@@CAXXZ 0000000140007404 f i TaskBar.obj
 0001:00006404       ?_Xlength@?$vector@UAppInfo@AppFoundList@FastConfig@@V?$MArrayAllocator@UAppInfo@AppFoundList@FastConfig@@@@@std@@CAXXZ 0000000140007404 f i OptionsFast.obj
 0001:00006404       ?_Xlength@?$vector@URunQueueItem@CRunQueue@@V?$MArrayAllocator@URunQueueItem@CRunQueue@@@@@std@@CAXXZ 0000000140007404 f i RunQueue.obj
 0001:00006404       ?_Xlength@?$vector@ULngRcItem@CLngRc@@V?$MArrayAllocator@ULngRcItem@CLngRc@@@@@std@@CAXXZ 0000000140007404 f i LngRc.obj
 0001:00006404       ?_Xlength@?$vector@UTabIconCache@CIconList@@V?$MArrayAllocator@UTabIconCache@CIconList@@@@@std@@CAXXZ 0000000140007404 f i IconList.obj
 0001:00006404       ?_Xlength@?$vector@ULngDefinition@CLngRc@@V?$MArrayAllocator@ULngDefinition@CLngRc@@@@@std@@CAXXZ 0000000140007404 f i LngRc.obj
 0001:00006404       ?_Xlength@?$vector@PEB_WV?$MArrayAllocator@PEB_W@@@std@@CAXXZ 0000000140007404 f i ConEmu.obj
 0001:00006404       ?_Xlength@?$vector@UFontHeightInfo@@V?$MArrayAllocator@UFontHeightInfo@@@@@std@@CAXXZ 0000000140007404 f i FontMgr.obj
 0001:00006404       ?_Xlength@?$vector@USshAgent@CConEmuMain@@V?$MArrayAllocator@USshAgent@CConEmuMain@@@@@std@@CAXXZ 0000000140007404 f i ConEmu.obj
 0001:00006404       ?_Xlength@?$vector@UConEmuHotKey@@V?$MArrayAllocator@UConEmuHotKey@@@@@std@@CAXXZ 0000000140007404 f i HotkeyList.obj
 0001:00006404       ?_Xlength@?$vector@V?$_List_unchecked_iterator@V?$_List_val@U?$_List_simple_types@U?$pair@$$CBHG@std@@@std@@@std@@@std@@V?$allocator@V?$_List_unchecked_iterator@V?$_List_val@U?$_List_simple_types@U?$pair@$$CBHG@std@@@std@@@std@@@std@@@2@@std@@CAXXZ 0000000140007404 f i Font.obj
 0001:00006404       ?_Xlength@?$vector@UtagPROCESSENTRY32W@@V?$MArrayAllocator@UtagPROCESSENTRY32W@@@@@std@@CAXXZ 0000000140007404 f i RealConsole.obj
 0001:00006404       ?_Xlength@?$vector@PEAUHWND__@@V?$MArrayAllocator@PEAUHWND__@@@@@std@@CAXXZ 0000000140007404 f i ConEmu.obj
 0001:00006404       ?_Xlength@?$vector@Utxt@CFormatCopy@@V?$MArrayAllocator@Utxt@CFormatCopy@@@@@std@@CAXXZ 0000000140007404 f i RealBuffer.obj
 0001:00006418       ?deallocate@?$MArrayAllocator@UThreadHandle@CDefTermBase@@@@QEAAXPEAUThreadHandle@CDefTermBase@@_K@Z 0000000140007418 f i ConEmu.obj
 0001:00006418       ?deallocate@?$MArrayAllocator@UAttachParm@@@@QEAAXPEAUAttachParm@@_K@Z 0000000140007418 f i Attach.obj
 0001:00006418       ?deallocate@?$MArrayAllocator@PEAUSwitch@@@@QEAAXPEAPEAUSwitch@@_K@Z 0000000140007418 f i SetPgIntegr.obj
 0001:00006418       ?deallocate@?$MArrayAllocator@UAppInfo@AppFoundList@FastConfig@@@@QEAAXPEAUAppInfo@AppFoundList@FastConfig@@_K@Z 0000000140007418 f i OptionsFast.obj
 0001:00006418       ?deallocate@?$MArrayAllocator@UConProcess@@@@QEAAXPEAUConProcess@@_K@Z 0000000140007418 f i RealConsole.obj
 0001:00006418       ?deallocate@?$MArrayAllocator@URegFont@@@@QEAAXPEAURegFont@@_K@Z 0000000140007418 f i FontMgr.obj
 0001:00006418       ?deallocate@?$MArrayAllocator@D@@QEAAXPEAD_K@Z 0000000140007418 f i Registry.obj
 0001:00006418       ?deallocate@?$MArrayAllocator@UTabIconCache@CIconList@@@@QEAAXPEAUTabIconCache@CIconList@@_K@Z 0000000140007418 f i IconList.obj
 0001:00006418       ?deallocate@?$MArrayAllocator@PEA_W@@QEAAXPEAPEA_W_K@Z 0000000140007418 f i CmdHistory.obj
 0001:00006418       ?deallocate@?$MArrayAllocator@UHighlightRect@CVirtualConsole@@@@QEAAXPEAUHighlightRect@CVirtualConsole@@_K@Z 0000000140007418 f i VirtualConsole.obj
 0001:00006418       ?deallocate@?$MArrayAllocator@USshAgent@CConEmuMain@@@@QEAAXPEAUSshAgent@CConEmuMain@@_K@Z 0000000140007418 f i ConEmu.obj
 0001:00006418       ?deallocate@?$MArrayAllocator@PEAVCVConGuard@@@@QEAAXPEAPEAVCVConGuard@@_K@Z 0000000140007418 f i VConGroup.obj
 0001:00006418       ?deallocate@?$MArrayAllocator@UDlgItem@CDpiForDialog@@@@QEAAXPEAUDlgItem@CDpiForDialog@@_K@Z 0000000140007418 f i DpiAware.obj
 0001:00006418       ?deallocate@?$MArrayAllocator@UDragData@CDataObject@@@@QEAAXPEAUDragData@CDataObject@@_K@Z 0000000140007418 f i BaseDragDrops.obj
 0001:00006418       ?deallocate@?$MArrayAllocator@UMonitorInfoCache@CConEmuSize@@@@QEAAXPEAUMonitorInfoCache@CConEmuSize@@_K@Z 0000000140007418 f i ConEmuSize.obj
 0001:00006418       ?deallocate@?$MArrayAllocator@UConEmuHotKey@@@@QEAAXPEAUConEmuHotKey@@_K@Z 0000000140007418 f i HotkeyList.obj
 0001:00006418       ?deallocate@?$MArrayAllocator@PEAVCFont@@@@QEAAXPEAPEAVCFont@@_K@Z 0000000140007418 f i FontMgr.obj
 0001:00006418       ?deallocate@?$MArrayAllocator@PEAUHWND__@@@@QEAAXPEAPEAUHWND__@@_K@Z 0000000140007418 f i ConEmu.obj
 0001:00006418       ?deallocate@?$MArrayAllocator@PEAVCBackgroundInfo@@@@QEAAXPEAPEAVCBackgroundInfo@@_K@Z 0000000140007418 f i Background.obj
 0001:00006418       ?deallocate@?$MArrayAllocator@Utxt@CFormatCopy@@@@QEAAXPEAUtxt@CFormatCopy@@_K@Z 0000000140007418 f i RealBuffer.obj
 0001:00006418       ?deallocate@?$MArrayAllocator@PEB_W@@QEAAXPEAPEB_W_K@Z 0000000140007418 f i ConEmu.obj
 0001:00006418       ?deallocate@?$MArrayAllocator@UItemInfo@CDynDialog@@@@QEAAXPEAUItemInfo@CDynDialog@@_K@Z 0000000140007418 f i DynDialog.obj
 0001:00006418       ?deallocate@?$MArrayAllocator@UProcessInfo@CDefTermBase@@@@QEAAXPEAUProcessInfo@CDefTermBase@@_K@Z 0000000140007418 f i ConEmu.obj
 0001:00006418       ?deallocate@?$MArrayAllocator@UCmdTaskPopupItem@CConEmuMenu@@@@QEAAXPEAUCmdTaskPopupItem@CConEmuMenu@@_K@Z 0000000140007418 f i Menu.obj
 0001:00006418       ?deallocate@?$MArrayAllocator@PEAVCustomFont@@@@QEAAXPEAPEAVCustomFont@@_K@Z 0000000140007418 f i CustomFonts.obj
 0001:00006418       ?deallocate@?$MArrayAllocator@U_FindAllMonitorsItem@@@@QEAAXPEAU_FindAllMonitorsItem@@_K@Z 0000000140007418 f i common-user64:Monitors.obj
 0001:00006418       ?deallocate@?$MArrayAllocator@PEAX@@QEAAXPEAPEAX_K@Z 0000000140007418 f i TaskBar.obj
 0001:00006418       ?deallocate@?$MArrayAllocator@ULngRcItem@CLngRc@@@@QEAAXPEAULngRcItem@CLngRc@@_K@Z 0000000140007418 f i LngRc.obj
 0001:00006418       ?deallocate@?$MArrayAllocator@PEAVCTabID@@@@QEAAXPEAPEAVCTabID@@_K@Z 0000000140007418 f i TabBar.obj
 0001:00006418       ?deallocate@?$MArrayAllocator@UtagPROCESSENTRY32W@@@@QEAAXPEAUtagPROCESSENTRY32W@@_K@Z 0000000140007418 f i RealConsole.obj
 0001:00006418       ?deallocate@?$MArrayAllocator@UVarDef@CVarDefs@FastConfig@@@@QEAAXPEAUVarDef@CVarDefs@FastConfig@@_K@Z 0000000140007418 f i OptionsFast.obj
 0001:00006418       ?deallocate@?$MArrayAllocator@PEAVCVConGroup@@@@QEAAXPEAPEAVCVConGroup@@_K@Z 0000000140007418 f i VConGroup.obj
 0001:00006418       ?deallocate@?$MArrayAllocator@H@@QEAAXPEAH_K@Z 0000000140007418 f i CmdHistory.obj
 0001:00006418       ?deallocate@?$MArrayAllocator@UFontHeightInfo@@@@QEAAXPEAUFontHeightInfo@@_K@Z 0000000140007418 f i FontMgr.obj
 0001:00006418       ?deallocate@?$MArrayAllocator@U_ThInfo@CDragDrop@@@@QEAAXPEAU_ThInfo@CDragDrop@@_K@Z 0000000140007418 f i DragDrop.obj
 0001:00006418       ?deallocate@?$MArrayAllocator@UBtnInfo@@@@QEAAXPEAUBtnInfo@@_K@Z 0000000140007418 f i ImgButton.obj
 0001:00006418       ?deallocate@?$MArrayAllocator@URunQueueItem@CRunQueue@@@@QEAAXPEAURunQueueItem@CRunQueue@@_K@Z 0000000140007418 f i RunQueue.obj
 0001:00006418       ?deallocate@?$MArrayAllocator@UFoundFile@FastConfig@@@@QEAAXPEAUFoundFile@FastConfig@@_K@Z 0000000140007418 f i OptionsFast.obj
 0001:00006418       ?deallocate@?$MArrayAllocator@UGuiMacroArg@@@@QEAAXPEAUGuiMacroArg@@_K@Z 0000000140007418 f i Macro.obj
 0001:00006418       ?deallocate@?$MArrayAllocator@PEAUCommand@CProcessEnvCmd@@@@QEAAXPEAPEAUCommand@CProcessEnvCmd@@_K@Z 0000000140007418 f i common-user64:ProcessSetEnv.obj
 0001:00006418       ?deallocate@?$MArrayAllocator@ULngDefinition@CLngRc@@@@QEAAXPEAULngDefinition@CLngRc@@_K@Z 0000000140007418 f i LngRc.obj
 0001:00006430       ?fNtQueryInformationProcess@CProcessData@@KAJPEAXW4_PROCESSINFOCLASS@1@0KPEAK@Z 0000000140007430 f i Attach.obj
 0001:00006438       ?getModuleFileNameEx@CProcessData@@IEAAKPEAXPEAUHINSTANCE__@@PEA_WK@Z 0000000140007438 f i Attach.obj
 0001:000064ec       ?what@exception@std@@UEBAPEBDXZ 00000001400074ec f i Attach.obj
 0001:00006500       ??$SafeDelete@VMSection@@@@YAXAEAPEAVMSection@@@Z 0000000140007500 f i Background.obj
 0001:00006548       ??$_Emplace_reallocate@AEBQEAVCBackgroundInfo@@@?$vector@PEAVCBackgroundInfo@@V?$MArrayAllocator@PEAVCBackgroundInfo@@@@@std@@QEAAPEAPEAVCBackgroundInfo@@QEAPEAV2@AEBQEAV2@@Z 0000000140007548 f i Background.obj
 0001:00006548       ??$_Emplace_reallocate@PEA_W@?$vector@PEA_WV?$MArrayAllocator@PEA_W@@@std@@QEAAPEAPEA_WQEAPEA_W$$QEAPEA_W@Z 0000000140007548 f i ConEmuCtrl.obj
 0001:00006548       ??$_Emplace_reallocate@AEBURunQueueItem@CRunQueue@@@?$vector@URunQueueItem@CRunQueue@@V?$MArrayAllocator@URunQueueItem@CRunQueue@@@@@std@@QEAAPEAURunQueueItem@CRunQueue@@QEAU23@AEBU23@@Z 0000000140007548 f i RunQueue.obj
 0001:00006548       ??$_Emplace_reallocate@AEBQEB_W@?$vector@PEB_WV?$MArrayAllocator@PEB_W@@@std@@QEAAPEAPEB_WQEAPEB_WAEBQEB_W@Z 0000000140007548 f i ConEmu.obj
 0001:00006548       ??$_Emplace_reallocate@AEBQEAUHWND__@@@?$vector@PEAUHWND__@@V?$MArrayAllocator@PEAUHWND__@@@@@std@@QEAAPEAPEAUHWND__@@QEAPEAU2@AEBQEAU2@@Z 0000000140007548 f i ConEmu.obj
 0001:00006548       ??$_Emplace_reallocate@AEBQEA_W@?$vector@PEA_WV?$MArrayAllocator@PEA_W@@@std@@QEAAPEAPEA_WQEAPEA_WAEBQEA_W@Z 0000000140007548 f i CmdHistory.obj
 0001:00006548       ??$_Emplace_reallocate@AEBQEAVCVConGroup@@@?$vector@PEAVCVConGroup@@V?$MArrayAllocator@PEAVCVConGroup@@@@@std@@QEAAPEAPEAVCVConGroup@@QEAPEAV2@AEBQEAV2@@Z 0000000140007548 f i VConGroup.obj
 0001:00006548       ??$_Emplace_reallocate@AEBQEAX@?$vector@PEAXV?$MArrayAllocator@PEAX@@@std@@QEAAPEAPEAXQEAPEAXAEBQEAX@Z 0000000140007548 f i TaskBar.obj
 0001:00006548       ??$_Emplace_reallocate@PEAVCTabID@@@?$vector@PEAVCTabID@@V?$MArrayAllocator@PEAVCTabID@@@@@std@@QEAAPEAPEAVCTabID@@QEAPEAV2@$$QEAPEAV2@@Z 0000000140007548 f i TabBar.obj
 0001:00006548       ??$_Emplace_reallocate@AEBQEAVCVConGuard@@@?$vector@PEAVCVConGuard@@V?$MArrayAllocator@PEAVCVConGuard@@@@@std@@QEAAPEAPEAVCVConGuard@@QEAPEAV2@AEBQEAV2@@Z 0000000140007548 f i VConGroup.obj
 0001:00006548       ??$_Emplace_reallocate@AEBQEAVCustomFont@@@?$vector@PEAVCustomFont@@V?$MArrayAllocator@PEAVCustomFont@@@@@std@@QEAAPEAPEAVCustomFont@@QEAPEAV2@AEBQEAV2@@Z 0000000140007548 f i CustomFonts.obj
 0001:00006548       ??$_Emplace_reallocate@AEBQEAVCFont@@@?$vector@PEAVCFont@@V?$MArrayAllocator@PEAVCFont@@@@@std@@QEAAPEAPEAVCFont@@QEAPEAV2@AEBQEAV2@@Z 0000000140007548 f i FontMgr.obj
 0001:00006548       ??$_Emplace_reallocate@AEBQEAUSwitch@@@?$vector@PEAUSwitch@@V?$MArrayAllocator@PEAUSwitch@@@@@std@@QEAAPEAPEAUSwitch@@QEAPEAU2@AEBQEAU2@@Z 0000000140007548 f i SetPgIntegr.obj
 0001:00006684       ??$swprintf_c@$0CAI@@@YAHAEAY0CAI@_WPEB_WZZ 0000000140007684 f i Background.obj
 0001:000066b0       ??0CBackground@@QEAA@XZ    00000001400076b0 f   Background.obj
 0001:0000670c       ??0CBackgroundInfo@@IEAA@PEB_W@Z 000000014000770c f   Background.obj
 0001:000067b4       ??1CBackground@@UEAA@XZ    00000001400077b4 f   Background.obj
 0001:0000686c       ??1CBackgroundInfo@@MEAA@XZ 000000014000786c f   Background.obj
 0001:00006948       ??1CVConRelease@@UEAA@XZ   0000000140007948 f i VirtualConsole.obj
 0001:00006948       ??1CRefRelease@@MEAA@XZ    0000000140007948 f i Background.obj
 0001:00006954       ??_GCBackground@@UEAAPEAXI@Z 0000000140007954 f i Background.obj
 0001:00006954       ??_ECBackground@@UEAAPEAXI@Z 0000000140007954 f i Background.obj
 0001:00006988       ??_ECBackgroundInfo@@MEAAPEAXI@Z 0000000140007988 f i Background.obj
 0001:00006988       ??_GCBackgroundInfo@@MEAAPEAXI@Z 0000000140007988 f i Background.obj
 0001:000069bc       ??_GCRefRelease@@MEAAPEAXI@Z 00000001400079bc f i Background.obj
 0001:000069bc       ??_ECRefRelease@@MEAAPEAXI@Z 00000001400079bc f i Background.obj
 0001:000069e8       ?BgImage@CBackgroundInfo@@QEAAPEB_WXZ 00000001400079e8 f   Background.obj
 0001:000069fc       ?CreateBackgroundObject@CBackgroundInfo@@SAPEAV1@PEB_W_N@Z 00000001400079fc f   Background.obj
 0001:00006b6c       ?CreateField@CBackground@@QEAA_NHH@Z 0000000140007b6c f   Background.obj
 0001:00006c9c       ?Destroy@CBackground@@AEAAXXZ 0000000140007c9c f   Background.obj
 0001:00006cf0       ?FillBackground@CBackground@@QEAA_NPEBUtagBITMAPFILEHEADER@@JJJJW4BackgroundOp@@_N@Z 0000000140007cf0 f   Background.obj
 0001:00007190       ?FinalRelease@CVConGroup@@MEAAXXZ 0000000140008190 f   VConGroup.obj
 0001:00007190       ?FinalRelease@CTabID@@MEAAXXZ 0000000140008190 f   TabID.obj
 0001:00007190       ?FinalRelease@CRConData@@MEAAXXZ 0000000140008190 f   RConData.obj
 0001:00007190       ?FinalRelease@CBackgroundInfo@@UEAAXXZ 0000000140008190 f   Background.obj
 0001:00007190       ?FinalRelease@CFont@@MEAAXXZ 0000000140008190 f   Font.obj
 0001:000071ac       ?GetBgImgData@CBackgroundInfo@@QEAAPEBUtagBITMAPFILEHEADER@@XZ 00000001400081ac f   Background.obj
 0001:000071bc       ?HasPluginBackgroundImage@CBackground@@QEAA_NPEAJ0@Z 00000001400081bc f   Background.obj
 0001:00007208       ?IsBackgroundValid@CBackground@@SAIPEBUCESERVER_REQ_SETBACKGROUND@@PEA_N@Z 0000000140008208 f   Background.obj
 0001:00007280       ?LoadBackgroundFile@CBackgroundInfo@@QEAA_N_N@Z 0000000140008280 f   Background.obj
 0001:00007400       ?NeedBackgroundUpdate@CBackground@@QEAAXXZ 0000000140008400 f   Background.obj
 0001:0000740c       ?PollBackgroundFile@CBackgroundInfo@@QEAA_NXZ 000000014000840c f   Background.obj
 0001:00007508       ?PrepareBackground@CBackground@@QEAA_NPEAVCVirtualConsole@@AEAPEAUHDC__@@AEAU_COORD@@@Z 0000000140008508 f   Background.obj
 0001:00007968       ?PutPluginBackgroundImage@CBackground@@AEAA_NJJJJ@Z 0000000140008968 f   Background.obj
 0001:00007c58       ?SetPluginBackgroundImageData@CBackground@@QEAAHPEAUCESERVER_REQ_SETBACKGROUND@@AEA_N@Z 0000000140008c58 f   Background.obj
 0001:00007e3c       ??$_Emplace_reallocate@AEBUDragData@CDataObject@@@?$vector@UDragData@CDataObject@@V?$MArrayAllocator@UDragData@CDataObject@@@@@std@@QEAAPEAUDragData@CDataObject@@QEAU23@AEBU23@@Z 0000000140008e3c f i BaseDragDrops.obj
 0001:00007e3c       ??$_Emplace_reallocate@AEBUItemInfo@CDynDialog@@@?$vector@UItemInfo@CDynDialog@@V?$MArrayAllocator@UItemInfo@CDynDialog@@@@@std@@QEAAPEAUItemInfo@CDynDialog@@QEAU23@AEBU23@@Z 0000000140008e3c f i DynDialog.obj
 0001:00007ff0       ??0CBaseDropTarget@@QEAA@XZ 0000000140008ff0 f   BaseDragDrops.obj
 0001:00008008       ??0CDataObject@@QEAA@PEAUtagFORMATETC@@PEAUtagSTGMEDIUM@@H@Z 0000000140009008 f   BaseDragDrops.obj
 0001:00008144       ??0CEnumFormatEtc@@QEAA@PEAUtagFORMATETC@@H@Z 0000000140009144 f   BaseDragDrops.obj
 0001:000081c8       ??1?$MArray@UDragData@CDataObject@@@@QEAA@XZ 00000001400091c8 f i BaseDragDrops.obj
 0001:000081c8       ??1_FindAllMonitors@@QEAA@XZ 00000001400091c8 f i common-user64:Monitors.obj
 0001:000081c8       ??1?$MArray@PEAVCFont@@@@QEAA@XZ 00000001400091c8 f i FontMgr.obj
 0001:000081c8       ??1?$MArray@UCmdTaskPopupItem@CConEmuMenu@@@@QEAA@XZ 00000001400091c8 f i Menu.obj
 0001:000081c8       ??1?$MArray@PEAVCVConGuard@@@@QEAA@XZ 00000001400091c8 f i Macro.obj
 0001:000081c8       ??1?$MArray@URegFont@@@@QEAA@XZ 00000001400091c8 f i FontMgr.obj
 0001:000081c8       ??1?$MArray@PEB_W@@QEAA@XZ 00000001400091c8 f i ConEmu.obj
 0001:000081c8       ??1?$MArray@ULngRcItem@CLngRc@@@@QEAA@XZ 00000001400091c8 f i LngRc.obj
 0001:000081c8       ??1?$MArray@PEAVCVConGroup@@@@QEAA@XZ 00000001400091c8 f i VConGroup.obj
 0001:000081c8       ??1?$MArray@H@@QEAA@XZ     00000001400091c8 f i CmdHistory.obj
 0001:000081c8       ??1?$MArray@PEAUHWND__@@@@QEAA@XZ 00000001400091c8 f i ConEmu.obj
 0001:000081c8       ??1?$MArray@UGuiMacroArg@@@@QEAA@XZ 00000001400091c8 f i Macro.obj
 0001:000081c8       ??1?$MArray@PEAVCTabID@@@@QEAA@XZ 00000001400091c8 f i TabBar.obj
 0001:000081c8       ??1?$MArray@UConProcess@@@@QEAA@XZ 00000001400091c8 f i RealConsole.obj
 0001:000081c8       ??1?$MArray@UThreadHandle@CDefTermBase@@@@QEAA@XZ 00000001400091c8 f i DefaultTerm.obj
 0001:000081c8       ??1?$MArray@ULngDefinition@CLngRc@@@@QEAA@XZ 00000001400091c8 f i LngRc.obj
 0001:000081c8       ??1?$MArray@URunQueueItem@CRunQueue@@@@QEAA@XZ 00000001400091c8 f i RunQueue.obj
 0001:000081c8       ??1?$MArray@D@@QEAA@XZ     00000001400091c8 f i Registry.obj
 0001:000081c8       ??1?$MArray@UtagPROCESSENTRY32W@@@@QEAA@XZ 00000001400091c8 f i RealConsole.obj
 0001:000081c8       ??1?$MArray@UMonitorInfoCache@CConEmuSize@@@@QEAA@XZ 00000001400091c8 f i ConEmuSize.obj
 0001:000081c8       ??1?$MArray@UFontHeightInfo@@@@QEAA@XZ 00000001400091c8 f i FontMgr.obj
 0001:000081c8       ??1?$MArray@UTabIconCache@CIconList@@@@QEAA@XZ 00000001400091c8 f i IconList.obj
 0001:000081c8       ??1?$MArray@UProcessInfo@CDefTermBase@@@@QEAA@XZ 00000001400091c8 f i DefaultTerm.obj
 0001:000081c8       ??1?$MArray@UVarDef@CVarDefs@FastConfig@@@@QEAA@XZ 00000001400091c8 f i OptionsFast.obj
 0001:000081c8       ??1?$MArray@U_ThInfo@CDragDrop@@@@QEAA@XZ 00000001400091c8 f i DragDrop.obj
 0001:000081c8       ??1?$MArray@PEAUSwitch@@@@QEAA@XZ 00000001400091c8 f i SetPgIntegr.obj
 0001:000081c8       ??1?$MArray@PEA_W@@QEAA@XZ 00000001400091c8 f i ConEmuCtrl.obj
 0001:000081c8       ??1?$MArray@USshAgent@CConEmuMain@@@@QEAA@XZ 00000001400091c8 f i ConEmu.obj
 0001:000081fc       ??1CBaseDropTarget@@UEAA@XZ 00000001400091fc f   BaseDragDrops.obj
 0001:00008208       ??1CDataObject@@UEAA@XZ    0000000140009208 f   BaseDragDrops.obj
 0001:000082f4       ??1CEnumFormatEtc@@UEAA@XZ 00000001400092f4 f   BaseDragDrops.obj
 0001:0000836c       ??_GCBaseDropTarget@@UEAAPEAXI@Z 000000014000936c f i BaseDragDrops.obj
 0001:0000836c       ??_ECBaseDropTarget@@UEAAPEAXI@Z 000000014000936c f i BaseDragDrops.obj
 0001:00008398       ??_GCDataObject@@UEAAPEAXI@Z 0000000140009398 f i BaseDragDrops.obj
 0001:00008398       ??_ECDataObject@@UEAAPEAXI@Z 0000000140009398 f i BaseDragDrops.obj
 0001:000083cc       ??_ECDropSource@@UEAAPEAXI@Z 00000001400093cc f i BaseDragDrops.obj
 0001:000083cc       ??_GCDropSource@@UEAAPEAXI@Z 00000001400093cc f i BaseDragDrops.obj
 0001:000083f8       ??_ECEnumFormatEtc@@UEAAPEAXI@Z 00000001400093f8 f i BaseDragDrops.obj
 0001:000083f8       ??_GCEnumFormatEtc@@UEAAPEAXI@Z 00000001400093f8 f i BaseDragDrops.obj
 0001:0000842c       ?AddRef@CDataObject@@UEAAKXZ 000000014000942c f   BaseDragDrops.obj
 0001:0000842c       ?AddRef@CEnumFormatEtc@@UEAAKXZ 000000014000942c f   BaseDragDrops.obj
 0001:0000842c       ?AddRef@CBaseDropTarget@@UEAAKXZ 000000014000942c f   BaseDragDrops.obj
 0001:0000843c       ?AddRef@CDropSource@@UEAAKXZ 000000014000943c f   BaseDragDrops.obj
 0001:0000844c       ?Clone@CEnumFormatEtc@@UEAAJPEAPEAUIEnumFORMATETC@@@Z 000000014000944c f   BaseDragDrops.obj
 0001:00008484       ?CreateDataObject@@YAJPEAUtagFORMATETC@@PEAUtagSTGMEDIUM@@IPEAPEAVCDataObject@@@Z 0000000140009484 f   BaseDragDrops.obj
 0001:00008504       ?CreateDropSource@@YAJPEAPEAUIDropSource@@PEAVCDragDropData@@@Z 0000000140009504 f   BaseDragDrops.obj
 0001:00008574       ?CreateEnumFormatEtc@@YAJIPEAUtagFORMATETC@@PEAPEAUIEnumFORMATETC@@@Z 0000000140009574 f   BaseDragDrops.obj
 0001:000085f8       ?EnumDAdvise@CDataObject@@UEAAJPEAPEAUIEnumSTATDATA@@@Z 00000001400095f8 f   BaseDragDrops.obj
 0001:000085f8       ?DAdvise@CDataObject@@UEAAJPEAUtagFORMATETC@@KPEAUIAdviseSink@@PEAK@Z 00000001400095f8 f   BaseDragDrops.obj
 0001:000085f8       ?DUnadvise@CDataObject@@UEAAJK@Z 00000001400095f8 f   BaseDragDrops.obj
 0001:00008650       ?OnEditChanged@CSetPgBase@@UEAA_JPEAUHWND__@@G@Z 0000000140009650 f   SetPgBase.obj
 0001:00008650       __scrt_exe_initialize_mta  0000000140009650 f   LIBCMT:utility_desktop.obj
 0001:00008650       __scrt_initialize_winrt    0000000140009650 f   LIBCMT:utility_desktop.obj
 0001:00008650       ?DragLeave@CBaseDropTarget@@UEAAJXZ 0000000140009650 f   BaseDragDrops.obj
 0001:00008650       ?Drop@CBaseDropTarget@@UEAAJPEAUIDataObject@@KU_POINTL@@PEAK@Z 0000000140009650 f   BaseDragDrops.obj
 0001:00008650       ?GetPageType@CSetPgGeneral@@UEAA?AW4TabHwndIndex@@XZ 0000000140009650 f   SetPgGeneral.obj
 0001:00008650       __scrt_stub_for_initialize_mta 0000000140009650 f   LIBCMT:utility_desktop.obj
 0001:00008650       _get_startup_new_mode      0000000140009650 f   LIBCMT:new_mode.obj
 0001:00008650       ?IsItalic@BDFFont@@UEAAHXZ 0000000140009650 f   CustomFonts.obj
 0001:00008650       ?IsUnderline@BDFFont@@UEAAHXZ 0000000140009650 f   CustomFonts.obj
 0001:00008650       ?DragOver@CBaseDropTarget@@UEAAJKU_POINTL@@PEAK@Z 0000000140009650 f   BaseDragDrops.obj
 0001:00008650       _get_startup_thread_locale_mode 0000000140009650 f   LIBCMT:thread_locale.obj
 0001:00008650       ?DragEnter@CBaseDropTarget@@UEAAJPEAUIDataObject@@KU_POINTL@@PEAK@Z 0000000140009650 f   BaseDragDrops.obj
 0001:00008650       ?OnComboBox@CSetPgComspec@@UEAA_JPEAUHWND__@@GG@Z 0000000140009650 f   SetPgComspec.obj
 0001:00008650       _get_startup_commit_mode   0000000140009650 f   LIBCMT:commit_mode.obj
 0001:00008650       ?OnComboBox@CSetPgBase@@UEAA_JPEAUHWND__@@GG@Z 0000000140009650 f   SetPgBase.obj
 0001:00008650       _matherr                   0000000140009650 f   LIBCMT:matherr.obj
 0001:00008650       ?PageDlgProc@CSetPgBase@@UEAA_JPEAUHWND__@@I_K_J@Z 0000000140009650 f   SetPgANSI.obj
 0001:00008654       ?DupMem@@YAPEAXPEAX@Z      0000000140009654 f   BaseDragDrops.obj
 0001:000086c8       ?EnumFormatEtc@CDataObject@@UEAAJKPEAPEAUIEnumFORMATETC@@@Z 00000001400096c8 f   BaseDragDrops.obj
 0001:0000879c       ?GetCanonicalFormatEtc@CDataObject@@UEAAJPEAUtagFORMATETC@@0@Z 000000014000979c f   BaseDragDrops.obj
 0001:000087a8       ?GetData@CDataObject@@UEAAJPEAUtagFORMATETC@@PEAUtagSTGMEDIUM@@@Z 00000001400097a8 f   BaseDragDrops.obj
 0001:0000887c       ?GetDataHere@CDataObject@@UEAAJPEAUtagFORMATETC@@PEAUtagSTGMEDIUM@@@Z 000000014000987c f   BaseDragDrops.obj
 0001:00008884       ?GiveFeedback@CDropSource@@UEAAJK@Z 0000000140009884 f   BaseDragDrops.obj
 0001:00008944       ?LookupFormatEtc@CDataObject@@AEAAHPEAUtagFORMATETC@@@Z 0000000140009944 f   BaseDragDrops.obj
 0001:000089b4       ?Next@CEnumFormatEtc@@UEAAJKPEAUtagFORMATETC@@PEAK@Z 00000001400099b4 f   BaseDragDrops.obj
 0001:00008a48       ?QueryContinueDrag@CDropSource@@UEAAJHK@Z 0000000140009a48 f   BaseDragDrops.obj
 0001:00008ac0       ?QueryGetData@CDataObject@@UEAAJPEAUtagFORMATETC@@@Z 0000000140009ac0 f   BaseDragDrops.obj
 0001:00008ae0       ?QueryInterface@CBaseDropTarget@@UEAAJAEBU_GUID@@PEAPEAX@Z 0000000140009ae0 f   BaseDragDrops.obj
 0001:00008b44       ?QueryInterface@CDataObject@@UEAAJAEBU_GUID@@PEAPEAX@Z 0000000140009b44 f   BaseDragDrops.obj
 0001:00008ba8       ?QueryInterface@CDropSource@@UEAAJAEBU_GUID@@PEAPEAX@Z 0000000140009ba8 f   BaseDragDrops.obj
 0001:00008c0c       ?QueryInterface@CEnumFormatEtc@@UEAAJAEBU_GUID@@PEAPEAX@Z 0000000140009c0c f   BaseDragDrops.obj
 0001:00008c70       ?Release@CBaseDropTarget@@UEAAKXZ 0000000140009c70 f   BaseDragDrops.obj
 0001:00008c70       ?Release@CEnumFormatEtc@@UEAAKXZ 0000000140009c70 f   BaseDragDrops.obj
 0001:00008c98       ?Release@CDataObject@@UEAAKXZ 0000000140009c98 f   BaseDragDrops.obj
 0001:00008cc0       ?Release@CDropSource@@UEAAKXZ 0000000140009cc0 f   BaseDragDrops.obj
 0001:00008ce8       ?Reset@CEnumFormatEtc@@UEAAJXZ 0000000140009ce8 f   BaseDragDrops.obj
 0001:00008cf0       ?SetData@CDataObject@@UEAAJPEAUtagFORMATETC@@PEAUtagSTGMEDIUM@@H@Z 0000000140009cf0 f   BaseDragDrops.obj
 0001:00008e04       ?SetDataInt@CDataObject@@QEAAJPEB_WPEBXK@Z 0000000140009e04 f   BaseDragDrops.obj
 0001:00008eb0       ?Skip@CEnumFormatEtc@@UEAAJK@Z 0000000140009eb0 f   BaseDragDrops.obj
 0001:00008ec0       ?_Getal@?$_Vector_alloc@U?$_Vec_base_types@UDragData@CDataObject@@V?$MArrayAllocator@UDragData@CDataObject@@@@@std@@@std@@QEAAAEAV?$MArrayAllocator@UDragData@CDataObject@@@@XZ 0000000140009ec0 f i BaseDragDrops.obj
 0001:00008ec0       ?_Getal@?$_Vector_alloc@U?$_Vec_base_types@PEAXV?$MArrayAllocator@PEAX@@@std@@@std@@QEAAAEAV?$MArrayAllocator@PEAX@@XZ 0000000140009ec0 f i TaskBar.obj
 0001:00008ec0       ?_Getal@?$_Vector_alloc@U?$_Vec_base_types@ULngRcItem@CLngRc@@V?$MArrayAllocator@ULngRcItem@CLngRc@@@@@std@@@std@@QEAAAEAV?$MArrayAllocator@ULngRcItem@CLngRc@@@@XZ 0000000140009ec0 f i LngRc.obj
 0001:00008ec0       ?_Getal@?$_Vector_alloc@U?$_Vec_base_types@DV?$MArrayAllocator@D@@@std@@@std@@QEAAAEAV?$MArrayAllocator@D@@XZ 0000000140009ec0 f i Registry.obj
 0001:00008ec0       ?_Getal@?$_Vector_alloc@U?$_Vec_base_types@PEAVCTabID@@V?$MArrayAllocator@PEAVCTabID@@@@@std@@@std@@QEAAAEAV?$MArrayAllocator@PEAVCTabID@@@@XZ 0000000140009ec0 f i TabBar.obj
 0001:00008ec0       ?_Getal@?$_Vector_alloc@U?$_Vec_base_types@PEA_WV?$MArrayAllocator@PEA_W@@@std@@@std@@QEAAAEAV?$MArrayAllocator@PEA_W@@XZ 0000000140009ec0 f i CmdHistory.obj
 0001:00008ec0       ?_Getal@?$_Vector_alloc@U?$_Vec_base_types@HV?$MArrayAllocator@H@@@std@@@std@@QEAAAEAV?$MArrayAllocator@H@@XZ 0000000140009ec0 f i CmdHistory.obj
 0001:00008ec0       ?GetInterface@CDefaultTerminal@@MEAAPEAVCDefTermBase@@XZ 0000000140009ec0 f i DefaultTerm.obj
 0001:00008ec0       ?_Getal@?$_Vector_alloc@U?$_Vec_base_types@V?$_List_unchecked_iterator@V?$_List_val@U?$_List_simple_types@U?$pair@$$CBHG@std@@@std@@@std@@@std@@V?$allocator@V?$_List_unchecked_iterator@V?$_List_val@U?$_List_simple_types@U?$pair@$$CBHG@std@@@std@@@std@@@std@@@2@@std@@@std@@QEAAAEAV?$allocator@V?$_List_unchecked_iterator@V?$_List_val@U?$_List_simple_types@U?$pair@$$CBHG@std@@@std@@@std@@@std@@@2@XZ 0000000140009ec0 f i Font.obj
 0001:00008ec0       ?_Getal@?$_Vector_alloc@U?$_Vec_base_types@PEAUCommand@CProcessEnvCmd@@V?$MArrayAllocator@PEAUCommand@CProcessEnvCmd@@@@@std@@@std@@QEAAAEAV?$MArrayAllocator@PEAUCommand@CProcessEnvCmd@@@@XZ 0000000140009ec0 f i common-user64:ProcessSetEnv.obj
 0001:00008ec4       ?_Reallocate_exactly@?$vector@UDragData@CDataObject@@V?$MArrayAllocator@UDragData@CDataObject@@@@@std@@AEAAX_K@Z 0000000140009ec4 f i BaseDragDrops.obj
 0001:00008f8c       ?push_back@?$MArray@UDragData@CDataObject@@@@QEAA_JAEBUDragData@CDataObject@@@Z 0000000140009f8c f i BaseDragDrops.obj
 0001:00008f8c       ?push_back@?$MArray@UItemInfo@CDynDialog@@@@QEAA_JAEBUItemInfo@CDynDialog@@@Z 0000000140009f8c f i DynDialog.obj
 0001:00009010       ??$_Emplace_reallocate@AEBH@?$vector@HV?$MArrayAllocator@H@@@std@@QEAAPEAHQEAHAEBH@Z 000000014000a010 f i CmdHistory.obj
 0001:00009148       ??$_Fill_unchecked1@PEAPEAUCommand@CProcessEnvCmd@@PEAU12@@std@@YAXPEAPEAUCommand@CProcessEnvCmd@@0AEBQEAU12@U?$integral_constant@_N$0A@@0@@Z 000000014000a148 f i common-user64:ProcessSetEnv.obj
 0001:00009148       ??$_Fill_unchecked1@PEAPEAVCTabID@@PEAV1@@std@@YAXPEAPEAVCTabID@@0AEBQEAV1@U?$integral_constant@_N$0A@@0@@Z 000000014000a148 f i TabBar.obj
 0001:00009148       ??$_Fill_unchecked1@PEAPEA_WPEA_W@std@@YAXPEAPEA_W0AEBQEA_WU?$integral_constant@_N$0A@@0@@Z 000000014000a148 f i CmdHistory.obj
 0001:000091d4       ??0CommandHistory@@QEAA@H@Z 000000014000a1d4 f   CmdHistory.obj
 0001:00009208       ??1CommandHistory@@QEAA@XZ 000000014000a208 f   CmdHistory.obj
 0001:00009244       ?Add@CommandHistory@@QEAAXPEB_W_N@Z 000000014000a244 f   CmdHistory.obj
 0001:0000942c       ?Compare@CommandHistory@@QEAAHHPEB_W@Z 000000014000a42c f   CmdHistory.obj
 0001:0000947c       ?CreateMSZ@CommandHistory@@QEAAIAEAPEA_W@Z 000000014000a47c f   CmdHistory.obj
 0001:000095fc       ?FreeItems@CommandHistory@@QEAAXXZ 000000014000a5fc f   CmdHistory.obj
 0001:000096b0       ?Get@CommandHistory@@QEAAPEB_WH@Z 000000014000a6b0 f   CmdHistory.obj
 0001:000096e4       ?ParseMSZ@CommandHistory@@QEAAXPEB_W@Z 000000014000a6e4 f   CmdHistory.obj
 0001:0000976c       ?_Reallocate_exactly@?$vector@HV?$MArrayAllocator@H@@@std@@AEAAX_K@Z 000000014000a76c f i CmdHistory.obj
 0001:00009814       ?insert@?$vector@PEA_WV?$MArrayAllocator@PEA_W@@@std@@QEAA?AV?$_Vector_iterator@V?$_Vector_val@U?$_Simple_types@PEA_W@std@@@std@@@2@V?$_Vector_const_iterator@V?$_Vector_val@U?$_Simple_types@PEA_W@std@@@std@@@2@_KAEBQEA_W@Z 000000014000a814 f i CmdHistory.obj
 0001:00009814       ?insert@?$vector@PEAUCommand@CProcessEnvCmd@@V?$MArrayAllocator@PEAUCommand@CProcessEnvCmd@@@@@std@@QEAA?AV?$_Vector_iterator@V?$_Vector_val@U?$_Simple_types@PEAUCommand@CProcessEnvCmd@@@std@@@std@@@2@V?$_Vector_const_iterator@V?$_Vector_val@U?$_Simple_types@PEAUCommand@CProcessEnvCmd@@@std@@@std@@@2@_KAEBQEAUCommand@CProcessEnvCmd@@@Z 000000014000a814 f i common-user64:ProcessSetEnv.obj
 0001:00009814       ?insert@?$vector@PEAVCTabID@@V?$MArrayAllocator@PEAVCTabID@@@@@std@@QEAA?AV?$_Vector_iterator@V?$_Vector_val@U?$_Simple_types@PEAVCTabID@@@std@@@std@@@2@V?$_Vector_const_iterator@V?$_Vector_val@U?$_Simple_types@PEAVCTabID@@@std@@@std@@@2@_KAEBQEAVCTabID@@@Z 000000014000a814 f i TabBar.obj
 0001:00009a7c       ??0ColorFix@@QEAA@K@Z      000000014000aa7c f   ColorFix.obj
 0001:00009a98       ??0ColorFix@@QEAA@XZ       000000014000aa98 f   ColorFix.obj
 0001:00009aac       ??0dE00@@QEAA@UColorFix@@0NNN@Z 000000014000aaac f i ColorFix.obj
 0001:00009d4c       ?DeltaE@ColorFix@@QEAANU1@@Z 000000014000ad4c f   ColorFix.obj
 0001:00009d98       ?DeltaE@ColorSpace@@YANUColorFix@@0@Z 000000014000ad98 f   ColorFix.obj
 0001:00009e10       ?PerceivableColor@ColorFix@@QEAA_NKAEAU1@PEAN1@Z 000000014000ae10 f   ColorFix.obj
 0001:00009fd8       ?ToLab@ColorFix@@QEAAXXZ   000000014000afd8 f   ColorFix.obj
 0001:0000a020       ?getDeltaE@dE00@@QEAANXZ   000000014000b020 f i ColorFix.obj
 0001:0000a248       ?getDeltahPrime@dE00@@QEAANXZ 000000014000b248 f i ColorFix.obj
 0001:0000a2bc       ?getRsubT@dE00@@QEAANXZ    000000014000b2bc f i ColorFix.obj
 0001:0000a37c       ?getT@dE00@@QEAANXZ        000000014000b37c f i ColorFix.obj
 0001:0000a454       ?lab2rgb@ColorSpace@@YAXNNNAEAK@Z 000000014000b454 f   ColorFix.obj
 0001:0000a514       ?lab2rgb@ColorSpace@@YAXNNNAEAN00@Z 000000014000b514 f   ColorFix.obj
 0001:0000a7bc       ?rgb2lab@ColorSpace@@YAXNNNAEAN00@Z 000000014000b7bc f   ColorFix.obj
 0001:0000aa64       ??$SafeDelete@UCEFindDlg@@@@YAXAEAPEAUCEFindDlg@@@Z 000000014000ba64 f i ConEmu.obj
 0001:0000aa94       ??$SafeDelete@VCRConFiles@@@@YAXAEAPEAVCRConFiles@@@Z 000000014000ba94 f i RealConsole.obj
 0001:0000aa94       ??$SafeDelete@VCPushInfo@@@@YAXAEAPEAVCPushInfo@@@Z 000000014000ba94 f i ConEmu.obj
 0001:0000aa94       ??$SafeDelete@UHandleMonitor@@@@YAXAEAPEAUHandleMonitor@@@Z 000000014000ba94 f i ConEmu.obj
 0001:0000aadc       ??$SafeDelete@UMSectionLockSimple@@@@YAXAEAPEAUMSectionLockSimple@@@Z 000000014000badc f i ConEmu.obj
 0001:0000ab24       ??$SafeDelete@UMSectionSimple@@@@YAXAEAPEAUMSectionSimple@@@Z 000000014000bb24 f i ConEmu.obj
 0001:0000ab6c       ??$SafeDelete@VCAltNumpad@@@@YAXAEAPEAVCAltNumpad@@@Z 000000014000bb6c f i ConEmu.obj
 0001:0000abb4       ??$SafeDelete@VCAttachDlg@@@@YAXAEAPEAVCAttachDlg@@@Z 000000014000bbb4 f i ConEmu.obj
 0001:0000abfc       ??$SafeDelete@VCConEmuMenu@@@@YAXAEAPEAVCConEmuMenu@@@Z 000000014000bbfc f i ConEmu.obj
 0001:0000ac44       ??$SafeDelete@VCDefaultTerminal@@@@YAXAEAPEAVCDefaultTerminal@@@Z 000000014000bc44 f i ConEmu.obj
 0001:0000ac7c       ??$SafeDelete@VCDragDrop@@@@YAXAEAPEAVCDragDrop@@@Z 000000014000bc7c f i ConEmu.obj
 0001:0000acb4       ??$SafeDelete@VCRecreateDlg@@@@YAXAEAPEAVCRecreateDlg@@@Z 000000014000bcb4 f i ConEmu.obj
 0001:0000acfc       ??$SafeDelete@VCRunQueue@@@@YAXAEAPEAVCRunQueue@@@Z 000000014000bcfc f i ConEmu.obj
 0001:0000ad44       ??$_Emplace_reallocate@AEBUtxt@CFormatCopy@@@?$vector@Utxt@CFormatCopy@@V?$MArrayAllocator@Utxt@CFormatCopy@@@@@std@@QEAAPEAUtxt@CFormatCopy@@QEAU23@AEBU23@@Z 000000014000bd44 f i RealBuffer.obj
 0001:0000ad44       ??$_Emplace_reallocate@AEBUThreadHandle@CDefTermBase@@@?$vector@UThreadHandle@CDefTermBase@@V?$MArrayAllocator@UThreadHandle@CDefTermBase@@@@@std@@QEAAPEAUThreadHandle@CDefTermBase@@QEAU23@AEBU23@@Z 000000014000bd44 f i ConEmu.obj
 0001:0000ad44       ??$_Emplace_reallocate@AEBUVarDef@CVarDefs@FastConfig@@@?$vector@UVarDef@CVarDefs@FastConfig@@V?$MArrayAllocator@UVarDef@CVarDefs@FastConfig@@@@@std@@QEAAPEAUVarDef@CVarDefs@FastConfig@@QEAU234@AEBU234@@Z 000000014000bd44 f i OptionsFast.obj
 0001:0000ad44       ??$_Emplace_reallocate@AEBUSshAgent@CConEmuMain@@@?$vector@USshAgent@CConEmuMain@@V?$MArrayAllocator@USshAgent@CConEmuMain@@@@@std@@QEAAPEAUSshAgent@CConEmuMain@@QEAU23@AEBU23@@Z 000000014000bd44 f i ConEmu.obj
 0001:0000ad44       ??$_Emplace_reallocate@AEBU_ThInfo@CDragDrop@@@?$vector@U_ThInfo@CDragDrop@@V?$MArrayAllocator@U_ThInfo@CDragDrop@@@@@std@@QEAAPEAU_ThInfo@CDragDrop@@QEAU23@AEBU23@@Z 000000014000bd44 f i DragDrop.obj
 0001:0000ad44       ??$_Emplace_reallocate@AEBUTabIconCache@CIconList@@@?$vector@UTabIconCache@CIconList@@V?$MArrayAllocator@UTabIconCache@CIconList@@@@@std@@QEAAPEAUTabIconCache@CIconList@@QEAU23@AEBU23@@Z 000000014000bd44 f i IconList.obj
 0001:0000ae84       ??$sprintf_c@$0CAA@@@YAHAEAY0CAA@DPEBDZZ 000000014000be84 f i ConEmu.obj
 0001:0000aeb0       ??$sprintf_c@$0GE@@@YAHAEAY0GE@DPEBDZZ 000000014000beb0 f i ConEmu.obj
 0001:0000aedc       ??$sprintf_c@$0IA@@@YAHAEAY0IA@DPEBDZZ 000000014000bedc f i ConEmu.obj
 0001:0000af08       ??$swprintf_c@$09@@YAHAEAY09_WPEB_WZZ 000000014000bf08 f i ConEmu.obj
 0001:0000af34       ??$swprintf_c@$0BA@@@YAHAEAY0BA@_WPEB_WZZ 000000014000bf34 f i ConEmu.obj
 0001:0000af60       ??$swprintf_c@$0BFE@@@YAHAEAY0BFE@_WPEB_WZZ 000000014000bf60 f i ConEmu.obj
 0001:0000af8c       ??$swprintf_c@$0CAA@@@YAHAEAY0CAA@_WPEB_WZZ 000000014000bf8c f i ConEmu.obj
 0001:0000afb8       ??$swprintf_c@$0EA@@@YAHAEAY0EA@_WPEB_WZZ 000000014000bfb8 f i ConEmu.obj
 0001:0000afe4       ??$swprintf_c@$0GE@@@YAHAEAY0GE@_WPEB_WZZ 000000014000bfe4 f i ConEmu.obj
 0001:0000b010       ??$swprintf_c@$0IM@@@YAHAEAY0IM@_WPEB_WZZ 000000014000c010 f i ConEmu.obj
 0001:0000b03c       ??$swprintf_c@$0KA@@@YAHAEAY0KA@_WPEB_WZZ 000000014000c03c f i ConEmu.obj
 0001:0000b068       ??$swprintf_c@$0MI@@@YAHAEAY0MI@_WPEB_WZZ 000000014000c068 f i ConEmu.obj
 0001:0000b094       ??$swprintf_c@$0PP@@@YAHAEAY0PP@_WPEB_WZZ 000000014000c094 f i ConEmu.obj
 0001:0000b0c0       ??$ultow_s@$0BE@@@YAPEB_WIAEAY0BE@_WH@Z 000000014000c0c0 f i ConEmu.obj
 0001:0000b0ec       ??0CConEmuMain@@QEAA@XZ    000000014000c0ec f   ConEmu.obj
 0001:0000c35c       ??0MWow64Disable@@QEAA@XZ  000000014000d35c f i ConEmu.obj
 0001:0000c3d0       ??1?$MFileMapping@Utag_DetectedDialog@@@@QEAA@XZ 000000014000d3d0 f i VirtualConsole.obj
 0001:0000c3d0       ??1?$MFileMapping@UCESERVER_CONSOLE_MAPPING_HDR@@@@QEAA@XZ 000000014000d3d0 f i RealConsole.obj
 0001:0000c3d0       ??1?$MFileMapping@UConEmuGuiMapping@@@@QEAA@XZ 000000014000d3d0 f i ConEmu.obj
 0001:0000c3d0       ??1?$MFileMapping@UCESERVER_CONSAVE_MAPHDR@@@@QEAA@XZ 000000014000d3d0 f i RealBuffer.obj
 0001:0000c3d0       ??1?$MFileMapping@$$CBUCEFAR_INFO_MAPPING@@@@QEAA@XZ 000000014000d3d0 f i RealConsole.obj
 0001:0000c3d0       ??1?$MFileMapping@UPanelViewSetMapping@@@@QEAA@XZ 000000014000d3d0 f i OptionsClass.obj
 0001:0000c3d0       ??1?$MFileMapping@UCESERVER_CONSOLE_APP_MAPPING@@@@QEAA@XZ 000000014000d3d0 f i RealConsole.obj
 0001:0000c3d0       ??1?$MFileMapping@UCESERVER_CONSAVE_MAP@@@@QEAA@XZ 000000014000d3d0 f i RealBuffer.obj
 0001:0000c424       ??1?$MMap@PEAVCVConGroup@@PEAVCVirtualConsole@@$0A@@@QEAA@XZ 000000014000d424 f i TabBar.obj
 0001:0000c424       ??1?$MMap@KH$0A@@@QEAA@XZ  000000014000d424 f i RealConsole.obj
 0001:0000c424       ??1?$MMap@IPEBD$0A@@@QEAA@XZ 000000014000d424 f i ConEmu.obj
 0001:0000c474       ??1CConEmuMain@@UEAA@XZ    000000014000d474 f   ConEmu.obj
 0001:0000c870       ??1MWow64Disable@@QEAA@XZ  000000014000d870 f i ConEmu.obj
 0001:0000c89c       ??_ECConEmuMain@@WBCA@EAAPEAXI@Z 000000014000d89c f i ConEmu.obj
 0001:0000c8a8       ??_ECConEmuMain@@WBIA@EAAPEAXI@Z 000000014000d8a8 f i ConEmu.obj
 0001:0000c8b4       ??_ECConEmuMain@@WBNA@EAAPEAXI@Z 000000014000d8b4 f i ConEmu.obj
 0001:0000c8c0       ??_ECConEmuMain@@WCBA@EAAPEAXI@Z 000000014000d8c0 f i ConEmu.obj
 0001:0000c8cc       ??_ECConEmuMain@@WCFI@EAAPEAXI@Z 000000014000d8cc f i ConEmu.obj
 0001:0000c8d8       ??_ECConEmuMain@@WENA@EAAPEAXI@Z 000000014000d8d8 f i ConEmu.obj
 0001:0000c8e4       ??_GCConEmuMain@@UEAAPEAXI@Z 000000014000d8e4 f i ConEmu.obj
 0001:0000c8e4       ??_ECConEmuMain@@UEAAPEAXI@Z 000000014000d8e4 f i ConEmu.obj
 0001:0000c918       ?Activate@CConEmuMain@@QEAAHPEAVCVirtualConsole@@@Z 000000014000d918 f   ConEmu.obj
 0001:0000c98c       ?ActiveConNum@CConEmuMain@@QEAAHXZ 000000014000d98c f   ConEmu.obj
 0001:0000c994       ?AddPostGuiRConMacro@CConEmuMain@@QEAAXPEB_W@Z 000000014000d994 f   ConEmu.obj
 0001:0000c9a0       ?AppendExtraArgs@CConEmuMain@@QEAAXPEB_W0@Z 000000014000d9a0 f   ConEmu.obj
 0001:0000ca5c       ?AppendHKL@CConEmuMain@@IEAAXPEA_W_KPEAPEAUHKL__@@H@Z 000000014000da5c f   ConEmu.obj
 0001:0000cb00       ?AppendRegisteredLayouts@CConEmuMain@@IEAAXPEA_W_K@Z 000000014000db00 f   ConEmu.obj
 0001:0000cbb0       ?AskChangeAlternative@CConEmuMain@@QEAAXXZ 000000014000dbb0 f   ConEmu.obj
 0001:0000cc44       ?AskChangeBufferHeight@CConEmuMain@@QEAAXXZ 000000014000dc44 f   ConEmu.obj
 0001:0000cd34       ?AttachToDialog@CConEmuMain@@QEAAXXZ 000000014000dd34 f   ConEmu.obj
 0001:0000cd84       ?CallMainThread@CConEmuMain@@QEAA_J_NP6A_J_J@Z1@Z 000000014000dd84 f   ConEmu.obj
 0001:0000ce90       ?CanSetChildFocus@CConEmuMain@@QEAA_NXZ 000000014000de90 f   ConEmu.obj
 0001:0000ceac       ?ChangeWorkDir@CConEmuMain@@QEAA_NPEB_W@Z 000000014000deac f   ConEmu.obj
 0001:0000ceec       ?CheckActiveLayoutName@CConEmuMain@@IEAAXXZ 000000014000deec f   ConEmu.obj
 0001:0000d0e4       ?CheckAllowAutoChildFocus@CConEmuMain@@QEAAXK@Z 000000014000e0e4 f   ConEmu.obj
 0001:0000d1b0       ?CheckBaseDir@CConEmuMain@@AEAA_NXZ 000000014000e1b0 f   ConEmu.obj
 0001:0000d27c       ?CheckDosBoxExists@CConEmuMain@@QEAA_NXZ 000000014000e27c f   ConEmu.obj
 0001:0000d354       ?CheckFocus@CConEmuMain@@QEAAXPEB_W@Z 000000014000e354 f   ConEmu.obj
 0001:0000d604       ?CheckForeground@CDefTermBase@@QEAA_NPEAUHWND__@@K_N1@Z 000000014000e604 f i ConEmu.obj
 0001:0000db08       ?CheckNeedRepaint@CConEmuMain@@QEAAXXZ 000000014000eb08 f   ConEmu.obj
 0001:0000dba0       ?CheckNeedUpdateTitle@CConEmuMain@@QEAAXPEB_W@Z 000000014000eba0 f   ConEmu.obj
 0001:0000dbe4       ?CheckPanelDrag@CConEmuMain@@QEAA?AW4DragPanelBorder@@U_COORD@@@Z 000000014000ebe4 f   ConEmu.obj
 0001:0000debc       ?CheckRequiredFiles@CConEmuMain@@QEAA_NXZ 000000014000eebc f   ConEmu.obj
 0001:0000e31c       ?CheckShellWindow@CDefTermBase@@IEAA_NXZ 000000014000f31c f i ConEmu.obj
 0001:0000e4b0       ?CheckUpdates@CConEmuMain@@QEAA_NI@Z 000000014000f4b0 f   ConEmu.obj
 0001:0000e514       ?ClearProcessed@CDefTermBase@@IEAAX_N@Z 000000014000f514 f i ConEmu.obj
 0001:0000e650       ?CloseConfirmFlags@CConEmuMain@@QEAAEXZ 000000014000f650 f   ConEmu.obj
 0001:0000e66c       ?ConActivate@CConEmuMain@@QEAA_NH@Z 000000014000f66c f   ConEmu.obj
 0001:0000e674       ?ConActivateByName@CConEmuMain@@QEAA_NPEB_W@Z 000000014000f674 f   ConEmu.obj
 0001:0000e67c       ?ConActivateNext@CConEmuMain@@QEAA_N_N@Z 000000014000f67c f   ConEmu.obj
 0001:0000e684       ?ConEmuCExeFull@CConEmuMain@@QEAAPEB_WPEB_W@Z 000000014000f684 f   ConEmu.obj
 0001:0000eabc       ?ConEmuIni@CConEmuMain@@QEAAPEA_WXZ 000000014000fabc f   ConEmu.obj
 0001:0000ebdc       ?ConEmuXml@CConEmuMain@@QEAAPEA_WPEA_N@Z 000000014000fbdc f   ConEmu.obj
 0001:0000eccc       ?CreateCon@CConEmuMain@@QEAAPEAVCVirtualConsole@@PEAURConStartArgsEx@@_N1@Z 000000014000fccc f   ConEmu.obj
 0001:0000ed10       ?CreateConGroup@CConEmuMain@@QEAAPEAVCVirtualConsole@@PEB_W_N0PEBURConStartArgsEx@@@Z 000000014000fd10 f   ConEmu.obj
 0001:0000f1a8       ?CreateGhostVCon@CConEmuMain@@QEAAXPEAVCVirtualConsole@@@Z 00000001400101a8 f   ConEmu.obj
 0001:0000f1c4       ?CreateGuiAttachMapping@CConEmuMain@@QEAAXK@Z 00000001400101c4 f   ConEmu.obj
 0001:0000f274       ?CreateLog@CConEmuMain@@QEAA_NXZ 0000000140010274 f   ConEmu.obj
 0001:0000f3f0       ?CreateMainWindow@CConEmuMain@@QEAAHXZ 00000001400103f0 f   ConEmu.obj
 0001:0000fb48       ?CreateStartupConsoles@CConEmuMain@@IEAA_NXZ 0000000140010b48 f   ConEmu.obj
 0001:0000ffb0       ?CreateWnd@CConEmuMain@@QEAA_NPEAURConStartArgsEx@@@Z 0000000140010fb0 f   ConEmu.obj
 0001:00010308       ?CreateWorkWindow@CConEmuMain@@QEAAHXZ 0000000140011308 f   ConEmu.obj
 0001:0001041c       ?CtrlWinAltSpace@CConEmuMain@@QEAAXXZ 000000014001141c f   ConEmu.obj
 0001:00010478       ?DebugStep@CConEmuMain@@QEAAXPEB_WH@Z 0000000140011478 f   ConEmu.obj
 0001:00010568       ?DeinitOnDestroy@CConEmuMain@@AEAAXPEAUHWND__@@_N@Z 0000000140011568 f   ConEmu.obj
 0001:0001072c       ?DeleteVConMainThread@CConEmuMain@@QEAAXPEAVCVirtualConsole@@@Z 000000014001172c f   ConEmu.obj
 0001:00010748       ?Destroy@CConEmuMain@@QEAAX_N@Z 0000000140011748 f   ConEmu.obj
 0001:0001086c       ?DestroyAllChildWindows@CConEmuMain@@AEAAXXZ 000000014001186c f   ConEmu.obj
 0001:000108f4       ?DoFlashWindow@CConEmuMain@@QEAAXPEAUCESERVER_REQ_FLASHWINFO@@_N@Z 00000001400118f4 f   ConEmu.obj
 0001:00010980       ?EnterAltNumpadMode@CConEmuMain@@QEAAXI@Z 0000000140011980 f   ConEmu.obj
 0001:000109ec       ?EnumKeysValues@?$MMap@IPEBD$0A@@@QEAA_NP6A_NAEBIAEBQEBD_J@Z2@Z 00000001400119ec f i ConEmu.obj
 0001:00010ab0       ?EnumWindowsOverQuake@CConEmuMain@@KAHPEAUHWND__@@_J@Z 0000000140011ab0 f   ConEmu.obj
 0001:00010bec       ?ExecPostGuiMacro@CConEmuMain@@QEAAXXZ 0000000140011bec f   ConEmu.obj
 0001:00010d14       ?NotifyHookingStatus@CDefTermBase@@MEAA_NKPEB_W@Z 0000000140011d14 f   DefaultTerm.obj
 0001:00010d14       ?SelectNextItem@CSetPgBase@@UEAA_N_N0@Z 0000000140011d14 f   SetPgANSI.obj
 0001:00010d14       ?isLogging@CDefTermBase@@UEAA_NXZ 0000000140011d14 f   DefaultTerm.obj
 0001:00010d14       ?Load@SettingsINI@@UEAA_NPEB_WPEA_WH@Z 0000000140011d14 f   Registry.obj
 0001:00010d14       ?Load@SettingsINI@@UEAA_NPEB_WPEAEK@Z 0000000140011d14 f   Registry.obj
 0001:00010d14       ?Load@SettingsINI@@UEAA_NPEB_WPEAPEA_W@Z 0000000140011d14 f   Registry.obj
 0001:00010d14       ?ExecuteProcessPrepare@CConEmuMain@@IEAA_NXZ 0000000140011d14 f   ConEmu.obj
 0001:00010de4       ?FillConEmuMainFont@CConEmuMain@@AEAAXPEAUConEmuMainFont@@@Z 0000000140011de4 f   ConEmu.obj
 0001:00010eb4       ?FindConEmuXml@CConEmuMain@@QEAAPEB_WAEAUCEStr@@@Z 0000000140011eb4 f   ConEmu.obj
 0001:00011158       ?FixWindowStyle@CConEmuMain@@QEAAKKW4ConEmuWindowMode@@@Z 0000000140012158 f   ConEmu.obj
 0001:00011280       ?ForceSelectionModifierPressed@CConEmuMain@@QEAAXK@Z 0000000140012280 f   ConEmu.obj
 0001:00011294       ?ForceShowTabs@CConEmuMain@@QEAAXH@Z 0000000140012294 f   ConEmu.obj
 0001:00011304       ?GetActiveKeyboardLayout@CConEmuMain@@QEAA_KXZ 0000000140012304 f   ConEmu.obj
 0001:00011314       ?GetActiveVCon@CConEmuMain@@QEAAHPEAVCVConGuard@@PEAH@Z 0000000140012314 f   ConEmu.obj
 0001:00011320       ?GetComSpecCopy@CConEmuMain@@QEAAXAEAUConEmuComspec@@@Z 0000000140012320 f   ConEmu.obj
 0001:00011338       ?GetConCount@CConEmuMain@@QEAAHXZ 0000000140012338 f   ConEmu.obj
 0001:00011340       ?GetCurrentVConIcon@CConEmuMain@@QEAAPEAUHICON__@@XZ 0000000140012340 f   ConEmu.obj
 0001:000113bc       ?GetDefaultTabLabel@CConEmuMain@@QEAAPEB_WXZ 00000001400123bc f   ConEmu.obj
 0001:000113c4       ?GetDefaultTitle@CConEmuMain@@QEAAPEB_WXZ 00000001400123c4 f   ConEmu.obj
 0001:000113cc       ?GetFarPID@CConEmuMain@@QEAAK_N@Z 00000001400123cc f   ConEmu.obj
 0001:000113d4       ?GetGuiInfo@CConEmuMain@@QEAAXAEAUConEmuGuiMapping@@@Z 00000001400123d4 f   ConEmu.obj
 0001:000113ec       ?GetLastTitle@CConEmuMain@@QEAAPEB_W_N@Z 00000001400123ec f   ConEmu.obj
 0001:00011418       ?GetRegisteredMessage@CConEmuMain@@QEAAIPEBDPEB_W@Z 0000000140012418 f   ConEmu.obj
 0001:0001147c       ?GetRootHWND@CConEmuMain@@QEAAPEAUHWND__@@XZ 000000014001247c f   ConEmu.obj
 0001:000114ac       ?GetStartupStage@CConEmuMain@@QEBA?AW4StartupStage@1@XZ 00000001400124ac f   ConEmu.obj
 0001:000114b4       ?GetWindowStyle@CConEmuMain@@QEAAKXZ 00000001400124b4 f   ConEmu.obj
 0001:000114d4       ?GetWindowStyleEx@CConEmuMain@@QEAAKXZ 00000001400124d4 f   ConEmu.obj
 0001:00011520       ?GlobalHotKeyChanged@CConEmuMain@@QEAAXXZ 0000000140012520 f   ConEmu.obj
 0001:00011558       ?InCreateWindow@CConEmuMain@@QEAA_NXZ 0000000140012558 f   ConEmu.obj
 0001:00011564       ?InQuakeAnimation@CConEmuMain@@QEAA_NXZ 0000000140012564 f   ConEmu.obj
 0001:00011570       ?Init@?$MMap@IPEBD$0A@@@QEAA_N_K_N@Z 0000000140012570 f i ConEmu.obj
 0001:000115e4       ?Init@CConEmuMain@@QEAAHXZ 00000001400125e4 f   ConEmu.obj
 0001:0001169c       ?InitComSpecStr@CConEmuMain@@QEAAXAEAUConEmuComspec@@@Z 000000014001269c f   ConEmu.obj
 0001:000116e8       ?InitInactiveDC@CConEmuMain@@QEAAXPEAVCVirtualConsole@@@Z 00000001400126e8 f   ConEmu.obj
 0001:00011704       ?InitName@?$MFileMapping@UPanelViewSetMapping@@@@QEAAPEB_WPEB_WKK@Z 0000000140012704 f i OptionsClass.obj
 0001:00011704       ?InitName@?$MFileMapping@$$CBUCEFAR_INFO_MAPPING@@@@QEAAPEB_WPEB_WKK@Z 0000000140012704 f i RealConsole.obj
 0001:00011704       ?InitName@?$MFileMapping@UCESERVER_CONSOLE_MAPPING_HDR@@@@QEAAPEB_WPEB_WKK@Z 0000000140012704 f i RealConsole.obj
 0001:00011704       ?InitName@?$MFileMapping@UConEmuGuiMapping@@@@QEAAPEB_WPEB_WKK@Z 0000000140012704 f i ConEmu.obj
 0001:00011704       ?InitName@?$MFileMapping@UCESERVER_CONSOLE_APP_MAPPING@@@@QEAAPEB_WPEB_WKK@Z 0000000140012704 f i RealConsole.obj
 0001:00011704       ?InitName@?$MFileMapping@UCESERVER_CONSAVE_MAP@@@@QEAAPEB_WPEB_WKK@Z 0000000140012704 f i RealBuffer.obj
 0001:00011704       ?InitName@?$MFileMapping@UAnnotationHeader@@@@QEAAPEB_WPEB_WKK@Z 0000000140012704 f i RealConsole.obj
 0001:00011704       ?InitName@?$MFileMapping@UCESERVER_CONSAVE_MAPHDR@@@@QEAAPEB_WPEB_WKK@Z 0000000140012704 f i RealBuffer.obj
 0001:00011704       ?InitName@?$MFileMapping@Utag_DetectedDialog@@@@QEAAPEB_WPEB_WKK@Z 0000000140012704 f i VirtualConsole.obj
 0001:0001179c       ?InternalOpenCreate@?$MFileMapping@UConEmuGuiMapping@@@@IEAAPEAUConEmuGuiMapping@@HHH@Z 000000014001279c f i ConEmu.obj
 0001:00011944       ?Invalidate@CConEmuMain@@QEAAXPEAUtagRECT@@H@Z 0000000140012944 f   ConEmu.obj
 0001:00011954       ?InvalidateAll@CConEmuMain@@QEAAXXZ 0000000140012954 f   ConEmu.obj
 0001:00011994       ?InvalidateFrame@CConEmuMain@@QEAAXXZ 0000000140012994 f   ConEmu.obj
 0001:00011a60       ?InvalidateGaps@CConEmuMain@@QEAAXXZ 0000000140012a60 f   ConEmu.obj
 0001:00011a80       ?IsActiveConAdmin@CConEmuMain@@QEAA_NXZ 0000000140012a80 f   ConEmu.obj
 0001:00011adc       ?IsAllowSaveSettingsOnExit@CConEmuMain@@QEAA_NXZ 0000000140012adc f   ConEmu.obj
 0001:00011b08       ?IsAppMonitored@CDefTermBase@@QEAA_NPEAUHWND__@@K_NPEAUtagPROCESSENTRY32W@@PEA_W@Z 0000000140012b08 f i ConEmu.obj
 0001:00011dc8       ?IsChildFocusAllowed@CConEmuMain@@QEAA_NPEAUHWND__@@@Z 0000000140012dc8 f   ConEmu.obj
 0001:00011e60       ?IsConsoleBatchOrTask@CConEmuMain@@SA_WPEB_W@Z 0000000140012e60 f   ConEmu.obj
 0001:00011f00       ?IsFastSetupDisabled@CConEmuMain@@QEAA_NXZ 0000000140012f00 f   ConEmu.obj
 0001:00011f1c       ?IsKeyboardHookRegistered@CConEmuMain@@QEAA_NXZ 0000000140012f1c f   ConEmu.obj
 0001:00011f28       ?IsQuakeVisible@CConEmuMain@@QEAAIXZ 0000000140012f28 f   ConEmu.obj
 0001:000120d0       ?IsResetBasicSettings@CConEmuMain@@QEAA_NXZ 00000001400130d0 f   ConEmu.obj
 0001:000120e0       ?LoadConEmuCD@CConEmuMain@@IEAAPEAUHINSTANCE__@@XZ 00000001400130e0 f   ConEmu.obj
 0001:0001218c       ?LoadConsoleBatch@CConEmuMain@@QEAAPEA_WPEB_WPEAURConStartArgsEx@@@Z 000000014001318c f   ConEmu.obj
 0001:0001229c       ?LoadConsoleBatch_Drops@CConEmuMain@@AEAAPEA_WPEB_W@Z 000000014001329c f   ConEmu.obj
 0001:00012740       ?LoadConsoleBatch_File@CConEmuMain@@AEAAPEA_WPEB_W@Z 0000000140013740 f   ConEmu.obj
 0001:00012944       ?LoadConsoleBatch_Task@CConEmuMain@@AEAAPEA_WPEB_WPEAURConStartArgsEx@@@Z 0000000140013944 f   ConEmu.obj
 0001:00012d20       ?LoadIcons@CConEmuMain@@QEAAXXZ 0000000140013d20 f   ConEmu.obj
 0001:00013138       ?LockConhostStart@CConEmuMain@@QEAA_NXZ 0000000140014138 f   ConEmu.obj
 0001:00013190       ?Log@ConEmuMsgLogger@@YAXAEBUtagMSG@@W4Source@1@@Z 0000000140014190 f i ConEmu.obj
 0001:00013208       ?Log@SessionInfo@CConEmuMain@@QEAAX_K_J@Z 0000000140014208 f   ConEmu.obj
 0001:00013270       ?LogFocusInfo@@YAXPEB_WH@Z 0000000140014270 f   ConEmu.obj
 0001:0001339c       ?LogMessage@CConEmuMain@@QEAA_NPEAUHWND__@@I_K_J@Z 000000014001439c f   ConEmu.obj
 0001:000137e4       ?LogPos@ConEmuMsgLogger@@YAXAEBUtagMSG@@W4Source@1@@Z 00000001400147e4 f   ConEmu.obj
 0001:00013988       ?LogString@CConEmuMain@@QEAA_NPEBD_N1@Z 0000000140014988 f   ConEmu.obj
 0001:000139bc       ?LogString@CConEmuMain@@QEAA_NPEB_W_N1@Z 00000001400149bc f   ConEmu.obj
 0001:000139ec       ?LogWindowPos@CConEmuMain@@QEAA_NPEB_WPEAUtagRECT@@@Z 00000001400149ec f   ConEmu.obj
 0001:00013bfc       ?MainWndProc@CConEmuMain@@SA_JPEAUHWND__@@I_K_J@Z 0000000140014bfc f   ConEmu.obj
 0001:00013d30       ?MakeConEmuStartArgs@CConEmuMain@@QEAAPEB_WAEAUCEStr@@PEB_W@Z 0000000140014d30 f   ConEmu.obj
 0001:00013f58       ?MemoryDumpActiveProcess@CConEmuMain@@QEAA_N_N@Z 0000000140014f58 f   ConEmu.obj
 0001:0001402c       ?MoveActiveTab@CConEmuMain@@QEAAXPEAVCVirtualConsole@@_N@Z 000000014001502c f   ConEmu.obj
 0001:00014038       ?OnActivateByMouse@CConEmuMain@@QEAA_JPEAUHWND__@@I_K_J@Z 0000000140015038 f   ConEmu.obj
 0001:00014334       ?OnActivateSplitChanged@CConEmuMain@@QEAAXXZ 0000000140015334 f   ConEmu.obj
 0001:000143d0       ?OnActiveConWndStore@CConEmuMain@@QEAAXPEAUHWND__@@@Z 00000001400153d0 f   ConEmu.obj
 0001:00014440       ?OnAllGhostClosed@CConEmuMain@@QEAAXXZ 0000000140015440 f   ConEmu.obj
 0001:000144e8       ?OnAllVConClosed@CConEmuMain@@QEAAXXZ 00000001400154e8 f   ConEmu.obj
 0001:000145f0       ?OnAlwaysShowScrollbar@CConEmuMain@@QEAAX_N@Z 00000001400155f0 f   ConEmu.obj
 0001:000145f8       ?OnBufferHeight@CConEmuMain@@QEAAXXZ 00000001400155f8 f   ConEmu.obj
 0001:000146ec       ?OnCreate@CConEmuMain@@QEAA_JPEAUHWND__@@PEAUtagCREATESTRUCTW@@@Z 00000001400156ec f   ConEmu.obj
 0001:0001484c       ?OnCreateFinished@CConEmuMain@@QEAAXXZ 000000014001584c f   ConEmu.obj
 0001:000149c0       ?OnDefaultTermChanged@CConEmuMain@@QEAAXXZ 00000001400159c0 f   ConEmu.obj
 0001:000149f8       ?OnDestroy@CConEmuMain@@QEAA_JPEAUHWND__@@@Z 00000001400159f8 f   ConEmu.obj
 0001:00014ac0       ?OnFlashWindow@CConEmuMain@@QEAA_J_K_J@Z 0000000140015ac0 f   ConEmu.obj
 0001:00014aec       ?OnFocus@CConEmuMain@@QEAA_JPEAUHWND__@@I_K_JPEB_W_N@Z 0000000140015aec f   ConEmu.obj
 0001:00015704       ?OnGhostCreated@CConEmuMain@@QEAAXPEAVCVirtualConsole@@PEAUHWND__@@@Z 0000000140016704 f   ConEmu.obj
 0001:000157c4       ?OnGlobalSettingsChanged@CConEmuMain@@QEAAXXZ 00000001400167c4 f   ConEmu.obj
 0001:000157e8       ?OnHookedListChanged@CDefTermBase@@QEAAXXZ 00000001400167e8 f i ConEmu.obj
 0001:00015858       ?OnKeyboard@CConEmuMain@@QEAA_JPEAUHWND__@@I_K_J@Z 0000000140016858 f   ConEmu.obj
 0001:00015f2c       ?OnKeyboardHook@CConEmuMain@@QEAA_JK@Z 0000000140016f2c f   ConEmu.obj
 0001:00015ff4       ?OnKeyboardIme@CConEmuMain@@QEAA_JPEAUHWND__@@I_K_J@Z 0000000140016ff4 f   ConEmu.obj
 0001:0001623c       ?OnLangChange@CConEmuMain@@QEAA_JI_K_J@Z 000000014001723c f   ConEmu.obj
 0001:00016450       ?OnLangChangeConsole@CConEmuMain@@QEAA_JPEAVCVirtualConsole@@K@Z 0000000140017450 f   ConEmu.obj
 0001:00016a7c       ?OnMainCreateFinished@CConEmuMain@@IEAAXXZ 0000000140017a7c f   ConEmu.obj
 0001:00016d04       ?OnMouse@CConEmuMain@@QEAA_JPEAUHWND__@@I_K_J@Z 0000000140017d04 f   ConEmu.obj
 0001:00017cf0       ?OnMouse_LBtnDblClk@CConEmuMain@@QEAA_JPEAVCVirtualConsole@@PEAUHWND__@@AEAI_K_JUtagPOINT@@U_COORD@@@Z 0000000140018cf0 f   ConEmu.obj
 0001:00017e74       ?OnMouse_LBtnDown@CConEmuMain@@QEAA_JPEAVCVirtualConsole@@PEAUHWND__@@I_K_JUtagPOINT@@U_COORD@@@Z 0000000140018e74 f   ConEmu.obj
 0001:00018118       ?OnMouse_LBtnUp@CConEmuMain@@QEAA_JPEAVCVirtualConsole@@PEAUHWND__@@I_K_JUtagPOINT@@U_COORD@@@Z 0000000140019118 f   ConEmu.obj
 0001:000181dc       ?OnMouse_Move@CConEmuMain@@QEAA_JPEAVCVirtualConsole@@PEAUHWND__@@I_K_JUtagPOINT@@U_COORD@@@Z 00000001400191dc f   ConEmu.obj
 0001:00018690       ?OnMouse_NCBtnDblClk@CConEmuMain@@QEAAHPEAUHWND__@@AEAI_K_J@Z 0000000140019690 f   ConEmu.obj
 0001:000186e4       ?OnMouse_RBtnDown@CConEmuMain@@QEAA_JPEAVCVirtualConsole@@PEAUHWND__@@I_K_JUtagPOINT@@U_COORD@@@Z 00000001400196e4 f   ConEmu.obj
 0001:000189a0       ?OnMouse_RBtnUp@CConEmuMain@@QEAA_JPEAVCVirtualConsole@@PEAUHWND__@@I_K_JUtagPOINT@@U_COORD@@@Z 00000001400199a0 f   ConEmu.obj
 0001:00019024       ?OnOurDialogClosed@CConEmuMain@@QEAAXXZ 000000014001a024 f   ConEmu.obj
 0001:0001902c       ?OnOurDialogOpened@CConEmuMain@@QEAAXXZ 000000014001a02c f   ConEmu.obj
 0001:00019034       ?OnPanelViewSettingsChanged@CConEmuMain@@QEAAXH@Z 000000014001a034 f   ConEmu.obj
 0001:00019170       ?OnQueryEndSession@CConEmuMain@@QEAA_JPEAUHWND__@@I_K_J@Z 000000014001a170 f   ConEmu.obj
 0001:00019250       ?OnRConStartedSuccess@CConEmuMain@@QEAAXPEAVCRealConsole@@@Z 000000014001a250 f   ConEmu.obj
 0001:00019264       ?OnScClose@CConEmuMain@@QEAA_NXZ 000000014001a264 f   ConEmu.obj
 0001:000192b4       ?OnSessionChanged@CConEmuMain@@QEAA_JPEAUHWND__@@I_K_J@Z 000000014001a2b4 f   ConEmu.obj
 0001:000194ac       ?OnSetCursor@CConEmuMain@@QEAA_J_K_J@Z 000000014001a4ac f   ConEmu.obj
 0001:00019a0c       ?OnShellHook@CConEmuMain@@QEAA_J_K_J@Z 000000014001aa0c f   ConEmu.obj
 0001:00019b38       ?OnSwitchGuiFocus@CConEmuMain@@QEAAXW4SwitchGuiFocusOp@@@Z 000000014001ab38 f   ConEmu.obj
 0001:00019c2c       ?OnTabbarActivated@CConEmuMain@@QEAAX_N0@Z 000000014001ac2c f   ConEmu.obj
 0001:00019ebc       ?OnTaskbarButtonCreated@CConEmuMain@@QEAAXXZ 000000014001aebc f   ConEmu.obj
 0001:00019f60       ?OnTaskbarCreated@CConEmuMain@@QEAAXXZ 000000014001af60 f   ConEmu.obj
 0001:00019fc8       ?OnTaskbarSettingsChanged@CConEmuMain@@QEAAXXZ 000000014001afc8 f   ConEmu.obj
 0001:0001a0ac       ?OnTimer@CConEmuMain@@QEAA_J_K_J@Z 000000014001b0ac f   ConEmu.obj
 0001:0001a1b4       ?OnTimer_ActivateSplit@CConEmuMain@@QEAAXXZ 000000014001b1b4 f   ConEmu.obj
 0001:0001a42c       ?OnTimer_AdmShield@CConEmuMain@@QEAAXXZ 000000014001b42c f   ConEmu.obj
 0001:0001a4e0       ?OnTimer_Background@CConEmuMain@@QEAAXXZ 000000014001b4e0 f   ConEmu.obj
 0001:0001a518       ?OnTimer_ConRedraw@CConEmuMain@@QEAAXPEAVCVirtualConsole@@@Z 000000014001b518 f   ConEmu.obj
 0001:0001a548       ?OnTimer_FrameAppearDisappear@CConEmuMain@@QEAAX_K@Z 000000014001b548 f   ConEmu.obj
 0001:0001a594       ?OnTimer_Main@CConEmuMain@@QEAAXPEAVCVirtualConsole@@@Z 000000014001b594 f   ConEmu.obj
 0001:0001ab14       ?OnTimer_QuakeFocus@CConEmuMain@@QEAAXXZ 000000014001bb14 f   ConEmu.obj
 0001:0001abe0       ?OnTransparent@CConEmuMain@@QEAAXXZ 000000014001bbe0 f   ConEmu.obj
 0001:0001ac14       ?OnTransparent@CConEmuMain@@QEAAX_N0@Z 000000014001bc14 f   ConEmu.obj
 0001:0001ad60       ?OnTransparentSeparate@CConEmuMain@@QEAAX_N@Z 000000014001bd60 f   ConEmu.obj
 0001:0001adb0       ?OnUpdateScrollInfo@CConEmuMain@@QEAA_JH@Z 000000014001bdb0 f   ConEmu.obj
 0001:0001ade0       ?OnVConCreated@CConEmuMain@@QEAAXPEAVCVirtualConsole@@PEBURConStartArgsEx@@@Z 000000014001bde0 f   ConEmu.obj
 0001:0001ae54       ?OnWmHotkey@CConEmuMain@@QEAAX_KK@Z 000000014001be54 f   ConEmu.obj
 0001:0001b014       ?ParseScriptLineOptions@CConEmuMain@@QEAAPEB_WPEB_WPEA_NPEAURConStartArgsEx@@@Z 000000014001c014 f   ConEmu.obj
 0001:0001b3d8       ?PatchMouseEvent@CConEmuMain@@IEAA_NIAEAUtagPOINT@@0_KAEA_N@Z 000000014001c3d8 f   ConEmu.obj
 0001:0001b6f8       ?PostChangeCurPalette@CConEmuMain@@QEAAXPEB_W_N1@Z 000000014001c6f8 f   ConEmu.obj
 0001:0001b74c       ?PostCheckThread@CDefTermBase@@KAKPEAX@Z 000000014001c74c f i ConEmu.obj
 0001:0001b79c       ?PostCreate@CConEmuMain@@QEAAX_N@Z 000000014001c79c f   ConEmu.obj
 0001:0001bc8c       ?PostCreateCon@CConEmuMain@@QEAAXPEAURConStartArgsEx@@@Z 000000014001cc8c f   ConEmu.obj
 0001:0001bccc       ?PostCreateView@CConEmuMain@@QEAAPEAUHWND__@@PEAVCConEmuChild@@@Z 000000014001cccc f   ConEmu.obj
 0001:0001bd18       ?PostDisplayRConError@CConEmuMain@@QEAAXPEAVCRealConsole@@PEA_W@Z 000000014001cd18 f   ConEmu.obj
 0001:0001bd68       ?PostDragCopy@CConEmuMain@@QEAAX_N0@Z 000000014001cd68 f   ConEmu.obj
 0001:0001bde0       ?PostFontSetSize@CConEmuMain@@QEAAXHH@Z 000000014001cde0 f   ConEmu.obj
 0001:0001bdfc       ?PostMacro@CConEmuMain@@QEAAXPEB_W@Z 000000014001cdfc f   ConEmu.obj
 0001:0001be68       ?PostMacroFontSetName@CConEmuMain@@QEAAXPEA_WGGH@Z 000000014001ce68 f   ConEmu.obj
 0001:0001befc       ?PostScClose@CConEmuMain@@QEAAXXZ 000000014001cefc f   ConEmu.obj
 0001:0001bf18       ?PreWndProc@CConEmuMain@@QEAAXI@Z 000000014001cf18 f   ConEmu.obj
 0001:0001bf20       ?RecheckForegroundWindow@CConEmuMain@@IEAA_NPEB_WPEAPEAUHWND__@@PEAU2@@Z 000000014001cf20 f   ConEmu.obj
 0001:0001c2e8       ?RecreateAction@CConEmuMain@@QEAA_NW4RecreateActionParm@@HW4RConBoolArg@@@Z 000000014001d2e8 f   ConEmu.obj
 0001:0001c650       ?RecreateDlg@CConEmuMain@@QEAAHPEAURConStartArgsEx@@_N@Z 000000014001d650 f   ConEmu.obj
 0001:0001c718       ?RefreshWindowStyles@CConEmuMain@@QEAAXXZ 000000014001d718 f   ConEmu.obj
 0001:0001ca6c       ?RegisterGlobalHotKeys@CConEmuMain@@IEAAX_N@Z 000000014001da6c f   ConEmu.obj
 0001:0001cc4c       ?RegisterHooks@CConEmuMain@@QEAAXXZ 000000014001dc4c f   ConEmu.obj
 0001:0001ce60       ?RegisterHotKeys@CConEmuMain@@IEAAXXZ 000000014001de60 f   ConEmu.obj
 0001:0001ceac       ?RegisterMessage@CConEmuMain@@AEAAIPEBDPEB_W@Z 000000014001deac f   ConEmu.obj
 0001:0001cf04       ?RegisterMessages@CConEmuMain@@AEAAXXZ 000000014001df04 f   ConEmu.obj
 0001:0001d2dc       ?RegisterMinRestore@CConEmuMain@@QEAAX_N@Z 000000014001e2dc f   ConEmu.obj
 0001:0001d644       ?RegisterSshAgent@CConEmuMain@@QEAAXK@Z 000000014001e644 f   ConEmu.obj
 0001:0001d774       ?ReleaseConhostDelay@CConEmuMain@@QEAAXXZ 000000014001e774 f   ConEmu.obj
 0001:0001d77c       ?ReportOldCmdVersion@CConEmuMain@@QEAAXKKHKPEAXK@Z 000000014001e77c f   ConEmu.obj
 0001:0001db60       ?RequestPostUpdateTabs@CConEmuMain@@QEAAXXZ 000000014001eb60 f   ConEmu.obj
 0001:0001db98       ?RightClickingPaint@CConEmuMain@@QEAAXPEAUHDC__@@PEAVCVirtualConsole@@@Z 000000014001eb98 f   ConEmu.obj
 0001:0001e010       ?RightClickingProc@CConEmuMain@@KA_JPEAUHWND__@@I_K_J@Z 000000014001f010 f   ConEmu.obj
 0001:0001e088       ?RunSingleInstance@CConEmuMain@@QEAAHPEAUHWND__@@PEB_W@Z 000000014001f088 f   ConEmu.obj
 0001:0001e6b4       ?Set@?$MMap@HPEAV?$MArray@UDlgItem@CDpiForDialog@@@@$0A@@@QEAA_NAEBHAEBQEAV?$MArray@UDlgItem@CDpiForDialog@@@@@Z 000000014001f6b4 f i DpiAware.obj
 0001:0001e6b4       ?Set@?$MMap@IPEBD$0A@@@QEAA_NAEBIAEBQEBD@Z 000000014001f6b4 f i ConEmu.obj
 0001:0001e7fc       ?SetAppID@CConEmuMain@@QEAAXPEB_W@Z 000000014001f7fc f   ConEmu.obj
 0001:0001eaf0       ?SetConfigFile@CConEmuMain@@QEAA_NPEB_W_N1@Z 000000014001faf0 f   ConEmu.obj
 0001:0001ee04       ?SetDragCursor@CConEmuMain@@QEAAXPEAUHICON__@@@Z 000000014001fe04 f   ConEmu.obj
 0001:0001ee28       ?SetForceUseRegistry@CConEmuMain@@QEAAXXZ 000000014001fe28 f   ConEmu.obj
 0001:0001ee30       ?SetKillTimer@CConEmuMain@@QEAA_K_NII@Z 000000014001fe30 f   ConEmu.obj
 0001:0001ee68       ?SetParent@CConEmuMain@@QEAA_NPEAUHWND__@@@Z 000000014001fe68 f   ConEmu.obj
 0001:0001eed8       ?SetPostGuiMacro@CConEmuMain@@QEAAXPEB_W@Z 000000014001fed8 f   ConEmu.obj
 0001:0001eee4       ?SetScClosePending@CConEmuMain@@QEAAX_N@Z 000000014001fee4 f   ConEmu.obj
 0001:0001eeec       ?SetSessionNotification@SessionInfo@CConEmuMain@@QEAAX_N@Z 000000014001feec f   ConEmu.obj
 0001:0001efe4       ?SetSkipMouseEvent@CConEmuMain@@QEAAXIII@Z 000000014001ffe4 f   ConEmu.obj
 0001:0001effc       ?SetSkipOnFocus@CConEmuMain@@QEAA_N_N@Z 000000014001fffc f   ConEmu.obj
 0001:0001f00c       ?SetTaskbarIcon@CConEmuMain@@QEAAXPEAUHICON__@@@Z 000000014002000c f   ConEmu.obj
 0001:0001f0fc       ?SetTitle@CConEmuMain@@QEAAXPEAUHWND__@@PEB_W_N@Z 00000001400200fc f   ConEmu.obj
 0001:0001f2c0       ?SetTitleTemplate@CConEmuMain@@QEAAXPEB_W@Z 00000001400202c0 f   ConEmu.obj
 0001:0001f2e8       ?SetTransparent@CConEmuMain@@QEAA_NPEAUHWND__@@I_NK1@Z 00000001400202e8 f   ConEmu.obj
 0001:0001f5f4       ?SetWindowIcon@CConEmuMain@@QEAAXPEB_W@Z 00000001400205f4 f   ConEmu.obj
 0001:0001f730       ?SetWindowStyle@CConEmuMain@@QEAAXK@Z 0000000140020730 f   ConEmu.obj
 0001:0001f748       ?SetWindowStyle@CConEmuMain@@QEAAXPEAUHWND__@@K@Z 0000000140020748 f   ConEmu.obj
 0001:0001f758       ?SetWindowStyleEx@CConEmuMain@@QEAAXK@Z 0000000140020758 f   ConEmu.obj
 0001:0001f768       ?SetWindowStyleEx@CConEmuMain@@QEAAXPEAUHWND__@@K@Z 0000000140020768 f   ConEmu.obj
 0001:0001f818       ?StartDebugActiveProcess@CConEmuMain@@QEAA_NXZ 0000000140020818 f   ConEmu.obj
 0001:0001f8d8       ?StartDebugLogConsole@CConEmuMain@@QEAA_NXZ 00000001400208d8 f   ConEmu.obj
 0001:0001fa6c       ?StartDefTermHooker@CDefTermBase@@AEAAHKAEAPEAXAEAKPEB_W1@Z 0000000140020a6c f i ConEmu.obj
 0001:0001fdec       ?StartRightClickingPaint@CConEmuMain@@IEAAXXZ 0000000140020dec f   ConEmu.obj
 0001:0001fe38       ?StopRightClickingPaint@CConEmuMain@@IEAAXXZ 0000000140020e38 f   ConEmu.obj
 0001:0001fe90       ?StoreLayoutName@CConEmuMain@@IEAAXHKPEAUHKL__@@@Z 0000000140020e90 f   ConEmu.obj
 0001:0001ffd0       ?StoreWorkDir@CConEmuMain@@QEAAXPEB_W@Z 0000000140020fd0 f   ConEmu.obj
 0001:000201e8       ?StringCchVPrintfA@@YAJPEAD_KPEBD0@Z 00000001400211e8 f i ConEmu.obj
 0001:00020290       ?SwitchKeyboardLayout@CConEmuMain@@QEAAX_K@Z 0000000140021290 f   ConEmu.obj
 0001:00020478       ?SyncExecMacro@CConEmuMain@@QEAA_J_K_J@Z 0000000140021478 f   ConEmu.obj
 0001:00020494       ?SyncNtvdm@CConEmuMain@@QEAAXXZ 0000000140021494 f   ConEmu.obj
 0001:000204a8       ?TerminateSshAgents@CConEmuMain@@IEAAXXZ 00000001400214a8 f   ConEmu.obj
 0001:0002064c       ?TrackMouse@CConEmuMain@@QEAAHXZ 000000014002164c f   ConEmu.obj
 0001:000206a0       ?UnRegisterHooks@CConEmuMain@@QEAAX_N@Z 00000001400216a0 f   ConEmu.obj
 0001:00020720       ?UnRegisterHotKeys@CConEmuMain@@IEAAX_N@Z 0000000140021720 f   ConEmu.obj
 0001:0002074c       ?UnlockConhostStart@CConEmuMain@@QEAAXXZ 000000014002174c f   ConEmu.obj
 0001:00020770       ?Update@CConEmuMain@@QEAAX_N@Z 0000000140021770 f   ConEmu.obj
 0001:00020778       ?UpdateActiveGhost@CConEmuMain@@QEAAXPEAVCVirtualConsole@@@Z 0000000140021778 f   ConEmu.obj
 0001:000207ec       ?UpdateCaretPos@CConEmuMain@@QEAAXAEAVCVirtualConsole@@AEBUtagRECT@@@Z 00000001400217ec f   ConEmu.obj
 0001:0002085c       ?UpdateCursorInfo@CConEmuMain@@QEAAXPEBUConsoleInfoArg@@@Z 000000014002185c f   ConEmu.obj
 0001:0002092c       ?UpdateGuiInfoMapping@CConEmuMain@@AEAAXXZ 000000014002192c f   ConEmu.obj
 0001:00020ea8       ?UpdateGuiInfoMappingActive@CConEmuMain@@AEAAX_N0@Z 0000000140021ea8 f   ConEmu.obj
 0001:00021010       ?UpdateImeComposition@CConEmuMain@@IEAAXXZ 0000000140022010 f   ConEmu.obj
 0001:000211ac       ?UpdateProcessDisplay@CConEmuMain@@QEAAX_N@Z 00000001400221ac f   ConEmu.obj
 0001:000214d0       ?UpdateProgress@CConEmuMain@@QEAAXXZ 00000001400224d0 f   ConEmu.obj
 0001:00021814       ?UpdateSizes@CConEmuMain@@QEAAXXZ 0000000140022814 f   ConEmu.obj
 0001:00021a14       ?UpdateTitle@CConEmuMain@@QEAAXXZ 0000000140022a14 f   ConEmu.obj
 0001:00021b54       ?UpdateWinHookSettings@CConEmuMain@@QEAAXXZ 0000000140022b54 f   ConEmu.obj
 0001:00021bb8       ?UpdateWindowChild@CConEmuMain@@QEAAXPEAVCVirtualConsole@@@Z 0000000140022bb8 f   ConEmu.obj
 0001:00021bc0       ?WndProc@CConEmuMain@@QEAA_JPEAUHWND__@@I_K_J@Z 0000000140022bc0 f   ConEmu.obj
 0001:0002302c       ?WorkDir@CConEmuMain@@QEAAPEB_WPEB_W@Z 000000014002402c f   ConEmu.obj
 0001:0002305c       ?WorkWndProc@CConEmuMain@@SA_JPEAUHWND__@@I_K_J@Z 000000014002405c f   ConEmu.obj
 0001:000231f8       ?isCloseConfirmed@CConEmuMain@@QEAA_NXZ 00000001400241f8 f   ConEmu.obj
 0001:0002322c       ?isDestroyOnClose@CConEmuMain@@QEAA_N_N@Z 000000014002422c f   ConEmu.obj
 0001:000233a8       ?isDialogMessage@CConEmuMain@@QEAAHAEAUtagMSG@@@Z 00000001400243a8 f   ConEmu.obj
 0001:0002346c       ?isDragging@CConEmuMain@@QEAA_NXZ 000000014002446c f   ConEmu.obj
 0001:000234a4       ?isFirstInstance@CConEmuMain@@QEAA_N_N@Z 00000001400244a4 f   ConEmu.obj
 0001:0002364c       ?isInImeComposition@CConEmuMain@@QEAA_NXZ 000000014002464c f   ConEmu.obj
 0001:00023654       ?isInputGrouped@CConEmuMain@@QEBA_NXZ 0000000140024654 f   ConEmu.obj
 0001:0002365c       ?isInside@CConEmuMain@@QEAA_NXZ 000000014002465c f   ConEmu.obj
 0001:00023678       ?isInsideInvalid@CConEmuMain@@QEAA_NXZ 0000000140024678 f   ConEmu.obj
 0001:000236b4       ?isMSysStartup@CConEmuMain@@QEAA_NXZ 00000001400246b4 f   ConEmu.obj
 0001:000236c0       ?isMeForeground@CConEmuMain@@QEAA_N_N0PEAPEAUHWND__@@@Z 00000001400246c0 f   ConEmu.obj
 0001:00023708       ?isMenuActive@CConEmuMain@@QEAA_NXZ 0000000140024708 f   ConEmu.obj
 0001:00023724       ?isMingwMode@CConEmuMain@@QEAA_NXZ 0000000140024724 f   ConEmu.obj
 0001:00023730       ?isMouseOverFrame@CConEmuMain@@QEAA_N_N@Z 0000000140024730 f   ConEmu.obj
 0001:000238ac       ?isNtvdm@CConEmuMain@@QEAA_NH@Z 00000001400248ac f   ConEmu.obj
 0001:000238b4       ?isOurConsoleWindow@CConEmuMain@@QEAA_NPEAUHWND__@@@Z 00000001400248b4 f   ConEmu.obj
 0001:000238bc       ?isPictureView@CConEmuMain@@QEAA_NXZ 00000001400248bc f   ConEmu.obj
 0001:000238c4       ?isProcessCreated@CConEmuMain@@QEAA_NXZ 00000001400248c4 f   ConEmu.obj
 0001:000238cc       ?isRightClickingPaint@CConEmuMain@@QEAA_NXZ 00000001400248cc f   ConEmu.obj
 0001:000238d4       ?isSelectionModifierPressed@CConEmuMain@@QEAAK_N@Z 00000001400248d4 f   ConEmu.obj
 0001:000239cc       ?isSkipNcMessage@CConEmuMain@@QEAA_NAEBUtagMSG@@@Z 00000001400249cc f   ConEmu.obj
 0001:00023a78       ?isTabsShown@CConEmuMain@@QEBA_NXZ 0000000140024a78 f   ConEmu.obj
 0001:00023ab0       ?isUpdateAllowed@CConEmuMain@@QEAA_NXZ 0000000140024ab0 f   ConEmu.obj
 0001:00023abc       ?isVConExists@CConEmuMain@@QEAA_NH@Z 0000000140024abc f   ConEmu.obj
 0001:00023ac4       ?isVConValid@CConEmuMain@@QEAAHPEAVCVirtualConsole@@@Z 0000000140024ac4 f   ConEmu.obj
 0001:00023ae0       ?isValid@CConEmuMain@@QEAA_NPEAVCRealConsole@@@Z 0000000140024ae0 f   ConEmu.obj
 0001:00023ae8       ?isValid@CConEmuMain@@QEAA_NPEAVCVirtualConsole@@@Z 0000000140024ae8 f   ConEmu.obj
 0001:00023af0       ?setFocus@CConEmuMain@@QEAAXXZ 0000000140024af0 f   ConEmu.obj
 0001:00023c30       ??$SafeDelete@VCConEmuMain@@@@YAXAEAPEAVCConEmuMain@@@Z 0000000140024c30 f i ConEmuApp.obj
 0001:00023c68       ??$SafeDelete@VCConEmuUpdate@@@@YAXAEAPEAVCConEmuUpdate@@@Z 0000000140024c68 f i ConEmuApp.obj
 0001:00023cb0       ??$SafeDelete@VCFontMgr@@@@YAXAEAPEAVCFontMgr@@@Z 0000000140024cb0 f i ConEmuApp.obj
 0001:00023cf8       ??$SafeDelete@VCLngRc@@@@YAXAEAPEAVCLngRc@@@Z 0000000140024cf8 f i ConEmuApp.obj
 0001:00023d40       ??$SafeDelete@VConEmuHotKeyList@@@@YAXAEAPEAVConEmuHotKeyList@@@Z 0000000140024d40 f i ConEmuApp.obj
 0001:00023da8       ??$swprintf_c@$0BAA@@@YAHAEAY0BAA@_WPEB_WZZ 0000000140024da8 f i ConEmuApp.obj
 0001:00023dd4       ??$ultow_s@$0BA@@@YAPEB_WIAEAY0BA@_WH@Z 0000000140024dd4 f i ConEmuApp.obj
 0001:00023e00       ??0DontEnable@@QEAA@_N@Z   0000000140024e00 f   ConEmuApp.obj
 0001:00023e48       ??1DontEnable@@QEAA@XZ     0000000140024e48 f   ConEmuApp.obj
 0001:00023e60       ?AppWndProc@@YA_JPEAUHWND__@@I_K_J@Z 0000000140024e60 f   ConEmuApp.obj
 0001:00023f4c       ?AssertBox@@YAXPEB_W0IPEAU_EXCEPTION_POINTERS@@@Z 0000000140024f4c f   ConEmuApp.obj
 0001:0002445c       ?CenterInParent@@YA?AUtagRECT@@U1@PEAUHWND__@@@Z 000000014002545c f   ConEmuApp.obj
 0001:00024588       ?CheckCreateAppWindow@@YAHXZ 0000000140025588 f   ConEmuApp.obj
 0001:00024788       ?CheckForDebugArgs@@YAHPEB_W@Z 0000000140025788 f   ConEmuApp.obj
 0001:00024974       ?CheckZoneIdentifiers@@YAH_N@Z 0000000140025974 f   ConEmuApp.obj
 0001:00024e00       ?Create@LoadStartupEnvEx@@SAPEAUCEStartupEnv@@XZ 0000000140025e00 f i ConEmuApp.obj
 0001:0002504c       ?CreateDumpForReport@@YAKPEAU_EXCEPTION_POINTERS@@AEAY0EAA@_WAEAY0BEE@_WPEA_W@Z 000000014002604c f   ConEmuApp.obj
 0001:00025534       ?CreateDumpOnException@@YAJPEAU_EXCEPTION_POINTERS@@@Z 0000000140026534 f   ConEmuApp.obj
 0001:000256a0       ?CreateNullIcon@@YAPEAUHICON__@@XZ 00000001400266a0 f   ConEmuApp.obj
 0001:00025734       ?DisplayLastError@@YAHPEB_WKK0PEAUHWND__@@@Z 0000000140026734 f   ConEmuApp.obj
 0001:000258ac       ?DupCygwinPath@@YAPEB_WPEB_W_N0AEAUCEStr@@@Z 00000001400268ac f   ConEmuApp.obj
 0001:00025adc       ?EscapeChar@@YAX_NAEAPEB_WAEAPEA_W@Z 0000000140026adc f   ConEmuApp.obj
 0001:00025af4       ?FindProcessWindow@@YAPEAUHWND__@@K@Z 0000000140026af4 f   ConEmuApp.obj
 0001:00025b74       ?FindTopExplorerWindow@@YAPEAUHWND__@@XZ 0000000140026b74 f   ConEmuApp.obj
 0001:00025c20       ?FixDirEndSlash@@YA_NPEA_W@Z 0000000140026c20 f   ConEmuApp.obj
 0001:00025c7c       ?GetColorRef@@YA_NPEB_WPEAK@Z 0000000140026c7c f   ConEmuApp.obj
 0001:00025ec8       ?GetDlgItemSigned@@YA_NPEAUHWND__@@GAEAHHH@Z 0000000140026ec8 f   ConEmuApp.obj
 0001:00025f24       ?GetDlgItemTextPtr@@YAPEA_WPEAUHWND__@@G@Z 0000000140026f24 f   ConEmuApp.obj
 0001:00025f4c       ?GetWindowModeName@@YAPEB_WW4ConEmuWindowMode@@@Z 0000000140026f4c f   ConEmuApp.obj
 0001:00025fa0       ?Init@?$MMap@PEAUHWND__@@PEAVCVirtualConsole@@$0A@@@QEAA_N_K_N@Z 0000000140026fa0 f i ConEmuApp.obj
 0001:00025fa0       ?Init@?$MMap@PEAUHWND__@@PEAVCDynDialog@@$0A@@@QEAA_N_K_N@Z 0000000140026fa0 f i DynDialog.obj
 0001:00025fa0       ?Init@?$MMap@HUCEIconDrawHandles@@$0A@@@QEAA_N_K_N@Z 0000000140026fa0 f i SearchCtrl.obj
 0001:00025fa0       ?Init@?$MMap@PEAVCVConGroup@@PEAVCVirtualConsole@@$0A@@@QEAA_N_K_N@Z 0000000140026fa0 f i TabBar.obj
 0001:00026018       ?IntFromString@@YA_NAEAHPEB_WHPEAPEB_W@Z 0000000140027018 f   ConEmuApp.obj
 0001:000260c4       ?Load@LoadStartupEnv@@KA_N_KAEAPEAUCEStartupEnv@@AEAPEAE@Z 00000001400270c4 f i ConEmuApp.obj
 0001:000266fc       ?LoadAutoruns@LoadStartupEnvEx@@KAPEA_WXZ 00000001400276fc f i ConEmuApp.obj
 0001:000267f8       ?LoadAutorunsKey@LoadStartupEnvEx@@KAXAEAPEAUHKEY__@@AEAPEA_WPEB_W@Z 00000001400277f8 f i ConEmuApp.obj
 0001:000268f0       ?LoadFonts@LoadStartupEnvEx@@KAPEA_WXZ 00000001400278f0 f i ConEmuApp.obj
 0001:00026b08       ?LoadStartupEnv_FillMonitors@LoadStartupEnvEx@@KAHPEAUHMONITOR__@@PEAUHDC__@@PEAUtagRECT@@_J@Z 0000000140027b08 f i ConEmuApp.obj
 0001:00026c70       ?LogString@@YA_NPEB_W_N1@Z 0000000140027c70 f   ConEmuApp.obj
 0001:00026c88       ?MakeStraightSlashPath@@YAPEA_WPEB_W@Z 0000000140027c88 f   ConEmuApp.obj
 0001:00026cc4       ?MakeWinPath@@YAPEB_WPEB_W0AEAUCEStr@@@Z 0000000140027cc4 f   ConEmuApp.obj
 0001:00026e60       ?MessageLoop@@YAXXZ        0000000140027e60 f   ConEmuApp.obj
 0001:00026eb0       ?MoveWindowRect@@YAHPEAUHWND__@@AEBUtagRECT@@H@Z 0000000140027eb0 f   ConEmuApp.obj
 0001:00026f3c       ?MsgBox@@YAHPEB_WI0PEAUHWND__@@_N@Z 0000000140027f3c f   ConEmuApp.obj
 0001:000270c0       ?MyGetDlgItemText@@YA_KPEAUHWND__@@GAEA_KAEAPEA_W@Z 00000001400280c0 f   ConEmuApp.obj
 0001:00027180       ?MySetDlgItemText@@YAHPEAUHWND__@@HPEB_W@Z 0000000140028180 f   ConEmuApp.obj
 0001:00027188       ?PatchMsgBoxIcon@@YAXPEAUHWND__@@I_K_J@Z 0000000140028188 f   ConEmuApp.obj
 0001:0002727c       ?ProcessCmdArg@@YAHPEB_W_N1AEAUCEStr@@AEA_N@Z 000000014002827c f   ConEmuApp.obj
 0001:00027488       ?ProcessMessage@@YA_NAEAUtagMSG@@@Z 0000000140028488 f   ConEmuApp.obj
 0001:00027614       ?PtMouseDblClickTest@@YA_NAEBUtagMSG@@U1@@Z 0000000140028614 f   ConEmuApp.obj
 0001:00027750       ?RaiseTestException@@YAXXZ 0000000140028750 f   ConEmuApp.obj
 0001:00027758       ?ResetEnvironmentVariables@@YAXXZ 0000000140028758 f   ConEmuApp.obj
 0001:00027780       ?SelectFile@@YAPEA_WPEB_W00PEAUHWND__@@0KPEAVCRealConsole@@@Z 0000000140028780 f   ConEmuApp.obj
 0001:00027998       ?SelectFolder@@YAPEA_WPEB_W0PEAUHWND__@@KPEAVCRealConsole@@@Z 0000000140028998 f   ConEmuApp.obj
 0001:00027ba0       ?ShutdownGuiStep@@YAXPEB_WHHHH@Z 0000000140028ba0 f   ConEmuApp.obj
 0001:00027c80       ?SkipOneShowWindow@@YAXXZ  0000000140028c80 f   ConEmuApp.obj
 0001:00027ed4       ?SkipShowWindowProc@@YA_JPEAUHWND__@@I_K_J@Z 0000000140028ed4 f   ConEmuApp.obj
 0001:00027f70       ?StripLines@@YAXPEA_WPEB_W@Z 0000000140028f70 f   ConEmuApp.obj
 0001:0002807c       ?StripWords@@YAXPEA_WPEB_W@Z 000000014002907c f   ConEmuApp.obj
 0001:000281c0       ?UpdateAppUserModelID@@YAJXZ 00000001400291c0 f   ConEmuApp.obj
 0001:00028598       ?UpdateWin7TaskList@@YA_N_N0@Z 0000000140029598 f   ConEmuApp.obj
 0001:00028c60       ?WarnCreateWindowFail@@YAXPEB_WPEAUHWND__@@K@Z 0000000140029c60 f   ConEmuApp.obj
 0001:00028e50       ?_CreateSeparatorLink@@YAJPEAPEAUIShellLinkW@@@Z 0000000140029e50 f   ConEmuApp.obj
 0001:00029604       ?getFocusedExplorerWindowPath@@YAPEA_WXZ 000000014002a604 f   ConEmuApp.obj
 0001:000298e8       ?getForegroundWindow@@YAPEAUHWND__@@XZ 000000014002a8e8 f   ConEmuApp.obj
 0001:0002993c       ?isDontEnable@DontEnable@@SA_NXZ 000000014002a93c f   ConEmuApp.obj
 0001:00029948       ?isKey@@YA_NKK@Z           000000014002a948 f   ConEmuApp.obj
 0001:0002998c       ?isMainThread@@YA_NXZ      000000014002a98c f   ConEmuApp.obj
 0001:000299a4       WinMain                    000000014002a9a4 f   ConEmuApp.obj
 0001:0002aa68       ??0CConEmuCtrl@@QEAA@XZ    000000014002ba68 f   ConEmuCtrl.obj
 0001:0002aaa0       ??1CConEmuCtrl@@UEAA@XZ    000000014002baa0 f   ConEmuCtrl.obj
 0001:0002aaac       ??_ECConEmuCtrl@@UEAAPEAXI@Z 000000014002baac f i ConEmuCtrl.obj
 0001:0002aaac       ??_GCConEmuCtrl@@UEAAPEAXI@Z 000000014002baac f i ConEmuCtrl.obj
 0001:0002aad8       ?ChooseTabFromMenu@CConEmuCtrl@@SAXHUtagPOINT@@K@Z 000000014002bad8 f   ConEmuCtrl.obj
 0001:0002ac48       ?ChordFromVk@CConEmuCtrl@@QEAA?AUConEmuChord@@K@Z 000000014002bc48 f   ConEmuCtrl.obj
 0001:0002acb8       ?DoEndFindText@CConEmuCtrl@@SAXPEAVCRealConsole@@@Z 000000014002bcb8 f   ConEmuCtrl.obj
 0001:0002ad1c       ?DoFindText@CConEmuCtrl@@SAXHPEAVCRealConsole@@@Z 000000014002bd1c f   ConEmuCtrl.obj
 0001:0002ad8c       ?FixSingleModifier@CConEmuCtrl@@QEAAXKPEAVCRealConsole@@@Z 000000014002bd8c f   ConEmuCtrl.obj
 0001:0002adf0       ?GetControlKeyState@CConEmuCtrl@@QEAAK_J@Z 000000014002bdf0 f   ConEmuCtrl.obj
 0001:0002ae00       ?GetOpenedPanels@CConEmuCtrl@@SA_KAEAPEA_WAEAH1@Z 000000014002be00 f   ConEmuCtrl.obj
 0001:0002b010       ?GetOpenedTabs@CConEmuCtrl@@SA_KAEAPEAUTabInfo@CESERVER_REQ_GETALLTABS@@@Z 000000014002c010 f   ConEmuCtrl.obj
 0001:0002b2d8       ?MakeScreenshot@CConEmuCtrl@@SAX_N@Z 000000014002c2d8 f   ConEmuCtrl.obj
 0001:0002b4e4       ?ProcessHotKey@CConEmuCtrl@@QEAAPEBUConEmuHotKey@@AEBUConEmuChord@@_NPEB_WPEAVCRealConsole@@@Z 000000014002c4e4 f   ConEmuCtrl.obj
 0001:0002b6c4       ?ProcessHotKeyMsg@CConEmuCtrl@@QEAA_NI_K_JPEB_WPEAVCRealConsole@@@Z 000000014002c6c4 f   ConEmuCtrl.obj
 0001:0002ba04       ?SkipOneAppsRelease@CConEmuCtrl@@QEAAX_N@Z 000000014002ca04 f   ConEmuCtrl.obj
 0001:0002ba8c       ?SkipOneAppsReleaseHook@CConEmuCtrl@@CA_JH_K_J@Z 000000014002ca8c f   ConEmuCtrl.obj
 0001:0002bac8       ?StatusCommand@CConEmuCtrl@@SAXW4ConEmuStatusCommand@@HPEB_WPEAVCRealConsole@@@Z 000000014002cac8 f   ConEmuCtrl.obj
 0001:0002bbec       ?TabCommand@CConEmuCtrl@@SAXW4ConEmuTabCommand@@@Z 000000014002cbec f   ConEmuCtrl.obj
 0001:0002bcc8       ?UpdateControlKeyState@CConEmuCtrl@@QEAAXXZ 000000014002ccc8 f   ConEmuCtrl.obj
 0001:0002bdec       ?key_AlternativeBuffer@CConEmuCtrl@@SA_NAEBUConEmuChord@@_NPEBUConEmuHotKey@@PEAVCRealConsole@@@Z 000000014002cdec f   ConEmuCtrl.obj
 0001:0002be08       ?key_AlwaysOnTop@CConEmuCtrl@@SA_NAEBUConEmuChord@@_NPEBUConEmuHotKey@@PEAVCRealConsole@@@Z 000000014002ce08 f   ConEmuCtrl.obj
 0001:0002be40       ?key_BufferScroll@CConEmuCtrl@@SA_N_NEPEAVCRealConsole@@@Z 000000014002ce40 f   ConEmuCtrl.obj
 0001:0002bee4       ?key_BufferScrollDown@CConEmuCtrl@@SA_NAEBUConEmuChord@@_NPEBUConEmuHotKey@@PEAVCRealConsole@@@Z 000000014002cee4 f   ConEmuCtrl.obj
 0001:0002befc       ?key_BufferScrollPgDn@CConEmuCtrl@@SA_NAEBUConEmuChord@@_NPEBUConEmuHotKey@@PEAVCRealConsole@@@Z 000000014002cefc f   ConEmuCtrl.obj
 0001:0002bf14       ?key_BufferScrollPgUp@CConEmuCtrl@@SA_NAEBUConEmuChord@@_NPEBUConEmuHotKey@@PEAVCRealConsole@@@Z 000000014002cf14 f   ConEmuCtrl.obj
 0001:0002bf2c       ?key_BufferScrollUp@CConEmuCtrl@@SA_NAEBUConEmuChord@@_NPEBUConEmuHotKey@@PEAVCRealConsole@@@Z 000000014002cf2c f   ConEmuCtrl.obj
 0001:0002bf44       ?key_CTSVkBlockStart@CConEmuCtrl@@SA_NAEBUConEmuChord@@_NPEBUConEmuHotKey@@PEAVCRealConsole@@@Z 000000014002cf44 f   ConEmuCtrl.obj
 0001:0002bf78       ?key_CTSVkTextStart@CConEmuCtrl@@SA_NAEBUConEmuChord@@_NPEBUConEmuHotKey@@PEAVCRealConsole@@@Z 000000014002cf78 f   ConEmuCtrl.obj
 0001:0002bfac       ?key_ChildSystemMenu@CConEmuCtrl@@SA_NAEBUConEmuChord@@_NPEBUConEmuHotKey@@PEAVCRealConsole@@@Z 000000014002cfac f   ConEmuCtrl.obj
 0001:0002c004       ?key_ConsoleNum@CConEmuCtrl@@SA_NAEBUConEmuChord@@_NPEBUConEmuHotKey@@PEAVCRealConsole@@@Z 000000014002d004 f   ConEmuCtrl.obj
 0001:0002c0c4       ?key_CtrlShiftTab@CConEmuCtrl@@SA_NAEBUConEmuChord@@_NPEBUConEmuHotKey@@PEAVCRealConsole@@@Z 000000014002d0c4 f   ConEmuCtrl.obj
 0001:0002c0c4       ?key_CtrlTab@CConEmuCtrl@@SA_NAEBUConEmuChord@@_NPEBUConEmuHotKey@@PEAVCRealConsole@@@Z 000000014002d0c4 f   ConEmuCtrl.obj
 0001:0002c130       ?key_CtrlTab_Next@CConEmuCtrl@@SA_NAEBUConEmuChord@@_NPEBUConEmuHotKey@@PEAVCRealConsole@@@Z 000000014002d130 f   ConEmuCtrl.obj
 0001:0002c130       ?key_CtrlTab_Prev@CConEmuCtrl@@SA_NAEBUConEmuChord@@_NPEBUConEmuHotKey@@PEAVCRealConsole@@@Z 000000014002d130 f   ConEmuCtrl.obj
 0001:0002c1a0       ?key_DeleteWordToLeft@CConEmuCtrl@@SA_NAEBUConEmuChord@@_NPEBUConEmuHotKey@@PEAVCRealConsole@@@Z 000000014002d1a0 f   ConEmuCtrl.obj
 0001:0002c1ec       ?key_DuplicateRoot@CConEmuCtrl@@SA_NAEBUConEmuChord@@_NPEBUConEmuHotKey@@PEAVCRealConsole@@@Z 000000014002d1ec f   ConEmuCtrl.obj
 0001:0002c220       ?key_FindTextDlg@CConEmuCtrl@@SA_NAEBUConEmuChord@@_NPEBUConEmuHotKey@@PEAVCRealConsole@@@Z 000000014002d220 f   ConEmuCtrl.obj
 0001:0002c27c       ?key_ForcedFullScreen@CConEmuCtrl@@SA_NAEBUConEmuChord@@_NPEBUConEmuHotKey@@PEAVCRealConsole@@@Z 000000014002d27c f   ConEmuCtrl.obj
 0001:0002c2a0       ?key_GlobalRestore@CConEmuCtrl@@SA_NAEBUConEmuChord@@_NPEBUConEmuHotKey@@PEAVCRealConsole@@@Z 000000014002d2a0 f   ConEmuCtrl.obj
 0001:0002c2c8       ?key_GuiMacro@CConEmuCtrl@@SA_NAEBUConEmuChord@@_NPEBUConEmuHotKey@@PEAVCRealConsole@@@Z 000000014002d2c8 f   ConEmuCtrl.obj
 0001:0002c338       ?key_MinimizeByEsc@CConEmuCtrl@@SA_NAEBUConEmuChord@@_NPEBUConEmuHotKey@@PEAVCRealConsole@@@Z 000000014002d338 f   ConEmuCtrl.obj
 0001:0002c3ac       ?key_MinimizeRestore@CConEmuCtrl@@SA_NAEBUConEmuChord@@_NPEBUConEmuHotKey@@PEAVCRealConsole@@@Z 000000014002d3ac f   ConEmuCtrl.obj
 0001:0002c3d0       ?key_MoveTabLeft@CConEmuCtrl@@SA_NAEBUConEmuChord@@_NPEBUConEmuHotKey@@PEAVCRealConsole@@@Z 000000014002d3d0 f   ConEmuCtrl.obj
 0001:0002c400       ?key_MoveTabRight@CConEmuCtrl@@SA_NAEBUConEmuChord@@_NPEBUConEmuHotKey@@PEAVCRealConsole@@@Z 000000014002d400 f   ConEmuCtrl.obj
 0001:0002c430       ?key_MultiBuffer@CConEmuCtrl@@SA_NAEBUConEmuChord@@_NPEBUConEmuHotKey@@PEAVCRealConsole@@@Z 000000014002d430 f   ConEmuCtrl.obj
 0001:0002c44c       ?key_MultiCmd@CConEmuCtrl@@SA_NAEBUConEmuChord@@_NPEBUConEmuHotKey@@PEAVCRealConsole@@@Z 000000014002d44c f   ConEmuCtrl.obj
 0001:0002c4e8       ?key_MultiNewAttach@CConEmuCtrl@@SA_NAEBUConEmuChord@@_NPEBUConEmuHotKey@@PEAVCRealConsole@@@Z 000000014002d4e8 f   ConEmuCtrl.obj
 0001:0002c520       ?key_MultiNewPopupMenu2@CConEmuCtrl@@SA_NAEBUConEmuChord@@_NPEBUConEmuHotKey@@PEAVCRealConsole@@@Z 000000014002d520 f   ConEmuCtrl.obj
 0001:0002c54c       ?key_MultiNewPopupMenu@CConEmuCtrl@@SA_NAEBUConEmuChord@@_NPEBUConEmuHotKey@@PEAVCRealConsole@@@Z 000000014002d54c f   ConEmuCtrl.obj
 0001:0002c578       ?key_MultiNext@CConEmuCtrl@@SA_NAEBUConEmuChord@@_NPEBUConEmuHotKey@@PEAVCRealConsole@@@Z 000000014002d578 f   ConEmuCtrl.obj
 0001:0002c598       ?key_MultiPrev@CConEmuCtrl@@SA_NAEBUConEmuChord@@_NPEBUConEmuHotKey@@PEAVCRealConsole@@@Z 000000014002d598 f   ConEmuCtrl.obj
 0001:0002c5b8       ?key_MultiRecreate@CConEmuCtrl@@SA_NAEBUConEmuChord@@_NPEBUConEmuHotKey@@PEAVCRealConsole@@@Z 000000014002d5b8 f   ConEmuCtrl.obj
 0001:0002c5e0       ?key_PasteFirstLine@CConEmuCtrl@@SA_NAEBUConEmuChord@@_NPEBUConEmuHotKey@@PEAVCRealConsole@@@Z 000000014002d5e0 f   ConEmuCtrl.obj
 0001:0002c640       ?key_PasteFirstLineAllApp@CConEmuCtrl@@SA_NAEBUConEmuChord@@_NPEBUConEmuHotKey@@PEAVCRealConsole@@@Z 000000014002d640 f   ConEmuCtrl.obj
 0001:0002c6f4       ?key_PasteText@CConEmuCtrl@@SA_NAEBUConEmuChord@@_NPEBUConEmuHotKey@@PEAVCRealConsole@@@Z 000000014002d6f4 f   ConEmuCtrl.obj
 0001:0002c754       ?key_PasteTextAllApp@CConEmuCtrl@@SA_NAEBUConEmuChord@@_NPEBUConEmuHotKey@@PEAVCRealConsole@@@Z 000000014002d754 f   ConEmuCtrl.obj
 0001:0002c7f8       ?key_RenameTab@CConEmuCtrl@@SA_NAEBUConEmuChord@@_NPEBUConEmuHotKey@@PEAVCRealConsole@@@Z 000000014002d7f8 f   ConEmuCtrl.obj
 0001:0002c814       ?key_RunTask@CConEmuCtrl@@SA_NAEBUConEmuChord@@_NPEBUConEmuHotKey@@PEAVCRealConsole@@@Z 000000014002d814 f   ConEmuCtrl.obj
 0001:0002c8b8       ?key_Screenshot@CConEmuCtrl@@SA_NAEBUConEmuChord@@_NPEBUConEmuHotKey@@PEAVCRealConsole@@@Z 000000014002d8b8 f   ConEmuCtrl.obj
 0001:0002c8d0       ?key_ScreenshotFull@CConEmuCtrl@@SA_NAEBUConEmuChord@@_NPEBUConEmuHotKey@@PEAVCRealConsole@@@Z 000000014002d8d0 f   ConEmuCtrl.obj
 0001:0002c8e8       ?key_ShowCaption@CConEmuCtrl@@SA_NAEBUConEmuChord@@_NPEBUConEmuHotKey@@PEAVCRealConsole@@@Z 000000014002d8e8 f   ConEmuCtrl.obj
 0001:0002c970       ?key_ShowRealConsole@CConEmuCtrl@@SA_NAEBUConEmuChord@@_NPEBUConEmuHotKey@@PEAVCRealConsole@@@Z 000000014002d970 f   ConEmuCtrl.obj
 0001:0002c990       ?key_ShowStatusBar@CConEmuCtrl@@SA_NAEBUConEmuChord@@_NPEBUConEmuHotKey@@PEAVCRealConsole@@@Z 000000014002d990 f   ConEmuCtrl.obj
 0001:0002c9b0       ?key_ShowTabBar@CConEmuCtrl@@SA_NAEBUConEmuChord@@_NPEBUConEmuHotKey@@PEAVCRealConsole@@@Z 000000014002d9b0 f   ConEmuCtrl.obj
 0001:0002c9c8       ?key_ShowTabsList@CConEmuCtrl@@SA_NAEBUConEmuChord@@_NPEBUConEmuHotKey@@PEAVCRealConsole@@@Z 000000014002d9c8 f   ConEmuCtrl.obj
 0001:0002caa8       ?key_SwitchGuiFocus@CConEmuCtrl@@SA_NAEBUConEmuChord@@_NPEBUConEmuHotKey@@PEAVCRealConsole@@@Z 000000014002daa8 f   ConEmuCtrl.obj
 0001:0002caf4       ?key_SystemMenu@CConEmuCtrl@@SA_NAEBUConEmuChord@@_NPEBUConEmuHotKey@@PEAVCRealConsole@@@Z 000000014002daf4 f   ConEmuCtrl.obj
 0001:0002cb6c       ?key_TabMenu@CConEmuCtrl@@SA_NAEBUConEmuChord@@_NPEBUConEmuHotKey@@PEAVCRealConsole@@@Z 000000014002db6c f   ConEmuCtrl.obj
 0001:0002cc2c       ?Filter@?$MToolHelp@UtagPROCESSENTRY32W@@$1?Process32FirstW@@YAHPEAXPEAU1@@Z$1?Process32NextW@@YAH01@Z@@MEAA_NPEAUtagPROCESSENTRY32W@@@Z 000000014002dc2c f   common-kernel64:MProcess.obj
 0001:0002cc2c       __acrt_uninitialize_command_line 000000014002dc2c f   libucrt:argv_data.obj
 0001:0002cc2c       _should_initialize_environment 000000014002dc2c f   LIBCMT:env_mode.obj
 0001:0002cc2c       ?key_WinDragStart@CConEmuCtrl@@SA_NAEBUConEmuChord@@_NPEBUConEmuHotKey@@PEAVCRealConsole@@@Z 000000014002dc2c f   ConEmuCtrl.obj
 0001:0002cc2c       ?QueryDialogCancel@CSetPgBase@@UEAA_NXZ 000000014002dc2c f   SetPgANSI.obj
 0001:0002cc30       ?key_WinHeightDec@CConEmuCtrl@@SA_NAEBUConEmuChord@@_NPEBUConEmuHotKey@@PEAVCRealConsole@@@Z 000000014002dc30 f   ConEmuCtrl.obj
 0001:0002cc40       ?key_WinHeightInc@CConEmuCtrl@@SA_NAEBUConEmuChord@@_NPEBUConEmuHotKey@@PEAVCRealConsole@@@Z 000000014002dc40 f   ConEmuCtrl.obj
 0001:0002cc50       ?key_WinSize@CConEmuCtrl@@SA_NE@Z 000000014002dc50 f   ConEmuCtrl.obj
 0001:0002cdf0       ?key_WinWidthDec@CConEmuCtrl@@SA_NAEBUConEmuChord@@_NPEBUConEmuHotKey@@PEAVCRealConsole@@@Z 000000014002ddf0 f   ConEmuCtrl.obj
 0001:0002ce00       ?key_WinWidthInc@CConEmuCtrl@@SA_NAEBUConEmuChord@@_NPEBUConEmuHotKey@@PEAVCRealConsole@@@Z 000000014002de00 f   ConEmuCtrl.obj
 0001:0002ce10       ??0CConEmuPipe@@QEAA@KK@Z  000000014002de10 f   ConEmuPipe.obj
 0001:0002ce78       ??1CConEmuPipe@@QEAA@XZ    000000014002de78 f   ConEmuPipe.obj
 0001:0002ce90       ?Close@CConEmuPipe@@QEAAXXZ 000000014002de90 f   ConEmuPipe.obj
 0001:0002cef8       ?Execute@CConEmuPipe@@QEAAHHPEBXI@Z 000000014002def8 f   ConEmuPipe.obj
 0001:0002d240       ?GetPtr@CConEmuPipe@@QEAAPEAEPEAK@Z 000000014002e240 f   ConEmuPipe.obj
 0001:0002d274       ?Init@CConEmuPipe@@QEAAHPEB_WH@Z 000000014002e274 f   ConEmuPipe.obj
 0001:0002d314       ?Read@CConEmuPipe@@QEAAHPEAXKPEAK@Z 000000014002e314 f   ConEmuPipe.obj
 0001:0002d3d4       ??$_Emplace_reallocate@AEBUMonitorInfoCache@CConEmuSize@@@?$vector@UMonitorInfoCache@CConEmuSize@@V?$MArrayAllocator@UMonitorInfoCache@CConEmuSize@@@@@std@@QEAAPEAUMonitorInfoCache@CConEmuSize@@QEAU23@AEBU23@@Z 000000014002e3d4 f i ConEmuSize.obj
 0001:0002d5c0       ??$emplace_back@AEBUMonitorInfoCache@CConEmuSize@@@?$vector@UMonitorInfoCache@CConEmuSize@@V?$MArrayAllocator@UMonitorInfoCache@CConEmuSize@@@@@std@@QEAAXAEBUMonitorInfoCache@CConEmuSize@@@Z 000000014002e5c0 f i ConEmuSize.obj
 0001:0002d644       ??$swprintf_c@$0BBI@@@YAHAEAY0BBI@_WPEB_WZZ 000000014002e644 f i ConEmuSize.obj
 0001:0002d670       ??$swprintf_c@$0CI@@@YAHAEAY0CI@_WPEB_WZZ 000000014002e670 f i ConEmuSize.obj
 0001:0002d69c       ??$swprintf_c@$0NM@@@YAHAEAY0NM@_WPEB_WZZ 000000014002e69c f i ConEmuSize.obj
 0001:0002d6c8       ??0CConEmuSize@@QEAA@XZ    000000014002e6c8 f   ConEmuSize.obj
 0001:0002d8e4       ??1CConEmuSize@@UEAA@XZ    000000014002e8e4 f   ConEmuSize.obj
 0001:0002d944       ??1NestedCallCounter@@QEAA@XZ 000000014002e944 f i ConEmuSize.obj
 0001:0002d94c       ??1ThickFrameDisabler@CConEmuSize@@QEAA@XZ 000000014002e94c f   ConEmuSize.obj
 0001:0002d964       ??_GCConEmuSize@@UEAAPEAXI@Z 000000014002e964 f i ConEmuSize.obj
 0001:0002d964       ??_ECConEmuSize@@UEAAPEAXI@Z 000000014002e964 f i ConEmuSize.obj
 0001:0002d998       ?AddMargins@CConEmuSize@@SAXAEAUtagRECT@@AEBU2@W4RectOperations@@@Z 000000014002e998 f   ConEmuSize.obj
 0001:0002da64       ?AnimateWindow@CConEmuSize@@IEAAHKK@Z 000000014002ea64 f   ConEmuSize.obj
 0001:0002dbc0       ?AutoSizeFont@CConEmuSize@@QEAAXUtagRECT@@W4ConEmuRect@@@Z 000000014002ebc0 f   ConEmuSize.obj
 0001:0002dd4c       ?BeginSizing@CConEmuSize@@QEAAXXZ 000000014002ed4c f   ConEmuSize.obj
 0001:0002dda8       ?CalcMargins@CConEmuSize@@QEAA?AUtagRECT@@KW4ConEmuWindowMode@@@Z 000000014002eda8 f   ConEmuSize.obj
 0001:0002df10       ?CalcMargins_FrameCaption@CConEmuSize@@IEAA?AUtagRECT@@KW4ConEmuWindowMode@@@Z 000000014002ef10 f   ConEmuSize.obj
 0001:0002e114       ?CalcMargins_InvisibleFrame@CConEmuSize@@IEAA?AUtagRECT@@XZ 000000014002f114 f   ConEmuSize.obj
 0001:0002e18c       ?CalcMargins_Padding@CConEmuSize@@IEAA?AUtagRECT@@XZ 000000014002f18c f   ConEmuSize.obj
 0001:0002e1c4       ?CalcMargins_Scrolling@CConEmuSize@@IEAA?AUtagRECT@@XZ 000000014002f1c4 f   ConEmuSize.obj
 0001:0002e200       ?CalcMargins_StatusBar@CConEmuSize@@IEAA?AUtagRECT@@XZ 000000014002f200 f   ConEmuSize.obj
 0001:0002e234       ?CalcMargins_TabBar@CConEmuSize@@IEAA?AUtagRECT@@K@Z 000000014002f234 f   ConEmuSize.obj
 0001:0002e318       ?CalcMargins_VisibleFrame@CConEmuSize@@IEAA?AUtagRECT@@PEAU2@@Z 000000014002f318 f   ConEmuSize.obj
 0001:0002e44c       ?CalcMargins_Win10Frame@CConEmuSize@@IEAA?AUtagRECT@@XZ 000000014002f44c f   ConEmuSize.obj
 0001:0002e4f4       ?CalcRect@CConEmuSize@@QEAA?AUtagRECT@@W4ConEmuRect@@AEBU2@0PEAVCVirtualConsole@@W4ConEmuMargins@@@Z 000000014002f4f4 f   ConEmuSize.obj
 0001:0002ea08       ?CalcRect@CConEmuSize@@QEAA?AUtagRECT@@W4ConEmuRect@@PEAVCVirtualConsole@@@Z 000000014002fa08 f   ConEmuSize.obj
 0001:0002ec44       ?CascadedPosFix@CConEmuSize@@QEAAXXZ 000000014002fc44 f   ConEmuSize.obj
 0001:0002ee9c       ?ChandeTileMode@CConEmuSize@@QEAA_NW4ConEmuWindowCommand@@@Z 000000014002fe9c f   ConEmuSize.obj
 0001:0002f2f4       ?CheckDpiOnMoving@CConEmuSize@@IEAA_NPEAUtagWINDOWPOS@@@Z 00000001400302f4 f   ConEmuSize.obj
 0001:0002f454       ?CheckQuakeRect@CConEmuSize@@IEAA_NPEAUtagRECT@@@Z 0000000140030454 f   ConEmuSize.obj
 0001:0002f688       ?CheckTopMostState@CConEmuSize@@QEAAXXZ 0000000140030688 f   ConEmuSize.obj
 0001:0002f7d8       ?CreateWindowRgn@CConEmuSize@@QEAAPEAUHRGN__@@XZ 00000001400307d8 f   ConEmuSize.obj
 0001:0002fbb8       ?CreateWindowRgn@CConEmuSize@@QEAAPEAUHRGN__@@_NHHHH@Z 0000000140030bb8 f   ConEmuSize.obj
 0001:0002fe78       ?Disable@ThickFrameDisabler@CConEmuSize@@QEAAXXZ 0000000140030e78 f   ConEmuSize.obj
 0001:0002fea8       ?DoAlwaysOnTopSwitch@CConEmuSize@@QEAAXXZ 0000000140030ea8 f   ConEmuSize.obj
 0001:0002ffa4       ?DoBringHere@CConEmuSize@@QEAAXXZ 0000000140030fa4 f   ConEmuSize.obj
 0001:000300b8       ?DoDesktopModeSwitch@CConEmuSize@@QEAAXXZ 00000001400310b8 f   ConEmuSize.obj
 0001:00030198       ?DoForcedFullScreen@CConEmuSize@@QEAAX_N@Z 0000000140031198 f   ConEmuSize.obj
 0001:00030368       ?DoFullScreen@CConEmuSize@@QEAAXXZ 0000000140031368 f   ConEmuSize.obj
 0001:000303fc       ?DoMaximizeRestore@CConEmuSize@@QEAAXXZ 00000001400313fc f   ConEmuSize.obj
 0001:00030458       ?DoMinimizeRestore@CConEmuSize@@QEAAXW4SingleInstanceShowHideType@@@Z 0000000140031458 f   ConEmuSize.obj
 0001:00030ff4       ?Enable@ThickFrameDisabler@CConEmuSize@@QEAAXXZ 0000000140031ff4 f   ConEmuSize.obj
 0001:0003101c       ?EndSizing@CConEmuSize@@QEAAXI@Z 000000014003201c f   ConEmuSize.obj
 0001:00031140       ?EvalNewNormalPos@CConEmuSize@@IEAAXAEBUtagMONITORINFO@@PEAUHMONITOR__@@0AEBUtagRECT@@AEAU4@@Z 0000000140032140 f   ConEmuSize.obj
 0001:000312bc       ?EvalTileMode@CConEmuSize@@QEAA?AW4ConEmuWindowCommand@@AEBUtagRECT@@PEAUtagMONITORINFO@@@Z 00000001400322bc f   ConEmuSize.obj
 0001:000314e0       ?EvalVConCreateSize@CConEmuSize@@QEAAXPEAVCVirtualConsole@@AEAI1@Z 00000001400324e0 f   ConEmuSize.obj
 0001:00031560       ?FindInitialMonitor@CConEmuSize@@AEAAPEAUHMONITOR__@@PEAUtagMONITORINFO@@@Z 0000000140032560 f   ConEmuSize.obj
 0001:00031688       ?FindNextSiblingApp@CConEmuSize@@QEAAPEAUHWND__@@_N@Z 0000000140032688 f   ConEmuSize.obj
 0001:00031778       ?FixPosByStartupMonitor@CConEmuSize@@IEAA_NQEAUHMONITOR__@@@Z 0000000140032778 f   ConEmuSize.obj
 0001:00031a94       ?FixWindowRect@CConEmuSize@@IEAA_NAEAUtagRECT@@K_N@Z 0000000140032a94 f   ConEmuSize.obj
 0001:00031fa4       ?FormatTileMode@CConEmuSize@@SAPEB_WW4ConEmuWindowCommand@@PEA_W_K@Z 0000000140032fa4 f   ConEmuSize.obj
 0001:000320b4       ?GetDefaultRect@CConEmuSize@@QEAA?AUtagRECT@@XZ 00000001400330b4 f   ConEmuSize.obj
 0001:000323b8       ?GetDefaultSize@CConEmuSize@@QEAA?AUtagSIZE@@_NPEBTCESize@@1PEAUHMONITOR__@@@Z 00000001400333b8 f   ConEmuSize.obj
 0001:00032998       ?GetIdealRect@CConEmuSize@@QEAA?AUtagRECT@@XZ 0000000140033998 f   ConEmuSize.obj
 0001:00032a50       ?GetInitialDpi@CConEmuSize@@QEAAHPEAUDpiValue@@@Z 0000000140033a50 f   ConEmuSize.obj
 0001:00032ac4       ?GetNearestMonitor@CConEmuSize@@QEAAPEAUHMONITOR__@@PEAUtagMONITORINFO@@PEBUtagRECT@@@Z 0000000140033ac4 f   ConEmuSize.obj
 0001:00032c64       ?GetSelfFrameWidth@CConEmuSize@@QEAAIXZ 0000000140033c64 f   ConEmuSize.obj
 0001:00032d40       ?GetTileMode@CConEmuSize@@QEAA?AW4ConEmuWindowCommand@@_NPEAUtagMONITORINFO@@@Z 0000000140033d40 f   ConEmuSize.obj
 0001:00032eb4       ?GetTileRect@CConEmuSize@@QEAA?AUtagRECT@@W4ConEmuWindowCommand@@AEBUtagMONITORINFO@@@Z 0000000140033eb4 f   ConEmuSize.obj
 0001:00032ff8       ?GetWindowMode@CConEmuSize@@QEAA?AW4ConEmuWindowMode@@XZ 0000000140033ff8 f   ConEmuSize.obj
 0001:00033018       ?InMinimizing@CConEmuSize@@QEAA_NPEAUtagWINDOWPOS@@@Z 0000000140034018 f   ConEmuSize.obj
 0001:00033094       ?IsSizeFree@CConEmuSize@@QEAA_NW4ConEmuWindowMode@@@Z 0000000140034094 f   ConEmuSize.obj
 0001:000330f0       ?IsSizePosFree@CConEmuSize@@QEAA_NW4ConEmuWindowMode@@@Z 00000001400340f0 f   ConEmuSize.obj
 0001:00033140       ?IsWindowModeChanging@CConEmuSize@@QEAA_NXZ 0000000140034140 f   ConEmuSize.obj
 0001:00033160       ?JumpNextMonitor@CConEmuSize@@QEAA_NPEAUHWND__@@PEAUHMONITOR__@@_NUtagRECT@@PEAU4@@Z 0000000140034160 f   ConEmuSize.obj
 0001:00033528       ?JumpNextMonitor@CConEmuSize@@QEAA_N_N@Z 0000000140034528 f   ConEmuSize.obj
 0001:000336a4       ?LogMinimizeRestoreSkip@CConEmuSize@@QEAAXPEB_WKKK@Z 00000001400346a4 f   ConEmuSize.obj
 0001:000336fc       ?LogTileModeChange@CConEmuSize@@IEAAXPEB_WW4ConEmuWindowCommand@@_NAEBUtagRECT@@PEAU3@PEAUHMONITOR__@@@Z 00000001400346fc f   ConEmuSize.obj
 0001:000338fc       ?NearestMonitorInfo@CConEmuSize@@QEAA?AUMonitorInfoCache@1@AEBUtagRECT@@@Z 00000001400348fc f   ConEmuSize.obj
 0001:00033938       ?NearestMonitorInfo@CConEmuSize@@QEAA?AUMonitorInfoCache@1@PEAUHMONITOR__@@@Z 0000000140034938 f   ConEmuSize.obj
 0001:00033a98       ?OnConsoleResize@CConEmuSize@@QEAAX_N@Z 0000000140034a98 f   ConEmuSize.obj
 0001:00033c4c       ?OnDisplayChanged@CConEmuSize@@QEAA_JIII@Z 0000000140034c4c f   ConEmuSize.obj
 0001:00033cac       ?OnDpiChanged@CConEmuSize@@QEAA_JIIPEAUtagRECT@@_NW4DpiChangeSource@@@Z 0000000140034cac f   ConEmuSize.obj
 0001:00034078       ?OnDpiChangedCall@CConEmuSize@@KA_J_J@Z 0000000140035078 f   ConEmuSize.obj
 0001:000340b0       ?OnGetMinMaxInfo@CConEmuSize@@QEAA_JPEAUtagMINMAXINFO@@@Z 00000001400350b0 f   ConEmuSize.obj
 0001:000345d0       ?OnMoving@CConEmuSize@@QEAA_JPEAUtagRECT@@_N@Z 00000001400355d0 f   ConEmuSize.obj
 0001:00034ad8       ?OnSize@CConEmuSize@@QEAA_J_N_K@Z 0000000140035ad8 f   ConEmuSize.obj
 0001:00034ca4       ?OnSizePanels@CConEmuSize@@QEAAXU_COORD@@@Z 0000000140035ca4 f   ConEmuSize.obj
 0001:00035054       ?OnSizing@CConEmuSize@@QEAA_J_K_J@Z 0000000140036054 f   ConEmuSize.obj
 0001:00035378       ?OnWindowPosChanged@CConEmuSize@@QEAA_JPEAUHWND__@@I_K_J@Z 0000000140036378 f   ConEmuSize.obj
 0001:0003584c       ?OnWindowPosChanging@CConEmuSize@@QEAA_JPEAUHWND__@@I_K_J@Z 000000014003684c f   ConEmuSize.obj
 0001:00035e2c       ?ReSize@CConEmuSize@@QEAAX_N@Z 0000000140036e2c f   ConEmuSize.obj
 0001:00036008       ?RealPosFromVisual@CConEmuSize@@IEAA?AUtagPOINT@@HH@Z 0000000140037008 f   ConEmuSize.obj
 0001:00036054       ?RecreateControls@CConEmuSize@@QEAAX_N00PEAUtagRECT@@@Z 0000000140037054 f   ConEmuSize.obj
 0001:0003613c       ?ReloadMonitorInfo@CConEmuSize@@QEAAXXZ 000000014003713c f   ConEmuSize.obj
 0001:00036bd4       ?Set@CESize@@QEAA_N_NW4CESizeStyle@@H@Z 0000000140037bd4 f i ConEmuSize.obj
 0001:00036c50       ?SetFromString@CESize@@QEAA_N_NPEB_W@Z 0000000140037c50 f i ConEmuSize.obj
 0001:00036ce8       ?SetIgnoreQuakeActivation@CConEmuSize@@QEAAX_N@Z 0000000140037ce8 f   ConEmuSize.obj
 0001:00036d08       ?SetNormalWindowSize@CConEmuSize@@IEAA?AUtagRECT@@XZ 0000000140037d08 f   ConEmuSize.obj
 0001:00036dd8       ?SetQuakeMode@CConEmuSize@@QEAA_NEW4ConEmuWindowMode@@_N@Z 0000000140037dd8 f   ConEmuSize.obj
 0001:00037110       ?SetRequestedMonitor@CConEmuSize@@QEAAXPEAUHMONITOR__@@@Z 0000000140038110 f   ConEmuSize.obj
 0001:00037184       ?SetTileMode@CConEmuSize@@IEAAXW4ConEmuWindowCommand@@@Z 0000000140038184 f   ConEmuSize.obj
 0001:0003723c       ?SetWindowMode@CConEmuSize@@QEAA_NW4ConEmuWindowMode@@_N1@Z 000000014003823c f   ConEmuSize.obj
 0001:00037ff4       ?SetWindowPosSize@CConEmuSize@@QEAA_NPEB_W000@Z 0000000140038ff4 f   ConEmuSize.obj
 0001:00038498       ?SetWindowPosSizeParam@CConEmuSize@@QEAAX_WPEB_W@Z 0000000140039498 f   ConEmuSize.obj
 0001:00038594       ?ShowMainWindow@CConEmuSize@@QEAA_NH_N@Z 0000000140039594 f   ConEmuSize.obj
 0001:00038808       ?SizeWindow@CConEmuSize@@QEAA_NTCESize@@0@Z 0000000140039808 f   ConEmuSize.obj
 0001:0003898c       ?StartForceShowFrame@CConEmuSize@@QEAAXXZ 000000014003998c f   ConEmuSize.obj
 0001:000389f4       ?StopForceShowFrame@CConEmuSize@@QEAAXXZ 00000001400399f4 f   ConEmuSize.obj
 0001:00038a58       ?StoreNormalRect@CConEmuSize@@IEAAXPEBUtagRECT@@@Z 0000000140039a58 f   ConEmuSize.obj
 0001:00038ea4       ?StorePreMinimizeMonitor@CConEmuSize@@QEAAXXZ 0000000140039ea4 f   ConEmuSize.obj
 0001:00038ed8       ?UpdateInsideRect@CConEmuSize@@QEAAXUtagRECT@@@Z 0000000140039ed8 f   ConEmuSize.obj
 0001:00038f0c       ?UpdateWindowRgn@CConEmuSize@@QEAAXXZ 0000000140039f0c f   ConEmuSize.obj
 0001:000390a8       ?VisualPosFromReal@CConEmuSize@@IEAA?AUtagPOINT@@HH@Z 000000014003a0a8 f   ConEmuSize.obj
 0001:000390f4       ?isCaptionHidden@CConEmuSize@@QEAA_NW4ConEmuWindowMode@@@Z 000000014003a0f4 f   ConEmuSize.obj
 0001:00039164       ?isFullScreen@CConEmuSize@@QEAA_NXZ 000000014003a164 f   ConEmuSize.obj
 0001:000391a4       ?isIconic@CConEmuSize@@QEAA_N_N@Z 000000014003a1a4 f   ConEmuSize.obj
 0001:00039280       ?isSelfFrame@CConEmuSize@@QEAA_NXZ 000000014003a280 f   ConEmuSize.obj
 0001:00039318       ?isSizing@CConEmuSize@@QEAA_NI@Z 000000014003a318 f   ConEmuSize.obj
 0001:00039368       ?isWindowNormal@CConEmuSize@@QEAA_NXZ 000000014003a368 f   ConEmuSize.obj
 0001:000393bc       ?isZoomed@CConEmuSize@@QEAA_NXZ 000000014003a3bc f   ConEmuSize.obj
 0001:000393fc       ?setWindowPos@CConEmuSize@@QEAA_NPEAUHWND__@@HHHHI@Z 000000014003a3fc f   ConEmuSize.obj
 0001:000395c8       ??$swprintf_c@$0BCE@@@YAHAEAY0BCE@_WPEB_WZZ 000000014003a5c8 f i ConEmuStart.obj
 0001:000395f4       ??0CConEmuStart@@QEAA@PEAVCConEmuMain@@@Z 000000014003a5f4 f   ConEmuStart.obj
 0001:000396b8       ??0StartOptions@CConEmuStart@@QEAA@XZ 000000014003a6b8 f i ConEmuStart.obj
 0001:00039984       ??1CConEmuStart@@UEAA@XZ   000000014003a984 f   ConEmuStart.obj
 0001:000399c0       ??1CESwitch@@QEAA@XZ       000000014003a9c0 f   ConEmuStart.obj
 0001:000399d8       ??1StartOptions@CConEmuStart@@QEAA@XZ 000000014003a9d8 f i ConEmuStart.obj
 0001:00039bd0       ??BCESwitch@@QEAA_NXZ      000000014003abd0 f   ConEmuStart.obj
 0001:00039bd0       ?GetBool@CESwitch@@QEAA_NXZ 000000014003abd0 f   ConEmuStart.obj
 0001:00039be0       ??_ECConEmuStart@@UEAAPEAXI@Z 000000014003abe0 f i ConEmuStart.obj
 0001:00039be0       ??_GCConEmuStart@@UEAAPEAXI@Z 000000014003abe0 f i ConEmuStart.obj
 0001:00039c14       ?Clear@CESwitch@@QEAAXXZ   000000014003ac14 f   ConEmuStart.obj
 0001:00039c44       ?FindBashLocation@CConEmuStart@@QEAA_NAEAUCEStr@@@Z 000000014003ac44 f   ConEmuStart.obj
 0001:00039d60       ?GetCfgParm@CConEmuStart@@IEAA_NAEAPEB_WAEAUCESwitch@@H_N@Z 000000014003ad60 f   ConEmuStart.obj
 0001:00039f00       ?GetCmd@CConEmuStart@@QEAAPEB_WPEA_N_N@Z 000000014003af00 f   ConEmuStart.obj
 0001:0003a21c       ?GetCurCmd@CConEmuStart@@QEAAPEB_WPEA_N@Z 000000014003b21c f   ConEmuStart.obj
 0001:0003a270       ?GetDefaultCmd@CConEmuStart@@QEAAPEB_WXZ 000000014003b270 f   ConEmuStart.obj
 0001:0003a278       ?GetDefaultTask@CConEmuStart@@QEAAPEB_WXZ 000000014003b278 f   ConEmuStart.obj
 0001:0003a2e0       ?GetInt@CESwitch@@QEAAHXZ  000000014003b2e0 f   ConEmuStart.obj
 0001:0003a2f0       ?GetStr@CESwitch@@QEAAPEB_WXZ 000000014003b2f0 f   ConEmuStart.obj
 0001:0003a314       ?ParseCommandLine@CConEmuStart@@QEAA_NPEB_WAEAH@Z 000000014003b314 f   ConEmuStart.obj
 0001:0003c988       ?ProcessConEmuArgsVar@CConEmuStart@@IEAAXXZ 000000014003d988 f   ConEmuStart.obj
 0001:0003ca68       ?ResetCmdArg@CConEmuStart@@QEAAXXZ 000000014003da68 f   ConEmuStart.obj
 0001:0003ca84       ?ResetConman@CConEmuStart@@QEAAXXZ 000000014003da84 f   ConEmuStart.obj
 0001:0003caf8       ?SetCurCmd@CConEmuStart@@QEAAXPEB_W_N@Z 000000014003daf8 f   ConEmuStart.obj
 0001:0003cb2c       ?SetDefaultCmd@CConEmuStart@@QEAAXPEB_W@Z 000000014003db2c f   ConEmuStart.obj
 0001:0003cc10       ?SetInt@CESwitch@@QEAAXH@Z 000000014003dc10 f   ConEmuStart.obj
 0001:0003cc24       ?SetInt@CESwitch@@QEAAXPEB_WH@Z 000000014003dc24 f   ConEmuStart.obj
 0001:0003cc5c       ?SetStr@CESwitch@@QEAAXPEB_WW4CESwitchType@@@Z 000000014003dc5c f   ConEmuStart.obj
 0001:0003ccc8       ?ConfirmCloseConsoles@@YAHAEBUConfirmCloseParam@@@Z 000000014003dcc8 f   ConfirmDlg.obj
 0001:0003d314       ?ConfirmDialog@@YAHPEB_W000IPEAUHWND__@@000000@Z 000000014003e314 f   ConfirmDlg.obj
 0001:0003da38       ?TaskDialog@@YAJPEAU_TASKDIALOGCONFIG@@PEAH1PEA_N@Z 000000014003ea38 f   ConfirmDlg.obj
 0001:0003dc14       ??1CAdjustProcessToken@@QEAA@XZ 000000014003ec14 f i CreateProcess.obj
 0001:0003dc48       ?CreateProcessDemoted@@YAHPEA_WPEAU_SECURITY_ATTRIBUTES@@1HKPEAXPEB_WPEAU_STARTUPINFOW@@PEAU_PROCESS_INFORMATION@@PEAK@Z 000000014003ec48 f   CreateProcess.obj
 0001:0003de74       ?CreateProcessInteractive@@YAHKPEB_WPEA_WPEAU_SECURITY_ATTRIBUTES@@2HKPEAX0PEAU_STARTUPINFOW@@PEAU_PROCESS_INFORMATION@@PEAK@Z 000000014003ee74 f   CreateProcess.obj
 0001:0003e2fc       ?CreateProcessRestricted@@YAHPEB_WPEA_WPEAU_SECURITY_ATTRIBUTES@@2HKPEAX0PEAU_STARTUPINFOW@@PEAU_PROCESS_INFORMATION@@PEAK@Z 000000014003f2fc f   CreateProcess.obj
 0001:0003e488       ?CreateProcessSystem@@YAHKPEA_WPEAU_SECURITY_ATTRIBUTES@@1HKPEAXPEB_WPEAU_STARTUPINFOW@@PEAU_PROCESS_INFORMATION@@PEAK@Z 000000014003f488 f   CreateProcess.obj
 0001:0003e4fc       ?Enable@CAdjustProcessToken@@QEAAHHZZ 000000014003f4fc f i CreateProcess.obj
 0001:0003e578       ?Enable@CAdjustProcessToken@@QEAAHPEAPEB_WH@Z 000000014003f578 f i CreateProcess.obj
 0001:0003e69c       ?Release@CAdjustProcessToken@@QEAAXXZ 000000014003f69c f i CreateProcess.obj
 0001:0003e70c       ??0CEDC@@QEAA@PEAUHDC__@@@Z 000000014003f70c f   CustomFonts.obj
 0001:0003e784       ??1CachedSolidBrush@@QEAA@XZ 000000014003f784 f   CustomFonts.obj
 0001:0003e79c       ??1CustomFontFamily@@QEAA@XZ 000000014003f79c f   CustomFonts.obj
 0001:0003e7e4       ??_GBDFFont@@UEAAPEAXI@Z   000000014003f7e4 f i CustomFonts.obj
 0001:0003e7e4       ??_EBDFFont@@UEAAPEAXI@Z   000000014003f7e4 f i CustomFonts.obj
 0001:0003e854       ??_GCustomFont@@UEAAPEAXI@Z 000000014003f854 f i CustomFonts.obj
 0001:0003e854       ??_ECustomFont@@UEAAPEAXI@Z 000000014003f854 f i CustomFonts.obj
 0001:0003e880       ?AddFont@CustomFontFamily@@QEAAXPEAVCustomFont@@@Z 000000014003f880 f   CustomFonts.obj
 0001:0003e908       ?BDF_GetFamilyName@@YAHPEB_WAEAY0CA@_W@Z 000000014003f908 f   CustomFonts.obj
 0001:0003e94c       ?BDF_Load@@YAPEAVCustomFont@@PEB_W@Z 000000014003f94c f   CustomFonts.obj
 0001:0003e954       ?Create@CEDC@@QEAA_NII@Z   000000014003f954 f   CustomFonts.obj
 0001:0003eb3c       ?CreateBitmap@BDFFont@@AEAAXXZ 000000014003fb3c f i CustomFonts.obj
 0001:0003ec68       ?Delete@CEDC@@QEAAXXZ      000000014003fc68 f   CustomFonts.obj
 0001:0003ecd4       ?Get@CachedSolidBrush@@QEAAPEAUHBRUSH__@@K@Z 000000014003fcd4 f   CustomFonts.obj
 0001:0003ed0c       ?GetBoundingBox@BDFFont@@UEAAXPEAJ0@Z 000000014003fd0c f i CustomFonts.obj
 0001:0003ed18       ?GetFamilyName@BDFFont@@SA_NPEB_WAEAY0CA@_W@Z 000000014003fd18 f i CustomFonts.obj
 0001:0003eeac       ?GetFont@CustomFontFamily@@QEAAPEAVCustomFont@@HHHH@Z 000000014003feac f   CustomFonts.obj
 0001:0003efe0       ?GetSize@BDFFont@@UEAAHXZ  000000014003ffe0 f i CustomFonts.obj
 0001:0003f000       ?HasBorders@BDFFont@@UEAAHXZ 0000000140040000 f i CustomFonts.obj
 0001:0003f004       ?HasUnicode@BDFFont@@UEAAHXZ 0000000140040004 f i CustomFonts.obj
 0001:0003f008       ?IsBold@BDFFont@@UEAAHXZ   0000000140040008 f i CustomFonts.obj
 0001:0003f00c       _get_startup_argv_mode     000000014004000c f i LIBCMT:argv_mode.obj
 0001:0003f00c       ?IsMonospace@BDFFont@@UEAAHXZ 000000014004000c f i CustomFonts.obj
 0001:0003f00c       ?GetPageType@CSetPgFonts@@UEAA?AW4TabHwndIndex@@XZ 000000014004000c f i SetPgFonts.obj
 0001:0003f014       ?Load@BDFFont@@SAPEAV1@PEB_W@Z 0000000140040014 f i CustomFonts.obj
 0001:0003f5f4       ?LoadBuffer@BDFFont@@SAPEADPEB_WAEAPEAD1@Z 00000001400405f4 f i CustomFonts.obj
 0001:0003f6f0       ?NextLine@BDFFont@@SA_KAEAPEAD0@Z 00000001400406f0 f i CustomFonts.obj
 0001:0003f764       ?Reset@CEDC@@AEAAXXZ       0000000140040764 f   CustomFonts.obj
 0001:0003f7a0       ?SelectFont@CEDC@@QEAAXPEAVCFont@@@Z 00000001400407a0 f   CustomFonts.obj
 0001:0003f850       ?SetBkColor@CEDC@@QEAAXK@Z 0000000140040850 f   CustomFonts.obj
 0001:0003f8a4       ?SetBkMode@CEDC@@QEAAXH@Z  00000001400408a4 f   CustomFonts.obj
 0001:0003f8f8       ?SetTextColor@CEDC@@QEAAXK@Z 00000001400408f8 f   CustomFonts.obj
 0001:0003f94c       ?TextDraw@BDFFont@@UEAAXPEAK_KKKPEB_WI@Z 000000014004094c f i CustomFonts.obj
 0001:0003fa98       ?TextDraw@BDFFont@@UEAAXPEAUHDC__@@HHPEB_WI@Z 0000000140040a98 f i CustomFonts.obj
 0001:0003fb40       ?TextDraw@CEDC@@QEAA_NHHIPEBUtagRECT@@PEB_WIPEBH@Z 0000000140040b40 f   CustomFonts.obj
 0001:0003fd6c       ?TextDrawOem@CEDC@@QEAA_NHHIPEBUtagRECT@@PEBDIPEBH@Z 0000000140040d6c f   CustomFonts.obj
 0001:0003fec0       ?TextExtentPoint@CEDC@@QEAA_NPEB_WHPEAUtagSIZE@@@Z 0000000140040ec0 f   CustomFonts.obj
 0001:0003ff98       ??0CDefTermBase@@QEAA@_N@Z 0000000140040f98 f i DefaultTerm.obj
 0001:0004009c       ??0CDefaultTerminal@@QEAA@XZ 000000014004109c f   DefaultTerm.obj
 0001:000400c4       ??1CDefTermBase@@UEAA@XZ   00000001400410c4 f i DefaultTerm.obj
 0001:0004012c       ??1CDefaultTerminal@@UEAA@XZ 000000014004112c f   DefaultTerm.obj
 0001:00040178       ??1CEDefTermOpt@@QEAA@XZ   0000000140041178 f i DefaultTerm.obj
 0001:000401e4       ??_ECDefTermBase@@UEAAPEAXI@Z 00000001400411e4 f i DefaultTerm.obj
 0001:000401e4       ??_GCDefTermBase@@UEAAPEAXI@Z 00000001400411e4 f i DefaultTerm.obj
 0001:00040218       ??_ECDefaultTerminal@@UEAAPEAXI@Z 0000000140041218 f i DefaultTerm.obj
 0001:00040218       ??_GCDefaultTerminal@@UEAAPEAXI@Z 0000000140041218 f i DefaultTerm.obj
 0001:0004024c       ?ApplyAndSave@CDefaultTerminal@@QEAAX_N0@Z 000000014004124c f   DefaultTerm.obj
 0001:00040284       ?AutoClearThreads@CDefTermBase@@MEAAXXZ 0000000140041284 f i DefaultTerm.obj
 0001:0004028c       ?AutoClearThreads@CDefaultTerminal@@MEAAXXZ 000000014004128c f   DefaultTerm.obj
 0001:000402b0       ?CheckRegisterOsStartup@CDefaultTerminal@@QEAAXXZ 00000001400412b0 f   DefaultTerm.obj
 0001:000404ac       ?ClearThreads@CDefTermBase@@IEAAX_N@Z 00000001400414ac f i DefaultTerm.obj
 0001:000405b4       ?ConhostLocker@CDefaultTerminal@@MEAAX_NAEA_N@Z 00000001400415b4 f   DefaultTerm.obj
 0001:000405f0       ?DisplayLastError@CDefaultTerminal@@MEAAHPEB_WKK0PEAUHWND__@@@Z 00000001400415f0 f   DefaultTerm.obj
 0001:00040618       ?Initialize@CDefTermBase@@IEAAX_N00@Z 0000000140041618 f i DefaultTerm.obj
 0001:00040830       ?IsRegisteredOsStartup@CDefaultTerminal@@QEAA_NPEAUCEStr@@PEA_N@Z 0000000140041830 f   DefaultTerm.obj
 0001:0004090c       ?LogHookingStatus@CDefaultTerminal@@UEAAXKPEB_W@Z 000000014004190c f   DefaultTerm.obj
 0001:000409c4       ?NotifyHookingStatus@CDefaultTerminal@@MEAA_NKPEB_W@Z 00000001400419c4 f   DefaultTerm.obj
 0001:00040aa0       ?OnTaskbarCreated@CDefaultTerminal@@QEAAXXZ 0000000140041aa0 f   DefaultTerm.obj
 0001:00040ac4       ?PostCreatedThread@CDefTermBase@@KAKPEAX@Z 0000000140041ac4 f i DefaultTerm.obj
 0001:00040af4       ?PreCreateThread@CDefaultTerminal@@MEAAXXZ 0000000140041af4 f   DefaultTerm.obj
 0001:00040b14       ?ReloadSettings@CDefaultTerminal@@MEAAXXZ 0000000140041b14 f   DefaultTerm.obj
 0001:00040c6c       ?Serialize@CEDefTermOpt@@QEAA_N_N@Z 0000000140041c6c f i DefaultTerm.obj
 0001:0004126c       ?ShowTrayIconError@CDefaultTerminal@@MEAAXPEB_W@Z 000000014004226c f   DefaultTerm.obj
 0001:00041280       ?StartGuiDefTerm@CDefaultTerminal@@QEAAX_N0@Z 0000000140042280 f   DefaultTerm.obj
 0001:000412e0       ?StopHookers@CDefTermBase@@MEAAXXZ 00000001400422e0 f i DefaultTerm.obj
 0001:0004130c       ?isDefaultTerminalAllowed@CDefaultTerminal@@UEAA_N_N@Z 000000014004230c f   DefaultTerm.obj
 0001:00041334       ?isLogging@CDefaultTerminal@@UEAA_NXZ 0000000140042334 f   DefaultTerm.obj
 0001:00041354       ?GetNumber@CDlgItemHelper@@SAHPEAUHWND__@@GHH@Z 0000000140042354 f   DlgItemHelper.obj
 0001:0004141c       ?GetString@CDlgItemHelper@@SA_JPEAUHWND__@@GPEAPEA_WPEB_W_N@Z 000000014004241c f   DlgItemHelper.obj
 0001:000415c8       ?InvalidateCtrl@CDlgItemHelper@@SAXPEAUHWND__@@H@Z 00000001400425c8 f   DlgItemHelper.obj
 0001:000415d4       ?OpenHyperlink@CDlgItemHelper@@SA_NAEAUCEStr@@PEAUHWND__@@@Z 00000001400425d4 f   DlgItemHelper.obj
 0001:00041634       ?ProcessHyperlinkCtrl@CDlgItemHelper@@SA_NPEAUHWND__@@G@Z 0000000140042634 f   DlgItemHelper.obj
 0001:00041730       ?checkDlgButton@CDlgItemHelper@@SA_NPEAUHWND__@@GI@Z 0000000140042730 f   DlgItemHelper.obj
 0001:00041748       ?checkRadioButton@CDlgItemHelper@@SA_NPEAUHWND__@@HHH@Z 0000000140042748 f   DlgItemHelper.obj
 0001:0004175c       ?enableDlgItem@CDlgItemHelper@@SAXPEAUHWND__@@G_N@Z 000000014004275c f   DlgItemHelper.obj
 0001:00041780       ?enableDlgItems@CDlgItemHelper@@SAXPEAUHWND__@@PEAI_J_N@Z 0000000140042780 f   DlgItemHelper.obj
 0001:00041834       ?isChecked2@CDlgItemHelper@@SA_NPEAUHWND__@@G@Z 0000000140042834 f   DlgItemHelper.obj
 0001:00041848       ?isChecked@CDlgItemHelper@@SAEPEAUHWND__@@G@Z 0000000140042848 f   DlgItemHelper.obj
 0001:00041874       ?isHyperlinkCtrl@CDlgItemHelper@@SA_NG@Z 0000000140042874 f   DlgItemHelper.obj
 0001:000418a4       ??$_Emplace_reallocate@AEBULngDefinition@CLngRc@@@?$vector@ULngDefinition@CLngRc@@V?$MArrayAllocator@ULngDefinition@CLngRc@@@@@std@@QEAAPEAULngDefinition@CLngRc@@QEAU23@AEBU23@@Z 00000001400428a4 f i LngRc.obj
 0001:000418a4       ??$_Emplace_reallocate@AEBUHighlightRect@CVirtualConsole@@@?$vector@UHighlightRect@CVirtualConsole@@V?$MArrayAllocator@UHighlightRect@CVirtualConsole@@@@@std@@QEAAPEAUHighlightRect@CVirtualConsole@@QEAU23@AEBU23@@Z 00000001400428a4 f i VirtualConsole.obj
 0001:000418a4       ??$_Emplace_reallocate@AEBUFoundFile@FastConfig@@@?$vector@UFoundFile@FastConfig@@V?$MArrayAllocator@UFoundFile@FastConfig@@@@@std@@QEAAPEAUFoundFile@FastConfig@@QEAU23@AEBU23@@Z 00000001400428a4 f i OptionsFast.obj
 0001:000418a4       ??$_Emplace_reallocate@AEBUDlgItem@CDpiForDialog@@@?$vector@UDlgItem@CDpiForDialog@@V?$MArrayAllocator@UDlgItem@CDpiForDialog@@@@@std@@QEAAPEAUDlgItem@CDpiForDialog@@QEAU23@AEBU23@@Z 00000001400428a4 f i DpiAware.obj
 0001:00041a38       ??0CDpiForDialog@@IEAA@XZ  0000000140042a38 f   DpiAware.obj
 0001:00041ac8       ??0DpiValue@@QEAA@HH@Z     0000000140042ac8 f   DpiAware.obj
 0001:00041ad4       ??0DpiValue@@QEAA@XZ       0000000140042ad4 f   DpiAware.obj
 0001:00041ae4       ??1CDpiForDialog@@QEAA@XZ  0000000140042ae4 f   DpiAware.obj
 0001:00041b44       ?Attach@CDpiForDialog@@QEAA_NPEAUHWND__@@0PEAVCDynDialog@@@Z 0000000140042b44 f   DpiAware.obj
 0001:00041dcc       ?CenterDialog@CDpiAware@@SAXPEAUHWND__@@@Z 0000000140042dcc f   DpiAware.obj
 0001:00041ebc       ?Create@CDpiForDialog@@SA_NAEAPEAV1@@Z 0000000140042ebc f   DpiAware.obj
 0001:00041f10       ?Detach@CDpiForDialog@@QEAAXXZ 0000000140042f10 f   DpiAware.obj
 0001:00041fc8       ?FromWParam@DpiValue@@SA?AU1@_K@Z 0000000140042fc8 f   DpiAware.obj
 0001:00041ff4       ?GetCenteredRect@CDpiAware@@SAXPEAUHWND__@@AEAUtagRECT@@PEAUHMONITOR__@@@Z 0000000140042ff4 f   DpiAware.obj
 0001:000420b0       ?GetCurDpi@CDpiForDialog@@QEBAAEBUDpiValue@@XZ 00000001400430b0 f   DpiAware.obj
 0001:000420b8       ?GetFontSizeForDpi@CDpiForDialog@@IEAAHPEAUHDC__@@H@Z 00000001400430b8 f   DpiAware.obj
 0001:000420ec       ?GetNext@?$MMap@HPEAV?$MArray@UDlgItem@CDpiForDialog@@@@$0A@@@QEAA_NPEBHPEAHPEAPEAV?$MArray@UDlgItem@CDpiForDialog@@@@@Z 00000001400430ec f i DpiAware.obj
 0001:000421a8       ?IsPerMonitorDpi@CDpiAware@@SA_NXZ 00000001400431a8 f   DpiAware.obj
 0001:00042284       ?LoadDialogItems@CDpiForDialog@@KAPEAV?$MArray@UDlgItem@CDpiForDialog@@@@PEAUHWND__@@@Z 0000000140043284 f   DpiAware.obj
 0001:00042420       ?ProcessDpiMessages@CDpiForDialog@@QEAA_NPEAUHWND__@@I_K_J@Z 0000000140043420 f   DpiAware.obj
 0001:00042478       ?QueryDpi@CDpiAware@@SAHPEAUHWND__@@PEAUDpiValue@@@Z 0000000140043478 f   DpiAware.obj
 0001:000424d0       ?QueryDpiForMonitor@CDpiAware@@SAHPEAUHMONITOR__@@PEAUDpiValue@@W4MonitorDpiType@@@Z 00000001400434d0 f   DpiAware.obj
 0001:00042644       ?QueryDpiForRect@CDpiAware@@SAHAEBUtagRECT@@PEAUDpiValue@@W4MonitorDpiType@@@Z 0000000140043644 f   DpiAware.obj
 0001:00042678       ?QueryDpiForWindow@CDpiAware@@SAHPEAUHWND__@@PEAUDpiValue@@@Z 0000000140043678 f   DpiAware.obj
 0001:00042704       ?SetDialogDPI@CDpiForDialog@@QEAA_NAEBUDpiValue@@PEAUtagRECT@@@Z 0000000140043704 f   DpiAware.obj
 0001:00042fd0       ?SetDpi@DpiValue@@QEAAXAEBU1@@Z 0000000140043fd0 f   DpiAware.obj
 0001:00042fe0       ?SetDpi@DpiValue@@QEAAXHH@Z 0000000140043fe0 f   DpiAware.obj
 0001:00042fe8       ?UpdateStartupInfo@CDpiAware@@SAXPEAUCEStartupEnv@@@Z 0000000140043fe8 f   DpiAware.obj
 0001:000430a0       ?setProcessDPIAwareness@CDpiAware@@SAJXZ 00000001400440a0 f   DpiAware.obj
 0001:00043114       ??$SafeDelete@U_ShlOpInfo@CDragDrop@@@@YAXAEAPEAU_ShlOpInfo@CDragDrop@@@Z 0000000140044114 f i DragDrop.obj
 0001:00043144       ??0CDragDrop@@QEAA@XZ      0000000140044144 f   DragDrop.obj
 0001:00043210       ??1CDragDrop@@UEAA@XZ      0000000140044210 f   DragDrop.obj
 0001:00043494       ??_ECDragDrop@@WBA@EAAPEAXI@Z 0000000140044494 f i DragDrop.obj
 0001:000434a0       ??_ECDragDrop@@UEAAPEAXI@Z 00000001400444a0 f i DragDrop.obj
 0001:000434a0       ??_GCDragDrop@@UEAAPEAXI@Z 00000001400444a0 f i DragDrop.obj
 0001:000434d4       ?CreateLink@CDragDrop@@QEAAJPEB_W00@Z 00000001400444d4 f   DragDrop.obj
 0001:0004359c       ?Drag@CDragDrop@@QEAAXHU_COORD@@@Z 000000014004459c f   DragDrop.obj
 0001:0004368c       ?DragEnter@CDragDrop@@UEAAJPEAUIDataObject@@KU_POINTL@@PEAK@Z 000000014004468c f   DragDrop.obj
 0001:000437cc       ?DragLeave@CDragDrop@@UEAAJXZ 00000001400447cc f   DragDrop.obj
 0001:000437fc       ?DragOver@CDragDrop@@UEAAJKU_POINTL@@PEAK@Z 00000001400447fc f   DragDrop.obj
 0001:000438a8       ?DragOverInt@CDragDrop@@IEAAJKU_POINTL@@PEAK@Z 00000001400448a8 f   DragDrop.obj
 0001:00043b78       ?DragStart@CDragDrop@@IEAAKPEAUIDropSource@@KAEAK@Z 0000000140044b78 f   DragDrop.obj
 0001:00043c90       ?Drop@CDragDrop@@UEAAJPEAUIDataObject@@KU_POINTL@@PEAK@Z 0000000140044c90 f   DragDrop.obj
 0001:00043f78       ?DropFromStream@CDragDrop@@IEAAJPEAUIDataObject@@H@Z 0000000140044f78 f   DragDrop.obj
 0001:000447a8       ?DropFromText@CDragDrop@@IEAAJPEAUIDataObject@@@Z 00000001400457a8 f   DragDrop.obj
 0001:000448b0       ?DropLinks@CDragDrop@@IEAAJPEAUHDROP__@@HH@Z 00000001400458b0 f   DragDrop.obj
 0001:00044ad4       ?DropNames@CDragDrop@@IEAAJPEAUHDROP__@@HH@Z 0000000140045ad4 f   DragDrop.obj
 0001:000451dc       ?DropShellOp@CDragDrop@@IEAAJPEAUIDataObject@@PEAKAEAUtagSTGMEDIUM@@HH@Z 00000001400461dc f   DragDrop.obj
 0001:0004566c       ?FileCreateName@CDragDrop@@IEAAPEA_WHHPEB_W0@Z 000000014004666c f   DragDrop.obj
 0001:00045b64       ?FileStart@CDragDrop@@IEAAPEAXPEB_W@Z 0000000140046b64 f   DragDrop.obj
 0001:00045c4c       ?FileWrite@CDragDrop@@IEAAJPEAXK0@Z 0000000140046c4c f   DragDrop.obj
 0001:00045d90       ?ReportUnknownData@CDragDrop@@IEAAXPEAUIDataObject@@PEB_W@Z 0000000140046d90 f   DragDrop.obj
 0001:00045f2c       ?ShellOpThreadProc@CDragDrop@@KAKPEAX@Z 0000000140046f2c f   DragDrop.obj
 0001:000460e0       swprintf_s                 00000001400470e0 f i DragDrop.obj
 0001:00046134       ??$PidlDump@PEFBU_ITEMIDLIST@@@@YAXPEFBU_ITEMIDLIST@@PEAX@Z 0000000140047134 f i DragDropData.obj
 0001:00046494       ??0CDragDropData@@QEAA@XZ  0000000140047494 f   DragDropData.obj
 0001:0004655c       ??1CDragDropData@@UEAA@XZ  000000014004755c f   DragDropData.obj
 0001:00046600       ??_GCDragDropData@@UEAAPEAXI@Z 0000000140047600 f i DragDropData.obj
 0001:00046600       ??_ECDragDropData@@UEAAPEAXI@Z 0000000140047600 f i DragDropData.obj
 0001:00046634       ?AddFmt_DragImageBits@CDragDropData@@AEAAHPEA_WIH@Z 0000000140047634 f   DragDropData.obj
 0001:000467dc       ?AddFmt_HDROP@CDragDropData@@AEAAHPEA_WIH@Z 00000001400477dc f   DragDropData.obj
 0001:000468bc       ?AddFmt_InShellDragLoop@CDragDropData@@AEAAHPEA_WIH@Z 00000001400478bc f   DragDropData.obj
 0001:000468f4       ?AddFmt_PREFERREDDROPEFFECT@CDragDropData@@AEAAHPEA_WIH@Z 00000001400478f4 f   DragDropData.obj
 0001:00046954       ?AddFmt_SHELLIDLIST@CDragDropData@@AEAAHPEA_WIH@Z 0000000140047954 f   DragDropData.obj
 0001:00046bf8       ?CheckIsUpdatePackage@CDragDropData@@IEAA_NPEAUIDataObject@@@Z 0000000140047bf8 f   DragDropData.obj
 0001:00046d10       ?DragFeedBack@CDragDropData@@QEAAXK@Z 0000000140047d10 f   DragDropData.obj
 0001:00046d80       ?DrawImageBits@CDragDropData@@IEAAHPEAUHDC__@@PEA_WPEAHH2@Z 0000000140047d80 f   DragDropData.obj
 0001:00046fb4       ?EnumDragFormats@CDragDropData@@IEAAXPEAUIDataObject@@PEAX@Z 0000000140047fb4 f   DragDropData.obj
 0001:00047828       ?ForwardMessage@CDragDropData@@QEAAHI_K_J@Z 0000000140048828 f   DragDropData.obj
 0001:00047898       ?InDragDrop@CDragDropData@@QEAAHXZ 0000000140048898 f   DragDropData.obj
 0001:000478b0       ?IsDragImageOsSupported@CDragDropData@@IEAA_NXZ 00000001400488b0 f   DragDropData.obj
 0001:000478dc       ?IsDragStarting@CDragDropData@@QEAAHXZ 00000001400488dc f   DragDropData.obj
 0001:0004792c       ?NeedRefreshToInfo@CDragDropData@@QEAA_NU_POINTL@@@Z 000000014004892c f   DragDropData.obj
 0001:000479d4       ?PaintDragImageBits@CDragDropData@@IEAAHPEA_WAEAPEAUHDC__@@AEAPEAUHBITMAP__@@2HHPEAH3PEAUtagPOINT@@_NK@Z 00000001400489d4 f   DragDropData.obj
 0001:00047e8c       ?PrepareDrag@CDragDropData@@QEAAHHU_COORD@@PEAK@Z 0000000140048e8c f   DragDropData.obj
 0001:000480c4       ?Register@CDragDropData@@QEAAHXZ 00000001400490c4 f   DragDropData.obj
 0001:0004812c       ?RetrieveDragFromInfo@CDragDropData@@AEAAHHU_COORD@@PEAPEA_WPEAI@Z 000000014004912c f   DragDropData.obj
 0001:00048474       ?RetrieveDragToInfo@CDragDropData@@QEAAXU_POINTL@@@Z 0000000140049474 f   DragDropData.obj
 0001:00048680       ?SetDragToInfo@CDragDropData@@QEAAXPEBUForwardedPanelInfo@@_KPEAVCRealConsole@@@Z 0000000140049680 f   DragDropData.obj
 0001:00048878       ?StringCbCopyW@@YAJPEA_W_KPEB_W@Z 0000000140049878 f i DragDropData.obj
 0001:000488f4       ?TerminateDrag@CDragDropData@@IEAAXXZ 00000001400498f4 f   DragDropData.obj
 0001:00048a48       ?UseSourceHelper@CDragDropData@@IEAA_NXZ 0000000140049a48 f   DragDropData.obj
 0001:00048ae8       ?UseTargetHelper@CDragDropData@@IEAA_N_N@Z 0000000140049ae8 f   DragDropData.obj
 0001:00048bb4       ??0CDwmHelper@@QEAA@XZ     0000000140049bb4 f   DwmHelper.obj
 0001:00048be8       ??1CDwmHelper@@UEAA@XZ     0000000140049be8 f   DwmHelper.obj
 0001:00048cf0       ??_ECDwmHelper@@UEAAPEAXI@Z 0000000140049cf0 f i DwmHelper.obj
 0001:00048cf0       ??_GCDwmHelper@@UEAAPEAXI@Z 0000000140049cf0 f i DwmHelper.obj
 0001:00048d24       ?AdjustWindowRectExForDpi@CDwmHelper@@QEAAHPEAUtagRECT@@KHKI@Z 0000000140049d24 f   DwmHelper.obj
 0001:00048d6c       ?DrawType@CDwmHelper@@QEAA?AW4FrameDrawStyle@@XZ 0000000140049d6c f   DwmHelper.obj
 0001:00048dcc       ?DwmDefWindowProc@CDwmHelper@@QEAAHPEAUHWND__@@I_K_JPEA_J@Z 0000000140049dcc f   DwmHelper.obj
 0001:00048e14       ?DwmGetWindowAttribute@CDwmHelper@@QEAAJPEAUHWND__@@KPEAXK@Z 0000000140049e14 f   DwmHelper.obj
 0001:00048e44       ?DwmInvalidateIconicBitmaps@CDwmHelper@@QEAAJPEAUHWND__@@@Z 0000000140049e44 f   DwmHelper.obj
 0001:00048e64       ?DwmSetIconicLivePreviewBitmap@CDwmHelper@@QEAAJPEAUHWND__@@PEAUHBITMAP__@@PEAUtagPOINT@@@Z 0000000140049e64 f   DwmHelper.obj
 0001:00048ea0       ?DwmSetIconicThumbnail@CDwmHelper@@QEAAJPEAUHWND__@@PEAUHBITMAP__@@@Z 0000000140049ea0 f   DwmHelper.obj
 0001:00048ecc       ?ExtendWindowFrame@CDwmHelper@@QEAA_NPEAUHWND__@@AEBUtagRECT@@@Z 0000000140049ecc f   DwmHelper.obj
 0001:00048f34       ?ExtendWindowFrame@CDwmHelper@@QEAA_NXZ 0000000140049f34 f   DwmHelper.obj
 0001:00048f68       ?ForceSetIconic@CDwmHelper@@QEAAXPEAUHWND__@@@Z 0000000140049f68 f   DwmHelper.obj
 0001:00048fd8       ?GetDwmClientRectTopOffset@CDwmHelper@@QEAAHXZ 0000000140049fd8 f   DwmHelper.obj
 0001:00048fe4       ?InitDwm@CDwmHelper@@AEAAXXZ 0000000140049fe4 f   DwmHelper.obj
 0001:0004945c       ?IsDwm@CDwmHelper@@QEAA_NXZ 000000014004a45c f   DwmHelper.obj
 0001:00049490       ?IsGlass@CDwmHelper@@QEAA_NXZ 000000014004a490 f   DwmHelper.obj
 0001:000494bc       ?IsThemed@CDwmHelper@@QEAA_NXZ 000000014004a4bc f   DwmHelper.obj
 0001:000494f8       ??0CDynDialog@@QEAA@I@Z    000000014004a4f8 f   DynDialog.obj
 0001:00049560       ??1CDynDialog@@UEAA@XZ     000000014004a560 f   DynDialog.obj
 0001:0004968c       ??_GCDynDialog@@UEAAPEAXI@Z 000000014004a68c f i DynDialog.obj
 0001:0004968c       ??_ECDynDialog@@UEAAPEAXI@Z 000000014004a68c f i DynDialog.obj
 0001:000496c0       ?DynDialogBox@CDynDialog@@KA_JPEAUHWND__@@I_K_J@Z 000000014004a6c0 f   DynDialog.obj
 0001:0004978c       ?ExecuteDialog@CDynDialog@@SA_JIPEAUHWND__@@P6A_J0I_K_J@Z2@Z 000000014004a78c f   DynDialog.obj
 0001:00049864       ?Get@?$MMap@PEAUHWND__@@P6A_JPEAU1@I_K_J@Z$0A@@@QEAA_NAEBQEAUHWND__@@PEAP6A_JPEAU2@I_K_J@Z_N@Z 000000014004a864 f i SetDlgColors.obj
 0001:00049864       ?Get@?$MMap@PEAUHWND__@@PEAVCVirtualConsole@@$0A@@@QEAA_NAEBQEAUHWND__@@PEAPEAVCVirtualConsole@@_N@Z 000000014004a864 f i VConChild.obj
 0001:00049864       ?Get@?$MMap@PEAUHWND__@@PEAVCDynDialog@@$0A@@@QEAA_NAEBQEAUHWND__@@PEAPEAVCDynDialog@@_N@Z 000000014004a864 f i DynDialog.obj
 0001:00049864       ?Get@?$MMap@PEAUHWND__@@PEAVCFindPanel@@$0A@@@QEAA_NAEBQEAUHWND__@@PEAPEAVCFindPanel@@_N@Z 000000014004a864 f i FindPanel.obj
 0001:000498e4       ?GetDlgClass@CDynDialog@@SAPEAV1@PEAUHWND__@@@Z 000000014004a8e4 f   DynDialog.obj
 0001:00049938       ?GetFontPointSize@CDynDialog@@QEAAIXZ 000000014004a938 f   DynDialog.obj
 0001:00049954       ?LoadTemplate@CDynDialog@@QEAA_NXZ 000000014004a954 f   DynDialog.obj
 0001:00049b80       ?LocalizeControl@CDynDialog@@SAHPEAUHWND__@@_J@Z 000000014004ab80 f   DynDialog.obj
 0001:00049c9c       ?LocalizeDialog@CDynDialog@@SAXPEAUHWND__@@I@Z 000000014004ac9c f   DynDialog.obj
 0001:00049cf8       ?ParseDialog@CDynDialog@@IEAA_NAEA_K@Z 000000014004acf8 f   DynDialog.obj
 0001:00049df8       ?ParseDialogEx@CDynDialog@@IEAA_NAEA_K@Z 000000014004adf8 f   DynDialog.obj
 0001:00049f28       ?ParseItem@CDynDialog@@IEAA_NAEA_K@Z 000000014004af28 f   DynDialog.obj
 0001:0004a00c       ?ParseItemEx@CDynDialog@@IEAA_NAEA_K@Z 000000014004b00c f   DynDialog.obj
 0001:0004a0f4       ?PrepareDlg@CDynDialog@@IEAAXP6A_JPEAUHWND__@@I_K_J@Z@Z 000000014004b0f4 f   DynDialog.obj
 0001:0004a158       ?Set@?$MMap@PEAUHWND__@@PEAVCVirtualConsole@@$0A@@@QEAA_NAEBQEAUHWND__@@AEBQEAVCVirtualConsole@@@Z 000000014004b158 f i VConChild.obj
 0001:0004a158       ?Set@?$MMap@PEAVCVConGroup@@PEAVCVirtualConsole@@$0A@@@QEAA_NAEBQEAVCVConGroup@@AEBQEAVCVirtualConsole@@@Z 000000014004b158 f i TabBar.obj
 0001:0004a158       ?Set@?$MMap@PEAUHWND__@@PEAVCFindPanel@@$0A@@@QEAA_NAEBQEAUHWND__@@AEBQEAVCFindPanel@@@Z 000000014004b158 f i FindPanel.obj
 0001:0004a158       ?Set@?$MMap@PEAUHWND__@@PEAVCDynDialog@@$0A@@@QEAA_NAEBQEAUHWND__@@AEBQEAVCDynDialog@@@Z 000000014004b158 f i DynDialog.obj
 0001:0004a158       ?Set@?$MMap@PEAUHWND__@@P6A_JPEAU1@I_K_J@Z$0A@@@QEAA_NAEBQEAUHWND__@@AEBQ6A_JPEAU2@I_K_J@Z@Z 000000014004b158 f i SetDlgColors.obj
 0001:0004a2a8       ?ShowDialog@CDynDialog@@SAPEAV1@IPEAUHWND__@@P6A_J0I_K_J@Z2@Z 000000014004b2a8 f   DynDialog.obj
 0001:0004a388       ?SkipSzOrAtom@CDynDialog@@IEAAPEA_WAEA_K@Z 000000014004b388 f   DynDialog.obj
 0001:0004a41c       ?SkipSzOrOrd@CDynDialog@@IEAAPEA_WAEA_K@Z 000000014004b41c f   DynDialog.obj
 0001:0004a450       ??0CEFindDlg@@QEAA@XZ      000000014004b450 f   FindDlg.obj
 0001:0004a464       ?FindTextDialog@CEFindDlg@@QEAAXXZ 000000014004b464 f   FindDlg.obj
 0001:0004a5a4       ?UpdateFindDlgAlpha@CEFindDlg@@QEAAX_N@Z 000000014004b5a4 f   FindDlg.obj
 0001:0004a678       ?findTextProc@CEFindDlg@@SA_JPEAUHWND__@@I_K_J@Z 000000014004b678 f   FindDlg.obj
 0001:0004abfc       ??$SafeDelete@UCEStr@@@@YAXAEAPEAUCEStr@@@Z 000000014004bbfc f i FindPanel.obj
 0001:0004ac44       ??0CFindPanel@@QEAA@PEAVCConEmuMain@@@Z 000000014004bc44 f   FindPanel.obj
 0001:0004ad10       ??1CFindPanel@@QEAA@XZ     000000014004bd10 f   FindPanel.obj
 0001:0004ad40       ?Activate@CFindPanel@@QEAAPEAUHWND__@@_N@Z 000000014004bd40 f   FindPanel.obj
 0001:0004ad9c       ?CreatePane@CFindPanel@@QEAAPEAUHWND__@@PEAU2@H@Z 000000014004bd9c f   FindPanel.obj
 0001:0004ae58       ?EditCtrlProc@CFindPanel@@KA_JPEAUHWND__@@I_K_J@Z 000000014004be58 f   FindPanel.obj
 0001:0004af7c       ?FindPaneProc@CFindPanel@@KA_JPEAUHWND__@@I_K_J@Z 000000014004bf7c f   FindPanel.obj
 0001:0004b110       ?GetParseError@MJsonValue@@QEAAPEB_WXZ 000000014004c110 f   common-user64:MJsonReader.obj
 0001:0004b110       ?GetHWND@CFindPanel@@QEAAPEAUHWND__@@XZ 000000014004c110 f   FindPanel.obj
 0001:0004b118       ?GetMinWidth@CFindPanel@@QEAAHXZ 000000014004c118 f   FindPanel.obj
 0001:0004b138       ?Invalidate@CFindPanel@@QEAAXXZ 000000014004c138 f   FindPanel.obj
 0001:0004b170       ?IsAvailable@CFindPanel@@QEAA_N_N@Z 000000014004c170 f   FindPanel.obj
 0001:0004b1c8       ?OnCreateFinished@CFindPanel@@QEAA_NXZ 000000014004c1c8 f   FindPanel.obj
 0001:0004b2ec       ?OnCreateFont@CFindPanel@@IEAAXXZ 000000014004c2ec f   FindPanel.obj
 0001:0004b3f4       ?OnDestroy@CFindPanel@@IEAAXXZ 000000014004c3f4 f   FindPanel.obj
 0001:0004b464       ?OnKeyboard@CFindPanel@@IEAA_NI_K_JAEA_J@Z 000000014004c464 f   FindPanel.obj
 0001:0004b64c       ?OnSearch@CFindPanel@@IEAAXXZ 000000014004c64c f   FindPanel.obj
 0001:0004b6fc       ?OnSize@CFindPanel@@IEAAXPEAUtagRECT@@@Z 000000014004c6fc f   FindPanel.obj
 0001:0004b828       ?OnWindowPosChanging@CFindPanel@@IEAAXPEAUtagWINDOWPOS@@@Z 000000014004c828 f   FindPanel.obj
 0001:0004b88c       ?RegisterPaneClass@CFindPanel@@IEAA_NXZ 000000014004c88c f   FindPanel.obj
 0001:0004b924       ?ShowMenu@CFindPanel@@IEAAXXZ 000000014004c924 f   FindPanel.obj
 0001:0004bb20       ?StopSearch@CFindPanel@@IEAAXXZ 000000014004cb20 f   FindPanel.obj
 0001:0004bb70       ??$_Fill_unchecked1@PEAV?$_List_unchecked_iterator@V?$_List_val@U?$_List_simple_types@U?$pair@$$CBHG@std@@@std@@@std@@@std@@V12@@std@@YAXPEAV?$_List_unchecked_iterator@V?$_List_val@U?$_List_simple_types@U?$pair@$$CBHG@std@@@std@@@std@@@0@0AEBV10@U?$integral_constant@_N$0A@@0@@Z 000000014004cb70 f i Font.obj
 0001:0004bbf0       ??0?$_Hash@V?$_Umap_traits@HGV?$_Uhash_compare@HU?$hash@H@std@@U?$equal_to@H@2@@std@@V?$allocator@U?$pair@$$CBHG@std@@@2@$0A@@std@@@std@@QEAA@AEBV?$_Uhash_compare@HU?$hash@H@std@@U?$equal_to@H@2@@1@AEBV?$allocator@U?$pair@$$CBHG@std@@@1@@Z 000000014004cbf0 f i Font.obj
 0001:0004bc64       ??0CFont@@QEAA@PEAUHFONT__@@@Z 000000014004cc64 f   Font.obj
 0001:0004bd6c       ??0CFont@@QEAA@PEAVCustomFont@@@Z 000000014004cd6c f   Font.obj
 0001:0004be78       ??1?$_Hash@V?$_Umap_traits@HGV?$_Uhash_compare@HU?$hash@H@std@@U?$equal_to@H@2@@std@@V?$allocator@U?$pair@$$CBHG@std@@@2@$0A@@std@@@std@@QEAA@XZ 000000014004ce78 f i Font.obj
 0001:0004bf24       ??1?$list@U?$pair@$$CBHG@std@@V?$allocator@U?$pair@$$CBHG@std@@@2@@std@@QEAA@XZ 000000014004cf24 f i Font.obj
 0001:0004bf80       ??1?$unordered_map@HGU?$hash@H@std@@U?$equal_to@H@2@V?$allocator@U?$pair@$$CBHG@std@@@2@@std@@QEAA@XZ 000000014004cf80 f i Font.obj
 0001:0004bf88       ??1?$vector@V?$_List_unchecked_iterator@V?$_List_val@U?$_List_simple_types@U?$pair@$$CBHG@std@@@std@@@std@@@std@@V?$allocator@V?$_List_unchecked_iterator@V?$_List_val@U?$_List_simple_types@U?$pair@$$CBHG@std@@@std@@@std@@@std@@@2@@std@@QEAA@XZ 000000014004cf88 f i Font.obj
 0001:0004bfe4       ??1CFont@@MEAA@XZ          000000014004cfe4 f   Font.obj
 0001:0004c058       ??_ECFont@@MEAAPEAXI@Z     000000014004d058 f i Font.obj
 0001:0004c058       ??_GCFont@@MEAAPEAXI@Z     000000014004d058 f i Font.obj
 0001:0004c08c       ?Delete@CFont@@IEAA_NXZ    000000014004d08c f   Font.obj
 0001:0004c0d8       ?Equal@CFont@@QEBA_NPEBV1@@Z 000000014004d0d8 f   Font.obj
 0001:0004c104       ?IsSet@CFont@@QEBA_NXZ     000000014004d104 f   Font.obj
 0001:0004c128       ?ResetFontWidth@CFont@@QEAAXXZ 000000014004d128 f   Font.obj
 0001:0004c134       ?_Buynode0@?$_List_alloc@U?$_List_base_types@U?$pair@$$CBHG@std@@V?$allocator@U?$pair@$$CBHG@std@@@2@@std@@@std@@QEAAPEAU?$_List_node@U?$pair@$$CBHG@std@@PEAX@2@PEAU32@0@Z 000000014004d134 f i Font.obj
 0001:0004c180       ?_Change_array@?$vector@V?$_List_unchecked_iterator@V?$_List_val@U?$_List_simple_types@U?$pair@$$CBHG@std@@@std@@@std@@@std@@V?$allocator@V?$_List_unchecked_iterator@V?$_List_val@U?$_List_simple_types@U?$pair@$$CBHG@std@@@std@@@std@@@std@@@2@@std@@AEAAXQEAV?$_List_unchecked_iterator@V?$_List_val@U?$_List_simple_types@U?$pair@$$CBHG@std@@@std@@@std@@@2@_K1@Z 000000014004d180 f i Font.obj
 0001:0004c208       ?_Init@?$_Hash@V?$_Umap_traits@HGV?$_Uhash_compare@HU?$hash@H@std@@U?$equal_to@H@2@@std@@V?$allocator@U?$pair@$$CBHG@std@@@2@$0A@@std@@@std@@IEAAX_K@Z 000000014004d208 f i Font.obj
 0001:0004c298       ?_Reallocate_exactly@?$vector@V?$_List_unchecked_iterator@V?$_List_val@U?$_List_simple_types@U?$pair@$$CBHG@std@@@std@@@std@@@std@@V?$allocator@V?$_List_unchecked_iterator@V?$_List_val@U?$_List_simple_types@U?$pair@$$CBHG@std@@@std@@@std@@@std@@@2@@std@@AEAAX_K@Z 000000014004d298 f i Font.obj
 0001:0004c324       ?allocate@?$allocator@V?$_List_unchecked_iterator@V?$_List_val@U?$_List_simple_types@U?$pair@$$CBHG@std@@@std@@@std@@@std@@@std@@QEAAPEAV?$_List_unchecked_iterator@V?$_List_val@U?$_List_simple_types@U?$pair@$$CBHG@std@@@std@@@std@@@2@_K@Z 000000014004d324 f i Font.obj
 0001:0004c390       ?assign@?$vector@V?$_List_unchecked_iterator@V?$_List_val@U?$_List_simple_types@U?$pair@$$CBHG@std@@@std@@@std@@@std@@V?$allocator@V?$_List_unchecked_iterator@V?$_List_val@U?$_List_simple_types@U?$pair@$$CBHG@std@@@std@@@std@@@std@@@2@@std@@QEAAX_KAEBV?$_List_unchecked_iterator@V?$_List_val@U?$_List_simple_types@U?$pair@$$CBHG@std@@@std@@@std@@@2@@Z 000000014004d390 f i Font.obj
 0001:0004c4f8       ?clear@?$_Hash@V?$_Umap_traits@HGV?$_Uhash_compare@HU?$hash@H@std@@U?$equal_to@H@2@@std@@V?$allocator@U?$pair@$$CBHG@std@@@2@$0A@@std@@@std@@QEAAXXZ 000000014004d4f8 f i Font.obj
 0001:0004c55c       ?deallocate@?$allocator@U?$_List_node@U?$pair@$$CBHG@std@@PEAX@std@@@std@@QEAAXQEAU?$_List_node@U?$pair@$$CBHG@std@@PEAX@2@_K@Z 000000014004d55c f i Font.obj
 0001:0004c5a0       ?deallocate@?$allocator@V?$_List_unchecked_iterator@V?$_List_val@U?$_List_simple_types@U?$pair@$$CBHG@std@@@std@@@std@@@std@@@std@@QEAAXQEAV?$_List_unchecked_iterator@V?$_List_val@U?$_List_simple_types@U?$pair@$$CBHG@std@@@std@@@std@@@2@_K@Z 000000014004d5a0 f i Font.obj
 0001:0004c5e4       ??$_Emplace_reallocate@AEBUFontHeightInfo@@@?$vector@UFontHeightInfo@@V?$MArrayAllocator@UFontHeightInfo@@@@@std@@QEAAPEAUFontHeightInfo@@QEAU2@AEBU2@@Z 000000014004d5e4 f i FontMgr.obj
 0001:0004c790       ??$_Emplace_reallocate@AEBURegFont@@@?$vector@URegFont@@V?$MArrayAllocator@URegFont@@@@@std@@QEAAPEAURegFont@@QEAU2@AEBU2@@Z 000000014004d790 f i FontMgr.obj
 0001:0004c9a4       ??$emplace_back@AEBURegFont@@@?$vector@URegFont@@V?$MArrayAllocator@URegFont@@@@@std@@QEAAXAEBURegFont@@@Z 000000014004d9a4 f i FontMgr.obj
 0001:0004ca5c       ??0CFontMgr@@QEAA@XZ       000000014004da5c f   FontMgr.obj
 0001:0004cbe0       ??0CLogFont@@QEAA@PEB_WJJJEE@Z 000000014004dbe0 f i FontMgr.obj
 0001:0004ccc0       ??1CFontMgr@@QEAA@XZ       000000014004dcc0 f   FontMgr.obj
 0001:0004ce0c       ??_FCFontPtr@@QEAAXXZ      000000014004de0c f i FontMgr.obj
 0001:0004ce14       ?AutoRecreateFont@CFontMgr@@QEAA_NHH@Z 000000014004de14 f   FontMgr.obj
 0001:0004cf3c       ?BorderFontCharSet@CFontMgr@@QEAAEXZ 000000014004df3c f   FontMgr.obj
 0001:0004cf98       ?BorderFontFaceName@CFontMgr@@QEAAPEB_WXZ 000000014004df98 f   FontMgr.obj
 0001:0004cfd8       ?BorderFontHeight@CFontMgr@@QEAAJXZ 000000014004dfd8 f   FontMgr.obj
 0001:0004d034       ?BorderFontWidth@CFontMgr@@QEAAJXZ 000000014004e034 f   FontMgr.obj
 0001:0004d090       ?Create@CFontMgr@@QEAA_NUCLogFont@@AEAVCFontPtr@@PEAPEAVCustomFontFamily@@@Z 000000014004e090 f   FontMgr.obj
 0001:0004d7cc       ?CreateFontGroup@CFontMgr@@AEAA_NUCLogFont@@@Z 000000014004e7cc f   FontMgr.obj
 0001:0004dc40       ?CreateOtherFont@CFontMgr@@QEAA_NPEB_WAEAVCFontPtr@@@Z 000000014004ec40 f   FontMgr.obj
 0001:0004dd14       ?EvalFontHeight@CFontMgr@@QEAAJPEB_WJE@Z 000000014004ed14 f   FontMgr.obj
 0001:0004dfb4       ?EvalLogfontSizes@CFontMgr@@QEAAXAEAUtagLOGFONTW@@JJ@Z 000000014004efb4 f   FontMgr.obj
 0001:0004e030       ?FindCustomFont@CFontMgr@@AEAA_NPEB_WHHHHPEAPEAVCustomFontFamily@@PEAPEAVCustomFont@@@Z 000000014004f030 f   FontMgr.obj
 0001:0004e154       ?FontBold@CFontMgr@@QEAAHXZ 000000014004f154 f   FontMgr.obj
 0001:0004e164       ?FontCellWidth@CFontMgr@@QEAAJXZ 000000014004f164 f   FontMgr.obj
 0001:0004e16c       ?FontCharSet@CFontMgr@@QEAAEXZ 000000014004f16c f   FontMgr.obj
 0001:0004e174       ?FontFaceName@CFontMgr@@QEAAPEB_WXZ 000000014004f174 f   FontMgr.obj
 0001:0004e17c       ?FontHeight@CFontMgr@@QEAAJXZ 000000014004f17c f   FontMgr.obj
 0001:0004e228       ?FontHeightHtml@CFontMgr@@QEAAJXZ 000000014004f228 f   FontMgr.obj
 0001:0004e2d0       ?FontItalic@CFontMgr@@QEAAHXZ 000000014004f2d0 f   FontMgr.obj
 0001:0004e2dc       ?FontMonospaced@CFontMgr@@QEAA_NXZ 000000014004f2dc f   FontMgr.obj
 0001:0004e318       ?FontPtrRegister@CFontMgr@@IEAAXPEAVCFont@@@Z 000000014004f318 f   FontMgr.obj
 0001:0004e348       ?FontPtrUnregister@CFontMgr@@IEAAXPEAVCFont@@@Z 000000014004f348 f   FontMgr.obj
 0001:0004e3c4       ?FontQuality@CFontMgr@@QEAAEXZ 000000014004f3c4 f   FontMgr.obj
 0001:0004e3cc       ?FontWidth@CFontMgr@@QEAAJXZ 000000014004f3cc f   FontMgr.obj
 0001:0004e460       ?GetFontNameFromFile@CFontMgr@@QEAAHPEB_WAEAY0CA@_W1@Z 000000014004f460 f   FontMgr.obj
 0001:0004e52c       ?GetFontNameFromFile_BDF@CFontMgr@@QEAAHPEB_WAEAY0CA@_W1@Z 000000014004f52c f   FontMgr.obj
 0001:0004e57c       ?GetFontNameFromFile_OTF@CFontMgr@@QEAAHPEB_WAEAY0CA@_W1@Z 000000014004f57c f   FontMgr.obj
 0001:0004eb28       ?GetFontNameFromFile_TTF@CFontMgr@@QEAAHPEB_WAEAY0CA@_W1@Z 000000014004fb28 f   FontMgr.obj
 0001:0004f21c       ?GetMainLogFont@CFontMgr@@QEAAXAEAUtagLOGFONTW@@@Z 000000014005021c f   FontMgr.obj
 0001:0004f268       ?GetZoom@CFontMgr@@QEAAJ_N@Z 0000000140050268 f   FontMgr.obj
 0001:0004f28c       ?InitFont@CFontMgr@@QEAAXPEB_WHH@Z 000000014005028c f   FontMgr.obj
 0001:0004f5b4       ?IsAlmostMonospace@CFontMgr@@SA_NPEB_WPEAUtagTEXTMETRICW@@PEAU_OUTLINETEXTMETRICW@@@Z 00000001400505b4 f   FontMgr.obj
 0001:0004f6e8       ?LoadOutline@CFontMgr@@SAPEAU_OUTLINETEXTMETRICW@@PEAUHDC__@@PEAUHFONT__@@@Z 00000001400506e8 f   FontMgr.obj
 0001:0004f7e8       ?MacroFontSetName@CFontMgr@@QEAAXPEB_WGG@Z 00000001400507e8 f   FontMgr.obj
 0001:0004fa0c       ?MacroFontSetSize@CFontMgr@@QEAA_NHH@Z 0000000140050a0c f   FontMgr.obj
 0001:0004fedc       ?MacroFontSetSizeInt@CFontMgr@@AEAA_NAEAUtagLOGFONTW@@HH@Z 0000000140050edc f   FontMgr.obj
 0001:000500e8       ?QueryFont@CFontMgr@@QEAA_NW4CEFontStyles@@PEAVCVirtualConsole@@AEAVCFontPtr@@@Z 00000001400510e8 f   FontMgr.obj
 0001:0005019c       ?RecreateAlternativeFont@CFontMgr@@AEAAXXZ 000000014005119c f   FontMgr.obj
 0001:000505a0       ?RecreateFont@CFontMgr@@AEAAX_N0@Z 00000001400515a0 f   FontMgr.obj
 0001:00050a00       ?RecreateFontByDpi@CFontMgr@@QEAA_NHHPEAUtagRECT@@@Z 0000000140051a00 f   FontMgr.obj
 0001:00050a94       ?RegisterFont@CFontMgr@@QEAAHPEB_WH@Z 0000000140051a94 f   FontMgr.obj
 0001:000512d4       ?RegisterFonts@CFontMgr@@QEAAXXZ 00000001400522d4 f   FontMgr.obj
 0001:000513f4       ?RegisterFontsDir@CFontMgr@@QEAAXPEB_W@Z 00000001400523f4 f   FontMgr.obj
 0001:00051654       ?ResetFontWidth@CFontMgr@@AEAAXXZ 0000000140052654 f   FontMgr.obj
 0001:000516c4       ?SaveFontSizes@CFontMgr@@AEAAX_N0@Z 00000001400526c4 f   FontMgr.obj
 0001:000517d4       ?SettingsLoaded@CFontMgr@@QEAAXK@Z 00000001400527d4 f   FontMgr.obj
 0001:0005193c       ?SettingsPreSave@CFontMgr@@QEAAXXZ 000000014005293c f   FontMgr.obj
 0001:000519c4       ?UnregisterFonts@CFontMgr@@QEAAXXZ 00000001400529c4 f   FontMgr.obj
 0001:00051a90       ?erase@?$MArray@URegFont@@@@QEAAX_J0@Z 0000000140052a90 f i FontMgr.obj
 0001:00051b20       ?push_back@?$MArray@UFontHeightInfo@@@@QEAA_JAEBUFontHeightInfo@@@Z 0000000140052b20 f i FontMgr.obj
 0001:00051bac       ??0CFontPtr@@QEAA@PEAVCFont@@@Z 0000000140052bac f   FontPtr.obj
 0001:00051bc8       ??1CFontPtr@@QEAA@XZ       0000000140052bc8 f   FontPtr.obj
 0001:00051be0       ??4CFontPtr@@QEAAAEAV0@PEAVCFont@@@Z 0000000140052be0 f   FontPtr.obj
 0001:00051bf8       ?Ptr@CFontPtr@@QEBAPEAVCFont@@XZ 0000000140052bf8 f   FontPtr.obj
 0001:00051bf8       ??CCFontPtr@@QEBAPEAVCFont@@XZ 0000000140052bf8 f   FontPtr.obj
 0001:00051bf8       ??BMBSTR@@QEBAPEA_WXZ      0000000140052bf8 f   common-user64:MBSTR.obj
 0001:00051bf8       ??BCEStrA@@QEBAPEBDXZ      0000000140052bf8 f   common-kernel64:CEStr.obj
 0001:00051bf8       ??BCFontPtr@@QEBAPEAVCFont@@XZ 0000000140052bf8 f   FontPtr.obj
 0001:00051bf8       ??BCEStr@@QEBAPEB_WXZ      0000000140052bf8 f   common-kernel64:CEStr.obj
 0001:00051bfc       ?Attach@CFontPtr@@QEAA_NPEAVCFont@@@Z 0000000140052bfc f   FontPtr.obj
 0001:00051c6c       ?Equal@CFontPtr@@QEBA_NPEBVCFont@@@Z 0000000140052c6c f   FontPtr.obj
 0001:00051c84       ?IsSet@CFontPtr@@QEBA_NXZ  0000000140052c84 f   FontPtr.obj
 0001:00051ca8       ?Release@CFontPtr@@QEAAHXZ 0000000140052ca8 f   FontPtr.obj
 0001:00051cf4       ??0CFrameHolder@@QEAA@XZ   0000000140052cf4 f   FrameHolder.obj
 0001:00051d40       ??1CFrameHolder@@UEAA@XZ   0000000140052d40 f   FrameHolder.obj
 0001:00051d50       ??_GCFrameHolder@@UEAAPEAXI@Z 0000000140052d50 f i FrameHolder.obj
 0001:00051d50       ??_ECFrameHolder@@UEAAPEAXI@Z 0000000140052d50 f i FrameHolder.obj
 0001:00051d80       ?DoNcHitTest@CFrameHolder@@IEAA_JAEBUtagPOINT@@HH_J@Z 0000000140052d80 f   FrameHolder.obj
 0001:00052074       ?GetWinCaptionHeight@CFrameHolder@@QEAAIXZ 0000000140053074 f   FrameHolder.obj
 0001:00052084       ?GetWinFrameWidth@CFrameHolder@@QEAAIXZ 0000000140053084 f   FrameHolder.obj
 0001:0005209c       ?InitFrameHolder@CFrameHolder@@QEAAXXZ 000000014005309c f   FrameHolder.obj
 0001:000520a8       ?NC_Redraw@CFrameHolder@@IEAAXXZ 00000001400530a8 f   FrameHolder.obj
 0001:00052100       ?OnDwmCompositionChanged@CFrameHolder@@IEAA_NPEAUHWND__@@I_K_JAEA_J@Z 0000000140053100 f   FrameHolder.obj
 0001:00052194       ?OnKeyboardMessage@CFrameHolder@@IEAA_NPEAUHWND__@@I_K_JAEA_J@Z 0000000140053194 f   FrameHolder.obj
 0001:00052200       ?OnMouseMessage@CFrameHolder@@IEAA_NPEAUHWND__@@I_K_JAEA_J@Z 0000000140053200 f   FrameHolder.obj
 0001:00052318       ?OnNcActivate@CFrameHolder@@IEAA_NPEAUHWND__@@I_K_JAEA_J@Z 0000000140053318 f   FrameHolder.obj
 0001:0005241c       ?OnNcCalcSize@CFrameHolder@@IEAA_NPEAUHWND__@@I_K_JAEA_J@Z 000000014005341c f   FrameHolder.obj
 0001:000526b4       ?OnNcHitTest@CFrameHolder@@IEAA_NPEAUHWND__@@I_K_JAEA_J@Z 00000001400536b4 f   FrameHolder.obj
 0001:000527ac       ?OnNcLButtonDblClk@CFrameHolder@@IEAA_NPEAUHWND__@@I_K_JAEA_J@Z 00000001400537ac f   FrameHolder.obj
 0001:00052850       ?OnNcMouseMessage@CFrameHolder@@IEAA_NPEAUHWND__@@I_K_JAEA_J@Z 0000000140053850 f   FrameHolder.obj
 0001:000529d4       ?OnNcPaint@CFrameHolder@@IEAA_NPEAUHWND__@@I_K_JAEA_J@Z 00000001400539d4 f   FrameHolder.obj
 0001:00052aa0       ?OnNcUahDrawCaption@CFrameHolder@@IEAA_NPEAUHWND__@@I_K_JAEA_J@Z 0000000140053aa0 f   FrameHolder.obj
 0001:00052b64       ?OnNcUahDrawFrame@CFrameHolder@@IEAA_NPEAUHWND__@@I_K_JAEA_J@Z 0000000140053b64 f   FrameHolder.obj
 0001:00052c28       ?OnPaint@CFrameHolder@@IEAA_NPEAUHWND__@@PEAUHDC__@@IAEA_J@Z 0000000140053c28 f   FrameHolder.obj
 0001:00052e28       ?OnSysCommand@CFrameHolder@@IEAA_NPEAUHWND__@@I_K_JAEA_J@Z 0000000140053e28 f   FrameHolder.obj
 0001:00052ed8       ?ProcessNcMessage@CFrameHolder@@QEAA_NPEAUHWND__@@I_K_JAEA_J@Z 0000000140053ed8 f   FrameHolder.obj
 0001:0005306c       ?RecalculateFrameSizes@CFrameHolder@@QEAAXXZ 000000014005406c f   FrameHolder.obj
 0001:000530f8       ?RedrawFrame@CFrameHolder@@QEAAXXZ 00000001400540f8 f   FrameHolder.obj
 0001:00053108       ?SetAllowPreserveClient@CFrameHolder@@QEAA_N_N@Z 0000000140054108 f   FrameHolder.obj
 0001:00053110       ?SetDontPreserveClient@CFrameHolder@@QEAA_N_N@Z 0000000140054110 f   FrameHolder.obj
 0001:00053118       ?SetFrameActiveState@CFrameHolder@@QEAAX_N@Z 0000000140054118 f   FrameHolder.obj
 0001:00053134       ?isInNcPaint@CFrameHolder@@QEAA_NXZ 0000000140054134 f   FrameHolder.obj
 0001:0005313c       ??0HandleMonitor@@QEAA@XZ  000000014005413c f   GdiObjects.obj
 0001:00053148       ?DoCheck@HandleMonitor@@QEAAXXZ 0000000140054148 f   GdiObjects.obj
 0001:00053234       ??$swprintf_c@$0DM@@@YAHAEAY0DM@_WPEB_WZZ 0000000140054234 f i GestureEngine.obj
 0001:00053260       ??0CGestures@@QEAA@XZ      0000000140054260 f   GestureEngine.obj
 0001:00053328       ??1CGestures@@UEAA@XZ      0000000140054328 f   GestureEngine.obj
 0001:00053334       ??_GCGestures@@UEAAPEAXI@Z 0000000140054334 f i GestureEngine.obj
 0001:00053334       ??_ECGestures@@UEAAPEAXI@Z 0000000140054334 f i GestureEngine.obj
 0001:00053360       ?DumpGesture@CGestures@@AEAAXPEB_WAEBUtagGESTUREINFO@@@Z 0000000140054360 f   GestureEngine.obj
 0001:0005353c       ?IsGesturesEnabled@CGestures@@QEAA_NXZ 000000014005453c f   GestureEngine.obj
 0001:0005358c       ?ProcessGestureMessage@CGestures@@UEAA_NPEAUHWND__@@I_K_JAEA_J@Z 000000014005458c f   GestureEngine.obj
 0001:00053a7c       ?ProcessMove@CGestures@@UEAA_NPEAUHWND__@@JJ@Z 0000000140054a7c f   GestureEngine.obj
 0001:00053bb0       ?ProcessPressAndTap@CGestures@@UEAAXPEAUHWND__@@JJFF@Z 0000000140054bb0 f   GestureEngine.obj
 0001:00053bb0       ?ProcessTwoFingerTap@CGestures@@UEAAXPEAUHWND__@@JJK@Z 0000000140054bb0 f   GestureEngine.obj
 0001:00053bb8       ?ProcessRotate@CGestures@@UEAA_NPEAUHWND__@@JJJ_N@Z 0000000140054bb8 f   GestureEngine.obj
 0001:00053c44       ?ProcessZoom@CGestures@@UEAAXPEAUHWND__@@NJJ@Z 0000000140054c44 f   GestureEngine.obj
 0001:00053ccc       ?SendRClick@CGestures@@AEAAXPEAUHWND__@@JJ@Z 0000000140054ccc f   GestureEngine.obj
 0001:00053dd0       ??0CGuiServer@@QEAA@XZ     0000000140054dd0 f   GuiServer.obj
 0001:00053e64       ??1CGuiServer@@QEAA@XZ     0000000140054e64 f   GuiServer.obj
 0001:00053fa8       ?DumpError@?$PipeServer@UCESERVER_REQ@@@@IEAAXPEAUPipeInst@1@PEB_WH@Z 0000000140054fa8 f i GuiServer.obj
 0001:000540bc       ?GuiServerCommand@CGuiServer@@KAHPEAXPEAUCESERVER_REQ@@AEAPEAU2@AEAK3_J@Z 00000001400550bc f   GuiServer.obj
 0001:00054c00       ?GuiServerFree@CGuiServer@@KAXPEAUCESERVER_REQ@@_J@Z 0000000140055c00 f   GuiServer.obj
 0001:00054c00       ?ServerCommandFree@CRealServer@@KAXPEAUCESERVER_REQ@@_J@Z 0000000140055c00 f   RealServer.obj
 0001:00054c90       ?PipeServerRead@?$PipeServer@UCESERVER_REQ@@@@IEAAHPEAUPipeInst@1@@Z 0000000140055c90 f i GuiServer.obj
 0001:00054f20       ?PipeServerThread@?$PipeServer@UCESERVER_REQ@@@@IEAAKPEAUPipeInst@1@@Z 0000000140055f20 f i GuiServer.obj
 0001:000551f0       ?PipeServerWrite@?$PipeServer@UCESERVER_REQ@@@@IEAAHPEAUPipeInst@1@PEBXKPEAKH@Z 00000001400561f0 f i GuiServer.obj
 0001:0005531c       ?Start@CGuiServer@@QEAA_NXZ 000000014005631c f   GuiServer.obj
 0001:00055450       ?StartPipeInstance@?$PipeServer@UCESERVER_REQ@@@@IEAA_NPEAUPipeInst@1@@Z 0000000140056450 f i GuiServer.obj
 0001:000555dc       ?StartPipeServer@?$PipeServer@UCESERVER_REQ@@@@QEAA_N_NPEB_W_JPEAU_SECURITY_ATTRIBUTES@@P6AHPEAXPEAUCESERVER_REQ@@AEAPEAU3@AEAK72@ZP6AX52@ZP6AH42@ZP6AH42@ZP6AH42@Z@Z 00000001400565dc f i GuiServer.obj
 0001:00055768       ?Stop@CGuiServer@@QEAAX_N@Z 0000000140056768 f   GuiServer.obj
 0001:00055844       ?StopPipeServer@?$PipeServer@UCESERVER_REQ@@@@QEAAX_NAEA_N@Z 0000000140056844 f i GuiServer.obj
 0001:00055b90       ?TerminatePipeThread@?$PipeServer@UCESERVER_REQ@@@@KAXAEAPEAXAEBUPipeInst@1@AEA_N@Z 0000000140056b90 f i GuiServer.obj
 0001:00055bfc       ?WaitForClient@?$PipeServer@UCESERVER_REQ@@@@IEAA_NPEAUPipeInst@1@AEAH1@Z 0000000140056bfc f i GuiServer.obj
 0001:00055f14       ?WaitOverlapped@?$PipeServer@UCESERVER_REQ@@@@IEAAHPEAUPipeInst@1@PEAK@Z 0000000140056f14 f i GuiServer.obj
 0001:000560e8       ?WriteDummyAnswer@?$PipeServer@UCESERVER_REQ@@@@IEAAHPEAUPipeInst@1@@Z 00000001400570e8 f i GuiServer.obj
 0001:00056168       ?_PipeServerThread@?$PipeServer@UCESERVER_REQ@@@@KAKPEAX@Z 0000000140057168 f i GuiServer.obj
 0001:000561c4       ?HooksUnlockerProc@@YA_N_N@Z 00000001400571c4 f   HooksUnlocker.obj
 0001:0005620c       ?Compare@ConEmuChord@@CA_NKK@Z 000000014005720c f   HotkeyChord.obj
 0001:000562dc       ?GetFlagsFromMod@CEVkMatch@@SAKK@Z 00000001400572dc f   HotkeyChord.obj
 0001:00056324       ?GetMatchByVk@CEVkMatch@@SA_NEAEAU1@@Z 0000000140057324 f   HotkeyChord.obj
 0001:00056440       ?GetModifiers@ConEmuChord@@QEBAIAEAY02E@Z 0000000140057440 f   HotkeyChord.obj
 0001:000564b0       ?IsEmpty@ConEmuChord@@QEBA_NXZ 00000001400574b0 f   HotkeyChord.obj
 0001:000564b8       ?IsEqual@ConEmuChord@@QEBA_NAEBU1@@Z 00000001400574b8 f   HotkeyChord.obj
 0001:000564c4       ?IsEqual@ConEmuChord@@QEBA_NEK@Z 00000001400574c4 f   HotkeyChord.obj
 0001:00056504       ?Set@ConEmuChord@@QEAAXEK@Z 0000000140057504 f   HotkeyChord.obj
 0001:0005650c       ??0CHotKeyDialog@@QEAA@PEAUHWND__@@K@Z 000000014005750c f   HotkeyDlg.obj
 0001:00056578       ??1CHotKeyDialog@@QEAA@XZ  0000000140057578 f   HotkeyDlg.obj
 0001:00056584       ?EditHotKey@CHotKeyDialog@@SA_NPEAUHWND__@@AEAK@Z 0000000140057584 f   HotkeyDlg.obj
 0001:00056624       ?FillModifierBoxes@CHotKeyDialog@@SAXAEBUConEmuHotKey@@PEAUHWND__@@@Z 0000000140057624 f   HotkeyDlg.obj
 0001:0005668c       ?SetHotkeyField@CHotKeyDialog@@SAXPEAUHWND__@@E@Z 000000014005768c f   HotkeyDlg.obj
 0001:000566c0       ?dlgGetHotkey@CHotKeyDialog@@SAKPEAUHWND__@@II@Z 00000001400576c0 f   HotkeyDlg.obj
 0001:000567b0       ?hkDlgProc@CHotKeyDialog@@SA_JPEAUHWND__@@I_K_J@Z 00000001400577b0 f   HotkeyDlg.obj
 0001:00056b5c       ??$_Emplace_reallocate@AEBUConEmuHotKey@@@?$vector@UConEmuHotKey@@V?$MArrayAllocator@UConEmuHotKey@@@@@std@@QEAAPEAUConEmuHotKey@@QEAU2@AEBU2@@Z 0000000140057b5c f i HotkeyList.obj
 0001:00056d64       ??$emplace_back@AEBUConEmuHotKey@@@?$vector@UConEmuHotKey@@V?$MArrayAllocator@UConEmuHotKey@@@@@std@@QEAAXAEBUConEmuHotKey@@@Z 0000000140057d64 f i HotkeyList.obj
 0001:00056e00       ?Add@ConEmuHotKeyList@@IEAAPEAUConEmuHotKey@@HW4ConEmuHotKeyType@@P6A_NXZPEB_WP6A_NAEBUConEmuChord@@_NPEBU2@PEAVCRealConsole@@@Z42@Z 0000000140057e00 f   HotkeyList.obj
 0001:00056ef4       ?AllocateHotkeys@ConEmuHotKeyList@@QEAAHXZ 0000000140057ef4 f   HotkeyList.obj
 0001:0005a098       ?FindHotKey@ConEmuHotKeyList@@QEAAPEBUConEmuHotKey@@AEBUConEmuChord@@PEAVCRealConsole@@@Z 000000014005b098 f   HotkeyList.obj
 0001:0005a170       ?GetHotKeyInfo@ConEmuHotKeyList@@QEAAPEBUConEmuHotKey@@AEBUConEmuChord@@_NPEAVCRealConsole@@@Z 000000014005b170 f   HotkeyList.obj
 0001:0005a19c       ?GetHotKeyPtr@ConEmuHotKeyList@@QEAAPEBUConEmuHotKey@@H@Z 000000014005b19c f   HotkeyList.obj
 0001:0005a210       ?ReleaseHotkeys@ConEmuHotKeyList@@QEAAXXZ 000000014005b210 f   HotkeyList.obj
 0001:0005a2a0       ?UpdateArrowModifier@ConEmuHotKeyList@@QEAAXXZ 000000014005b2a0 f   HotkeyList.obj
 0001:0005a320       ?UpdateNumberModifier@ConEmuHotKeyList@@QEAAXXZ 000000014005b320 f   HotkeyList.obj
 0001:0005a3a0       ?CanChangeVK@ConEmuHotKey@@QEBA_NXZ 000000014005b3a0 f   Hotkeys.obj
 0001:0005a3b8       ?CreateNotUniqueWarning@ConEmuHotKey@@SAPEB_WPEB_W00AEAUCEStr@@@Z 000000014005b3b8 f   Hotkeys.obj
 0001:0005a4c0       ?Equal@ConEmuHotKey@@QEAA_NEEEE@Z 000000014005b4c0 f   Hotkeys.obj
 0001:0005a504       ?GetDescription@ConEmuHotKey@@QEBAPEB_WPEA_WH_N@Z 000000014005b504 f   Hotkeys.obj
 0001:0005a820       ?GetHotKeyMod@ConEmuHotKey@@SAKK@Z 000000014005b820 f   Hotkeys.obj
 0001:0005a8a4       ?GetHotkey@ConEmuHotKey@@SAKK@Z 000000014005b8a4 f   Hotkeys.obj
 0001:0005a8a8       ?GetHotkeyName@ConEmuHotKey@@QEBAPEB_WAEAY0IA@_W_N@Z 000000014005b8a8 f   Hotkeys.obj
 0001:0005aa44       ?GetHotkeyName@ConEmuHotKey@@SAPEB_WKAEAY0IA@_W_N@Z 000000014005ba44 f   Hotkeys.obj
 0001:0005aad0       ?GetModifier@ConEmuHotKey@@SAKKH@Z 000000014005bad0 f   Hotkeys.obj
 0001:0005ab48       ?GetTaskIndex@ConEmuHotKey@@QEBAHXZ 000000014005bb48 f   Hotkeys.obj
 0001:0005ab5c       ?GetVkByKeyName@ConEmuHotKey@@SAIPEB_WPEAHPEAK@Z 000000014005bb5c f   Hotkeys.obj
 0001:0005ac80       ?GetVkKeyName@ConEmuHotKey@@SAXEAEAY0CA@_W_N@Z 000000014005bc80 f   Hotkeys.obj
 0001:0005afb8       ?GetVkMod@ConEmuHotKey@@QEBAKXZ 000000014005bfb8 f   Hotkeys.obj
 0001:0005b084       ?HasModifier@ConEmuHotKey@@SA_NKE@Z 000000014005c084 f   Hotkeys.obj
 0001:0005b0d8       ?InSelection@ConEmuHotKey@@SA_NXZ 000000014005c0d8 f   Hotkeys.obj
 0001:0005b138       ?MakeHotKey@ConEmuHotKey@@SAKEEEE@Z 000000014005c138 f   Hotkeys.obj
 0001:0005b190       ?SetHotKey@ConEmuHotKey@@QEAAXEEEE@Z 000000014005c190 f   Hotkeys.obj
 0001:0005b1c4       ?SetModifier@ConEmuHotKey@@SAKKE_N@Z 000000014005c1c4 f   Hotkeys.obj
 0001:0005b344       ?SetTaskIndex@ConEmuHotKey@@QEAAXH@Z 000000014005c344 f   Hotkeys.obj
 0001:0005b354       ?SetVkMod@ConEmuHotKey@@QEAAXK@Z 000000014005c354 f   Hotkeys.obj
 0001:0005b3c8       ?TestHostkeyModifiers@ConEmuHotKey@@SAXAEAK@Z 000000014005c3c8 f   Hotkeys.obj
 0001:0005b548       ?UseCTSShiftArrow@ConEmuHotKey@@SA_NXZ 000000014005c548 f   Hotkeys.obj
 0001:0005b5ec       ?UseCtrlBS@ConEmuHotKey@@SA_NXZ 000000014005c5ec f   Hotkeys.obj
 0001:0005b614       ?UseCtrlTab@ConEmuHotKey@@SA_NXZ 000000014005c614 f   Hotkeys.obj
 0001:0005b624       ?UseDndLKey@ConEmuHotKey@@SA_NXZ 000000014005c624 f   Hotkeys.obj
 0001:0005b634       ?UseDndRKey@ConEmuHotKey@@SA_NXZ 000000014005c634 f   Hotkeys.obj
 0001:0005b648       ?UsePromptFind@ConEmuHotKey@@SA_NXZ 000000014005c648 f   Hotkeys.obj
 0001:0005b728       ?UseWinArrows@ConEmuHotKey@@SA_NXZ 000000014005c728 f   Hotkeys.obj
 0001:0005b738       ?UseWinNumber@ConEmuHotKey@@SA_NXZ 000000014005c738 f   Hotkeys.obj
 0001:0005b768       ?UseWndDragKey@ConEmuHotKey@@SA_NXZ 000000014005c768 f   Hotkeys.obj
 0001:0005b778       ??0CIconList@@QEAA@XZ      000000014005c778 f   IconList.obj
 0001:0005b7f0       ??1CIconList@@QEAA@XZ      000000014005c7f0 f   IconList.obj
 0001:0005b8a8       ?CreateTabIcon@CIconList@@QEAAHPEB_W_N0@Z 000000014005c8a8 f   IconList.obj
 0001:0005ba90       ?CreateTabIconInt@CIconList@@IEAAHPEB_W_N0@Z 000000014005ca90 f   IconList.obj
 0001:0005bfe8       ?GetIconInfoStr@CIconList@@SAPEB_WPEAUHICON__@@AEAY0FA@_W@Z 000000014005cfe8 f   IconList.obj
 0001:0005c0a0       ?GetTabIcon@CIconList@@QEAAH_N@Z 000000014005d0a0 f   IconList.obj
 0001:0005c0cc       ?GetTabIconByIndex@CIconList@@QEAAPEAUHICON__@@H@Z 000000014005d0cc f   IconList.obj
 0001:0005c0ec       ?Initialize@CIconList@@QEAA_NXZ 000000014005d0ec f   IconList.obj
 0001:0005c364       ?IsInitialized@CIconList@@QEAA_NXZ 000000014005d364 f   IconList.obj
 0001:0005c370       ?ParseIconFileIndex@CIconList@@SAPEB_WAEAUCEStr@@AEAH@Z 000000014005d370 f   IconList.obj
 0001:0005c404       ??$SafeDelete@VCToolImg@@@@YAXAEAPEAVCToolImg@@@Z 000000014005d404 f i ImgButton.obj
 0001:0005c44c       ??$_Emplace_reallocate@AEBUBtnInfo@@@?$vector@UBtnInfo@@V?$MArrayAllocator@UBtnInfo@@@@@std@@QEAAPEAUBtnInfo@@QEAU2@AEBU2@@Z 000000014005d44c f i ImgButton.obj
 0001:0005c60c       ??0CImgButtons@@QEAA@PEAUHWND__@@HH@Z 000000014005d60c f   ImgButton.obj
 0001:0005c654       ??1CImgButtons@@QEAA@XZ    000000014005d654 f   ImgButton.obj
 0001:0005c748       ?Add@CImgButtons@@IEAAXPEB_WP6APEAVCToolImg@@XZI0P6AXXZ@Z 000000014005d748 f   ImgButton.obj
 0001:0005c800       ?AddDonateButtons@CImgButtons@@QEAAXXZ 000000014005d800 f   ImgButton.obj
 0001:0005c848       ?GetBtnInfo@CImgButtons@@IEAA_NIPEAPEAUBtnInfo@@@Z 000000014005d848 f   ImgButton.obj
 0001:0005c8ac       ?ImplementButtons@CImgButtons@@IEAAXXZ 000000014005d8ac f   ImgButton.obj
 0001:0005ca9c       ?Process@CImgButtons@@QEAA_NPEAUHWND__@@I_K_JAEA_J@Z 000000014005da9c f   ImgButton.obj
 0001:0005cbb8       ?RegisterTip@CImgButtons@@IEAAXXZ 000000014005dbb8 f   ImgButton.obj
 0001:0005cd7c       ?push_back@?$MArray@UBtnInfo@@@@QEAA_JAEBUBtnInfo@@@Z 000000014005dd7c f i ImgButton.obj
 0001:0005ce08       ??0CConEmuInside@@QEAA@XZ  000000014005de08 f   Inside.obj
 0001:0005cea0       ??1CConEmuInside@@UEAA@XZ  000000014005dea0 f   Inside.obj
 0001:0005cf08       ??_GCConEmuInside@@UEAAPEAXI@Z 000000014005df08 f i Inside.obj
 0001:0005cf08       ??_ECConEmuInside@@UEAAPEAXI@Z 000000014005df08 f i Inside.obj
 0001:0005cf9c       ?CheckInsideFocus@CConEmuInside@@QEAAPEAUHWND__@@XZ 000000014005df9c f   Inside.obj
 0001:0005d15c       ?EnumInsideFindParent@CConEmuInside@@CAHPEAUHWND__@@_J@Z 000000014005e15c f   Inside.obj
 0001:0005d1c8       ?GetInsideRect@CConEmuInside@@QEAA_NPEAUtagRECT@@@Z 000000014005e1c8 f   Inside.obj
 0001:0005d318       ?GetParentRoot@CConEmuInside@@QEAAPEAUHWND__@@XZ 000000014005e318 f   Inside.obj
 0001:0005d370       ?InitInside@CConEmuInside@@SA_N_N0PEB_WKPEAUHWND__@@@Z 000000014005e370 f   Inside.obj
 0001:0005d46c       ?InsideFindConEmu@CConEmuInside@@AEAAPEAUHWND__@@PEAU2@@Z 000000014005e46c f   Inside.obj
 0001:0005d51c       ?InsideFindParent@CConEmuInside@@QEAAPEAUHWND__@@XZ 000000014005e51c f   Inside.obj
 0001:0005d92c       ?InsideFindShellView@CConEmuInside@@AEAA_NPEAUHWND__@@@Z 000000014005e92c f   Inside.obj
 0001:0005dc34       ?InsideParentMonitor@CConEmuInside@@QEAAXXZ 000000014005ec34 f   Inside.obj
 0001:0005dc5c       ?InsideUpdateDir@CConEmuInside@@AEAAXXZ 000000014005ec5c f   Inside.obj
 0001:0005de4c       ?InsideUpdatePlacement@CConEmuInside@@AEAAXXZ 000000014005ee4c f   Inside.obj
 0001:0005e044       ?SendVkKeySequence@CConEmuInside@@AEAA_NPEAUHWND__@@PEAG@Z 000000014005f044 f   Inside.obj
 0001:0005e22c       ?SetInsideParentWND@CConEmuInside@@QEAAXPEAUHWND__@@@Z 000000014005f22c f   Inside.obj
 0001:0005e310       ?TurnExplorerTipPane@CConEmuInside@@AEAA_NAEAY0IA@_W@Z 000000014005f310 f   Inside.obj
 0001:0005e4fc       ?inMinimizing@CConEmuInside@@QEAA_NPEAUtagWINDOWPOS@@@Z 000000014005f4fc f   Inside.obj
 0001:0005e510       ?isParentIconic@CConEmuInside@@QEAA_NXZ 000000014005f510 f   Inside.obj
 0001:0005e54c       ?isParentProcess@CConEmuInside@@QEAA_NPEAUHWND__@@@Z 000000014005f54c f   Inside.obj
 0001:0005e598       ?Initialize@CLngPredefined@@SAXXZ 000000014005f598 f   LngData.obj
 0001:0005e5dc       ?compare@LngPredefined@@SAHPEBX0@Z 000000014005f5dc f i LngData.obj
 0001:0005e5e4       ?getHint@CLngPredefined@@SAPEB_WI@Z 000000014005f5e4 f   LngData.obj
 0001:0005e62c       ?getRsrc@CLngPredefined@@SAPEB_WI@Z 000000014005f62c f   LngData.obj
 0001:0005e674       ??$SafeDelete@VMJsonValue@@@@YAXAEAPEAVMJsonValue@@@Z 000000014005f674 f i LngRc.obj
 0001:0005e6bc       ??$_Resize@V<lambda_d59390bb2c17b6d84043afe5e3dd2fd3>@@@?$vector@ULngRcItem@CLngRc@@V?$MArrayAllocator@ULngRcItem@CLngRc@@@@@std@@AEAAX_KV<lambda_d59390bb2c17b6d84043afe5e3dd2fd3>@@@Z 000000014005f6bc f i LngRc.obj
 0001:0005e80c       ??0CLngRc@@QEAA@XZ         000000014005f80c f   LngRc.obj
 0001:0005e8d0       ??1CLngRc@@QEAA@XZ         000000014005f8d0 f   LngRc.obj
 0001:0005e998       ?Clean@CLngRc@@IEAAXAEAV?$MArray@ULngRcItem@CLngRc@@@@@Z 000000014005f998 f   LngRc.obj
 0001:0005ea10       ?Clear@CLngRc@@IEAAXAEAV?$MArray@ULngDefinition@CLngRc@@@@@Z 000000014005fa10 f   LngRc.obj
 0001:0005eac4       ?GetResource@CLngRc@@IEAA_NAEAV?$MArray@ULngRcItem@CLngRc@@@@HAEAUCEStr@@PEB_W@Z 000000014005fac4 f   LngRc.obj
 0001:0005eb1c       ?Initialize@CLngRc@@SAXXZ  000000014005fb1c f   LngRc.obj
 0001:0005eb68       ?LoadLanguages@CLngRc@@IEAA_NPEAVMJsonValue@@@Z 000000014005fb68 f   LngRc.obj
 0001:0005ed80       ?LoadResources@CLngRc@@IEAA_NPEB_W0@Z 000000014005fd80 f   LngRc.obj
 0001:0005f1b4       ?LoadSection@CLngRc@@IEAA_NPEAVMJsonValue@@AEAV?$MArray@ULngRcItem@CLngRc@@@@H@Z 00000001400601b4 f   LngRc.obj
 0001:0005f44c       ?Reload@CLngRc@@QEAAX_N@Z  000000014006044c f   LngRc.obj
 0001:0005f70c       ?SetResource@CLngRc@@IEAA_NAEAV?$MArray@ULngRcItem@CLngRc@@@@HPEAVMJsonValue@@@Z 000000014006070c f   LngRc.obj
 0001:0005f82c       ?SetResource@CLngRc@@IEAA_NAEAV?$MArray@ULngRcItem@CLngRc@@@@HPEB_W_N@Z 000000014006082c f   LngRc.obj
 0001:0005f938       ?_Reallocate_exactly@?$vector@ULngRcItem@CLngRc@@V?$MArrayAllocator@ULngRcItem@CLngRc@@@@@std@@AEAAX_K@Z 0000000140060938 f i LngRc.obj
 0001:0005f9e0       ?getControl@CLngRc@@SAPEB_WJAEAUCEStr@@PEB_W@Z 00000001400609e0 f   LngRc.obj
 0001:0005fa28       ?getHint@CLngRc@@SA_NIPEA_W_K@Z 0000000140060a28 f   LngRc.obj
 0001:0005fb20       ?getLanguage@CLngRc@@SAPEB_WXZ 0000000140060b20 f   LngRc.obj
 0001:0005fb58       ?getLanguages@CLngRc@@SA_NAEAV?$MArray@PEB_W@@@Z 0000000140060b58 f   LngRc.obj
 0001:0005fc6c       ?getRsrc@CLngRc@@SAPEB_WIPEAUCEStr@@@Z 0000000140060c6c f   LngRc.obj
 0001:0005fd08       ?isLocalized@CLngRc@@SA_NXZ 0000000140060d08 f   LngRc.obj
 0001:0005fd40       ?loadString@CLngRc@@KA_NIPEA_W_K@Z 0000000140060d40 f   LngRc.obj
 0001:0005fd78       ?set_at@?$MArray@ULngRcItem@CLngRc@@@@QEAA_J_JAEBULngRcItem@CLngRc@@@Z 0000000140060d78 f i LngRc.obj
 0001:0005fde8       ??_GMStream@@UEAAPEAXI@Z   0000000140060de8 f i LoadImg.obj
 0001:0005fde8       ??_EMStream@@UEAAPEAXI@Z   0000000140060de8 f i LoadImg.obj
 0001:0005fe60       ?AddRef@MStream@@UEAAKXZ   0000000140060e60 f i LoadImg.obj
 0001:0005fe74       ?LockRegion@MStream@@UEAAJT_ULARGE_INTEGER@@0K@Z 0000000140060e74 f i LoadImg.obj
 0001:0005fe74       ?UnlockRegion@MStream@@UEAAJT_ULARGE_INTEGER@@0K@Z 0000000140060e74 f i LoadImg.obj
 0001:0005fe74       ?Revert@MStream@@UEAAJXZ   0000000140060e74 f i LoadImg.obj
 0001:0005fe74       ?CopyTo@MStream@@UEAAJPEAUIStream@@T_ULARGE_INTEGER@@PEAT3@2@Z 0000000140060e74 f i LoadImg.obj
 0001:0005fe74       ?Clone@MStream@@UEAAJPEAPEAUIStream@@@Z 0000000140060e74 f i LoadImg.obj
 0001:0005fe7c       ?Commit@MStream@@UEAAJK@Z  0000000140060e7c f i LoadImg.obj
 0001:0005fe88       ?CreateSolidImage@@YAPEAUtagBITMAPFILEHEADER@@KII@Z 0000000140060e88 f   LoadImg.obj
 0001:0005ffc8       ?GetCodecClsid@@YAHPEB_WPEAU_GUID@@@Z 0000000140060fc8 f   LoadImg.obj
 0001:000602c8       ?LoadImageEx@@YAPEAUtagBITMAPFILEHEADER@@PEB_WAEAU_BY_HANDLE_FILE_INFORMATION@@@Z 00000001400612c8 f   LoadImg.obj
 0001:00060460       ?LoadImageFinalize@@YAXXZ  0000000140061460 f   LoadImg.obj
 0001:000604b0       ?LoadImageGdip@@YAPEAUtagBITMAPFILEHEADER@@PEB_W@Z 00000001400614b0 f   LoadImg.obj
 0001:0006075c       ?QueryInterface@MStream@@UEAAJAEBU_GUID@@PEAPEAX@Z 000000014006175c f i LoadImg.obj
 0001:000607c4       ?Read@MStream@@UEAAJPEAXKPEAK@Z 00000001400617c4 f i LoadImg.obj
 0001:00060838       ?Release@MStream@@UEAAKXZ  0000000140061838 f i LoadImg.obj
 0001:00060868       ?SaveImageEx@@YA_NPEB_WPEAEK@Z 0000000140061868 f   LoadImg.obj
 0001:00060a0c       ?SaveImageEx@@YA_NPEB_WPEAUHBITMAP__@@@Z 0000000140061a0c f   LoadImg.obj
 0001:00060b10       ?Seek@MStream@@UEAAJT_LARGE_INTEGER@@KPEAT_ULARGE_INTEGER@@@Z 0000000140061b10 f i LoadImg.obj
 0001:00060b74       ?SetSize@MStream@@UEAAJT_ULARGE_INTEGER@@@Z 0000000140061b74 f i LoadImg.obj
 0001:00060c20       ?Stat@MStream@@UEAAJPEAUtagSTATSTG@@K@Z 0000000140061c20 f i LoadImg.obj
 0001:00060c9c       ?Write@MStream@@UEAAJPEBXKPEAK@Z 0000000140061c9c f i LoadImg.obj
 0001:00060d6c       ?About@ConEmuMacro@@YAPEA_WPEAUGuiMacro@@PEAVCRealConsole@@_N@Z 0000000140061d6c f   Macro.obj
 0001:00060dbc       ?AffinityPriority@ConEmuMacro@@YAPEA_WPEAUGuiMacro@@PEAVCRealConsole@@_N@Z 0000000140061dbc f   Macro.obj
 0001:00060e3c       ?AltNumber@ConEmuMacro@@YAPEA_WPEAUGuiMacro@@PEAVCRealConsole@@_N@Z 0000000140061e3c f   Macro.obj
 0001:00060e88       ?Attach@ConEmuMacro@@YAPEA_WPEAUGuiMacro@@PEAVCRealConsole@@_N@Z 0000000140061e88 f   Macro.obj
 0001:00060f20       ?Break@ConEmuMacro@@YAPEA_WPEAUGuiMacro@@PEAVCRealConsole@@_N@Z 0000000140061f20 f   Macro.obj
 0001:00060f8c       ?Close@ConEmuMacro@@YAPEA_WPEAUGuiMacro@@PEAVCRealConsole@@_N@Z 0000000140061f8c f   Macro.obj
 0001:000611fc       ?Context@ConEmuMacro@@YAPEA_WPEAUGuiMacro@@PEAVCRealConsole@@_N@Z 00000001400621fc f   Macro.obj
 0001:00061244       ?Copy@ConEmuMacro@@YAPEA_WPEAUGuiMacro@@PEAVCRealConsole@@_N@Z 0000000140062244 f   Macro.obj
 0001:00061380       ?Debug@ConEmuMacro@@YAPEA_WPEAUGuiMacro@@PEAVCRealConsole@@_N@Z 0000000140062380 f   Macro.obj
 0001:0006140c       ?Detach@ConEmuMacro@@YAPEA_WPEAUGuiMacro@@PEAVCRealConsole@@_N@Z 000000014006240c f   Macro.obj
 0001:00061470       ?FindEditor@ConEmuMacro@@YAPEA_WPEAUGuiMacro@@PEAVCRealConsole@@_N@Z 0000000140062470 f   Macro.obj
 0001:000614d8       ?FindFarWindow@ConEmuMacro@@YAPEA_WPEAUGuiMacro@@PEAVCRealConsole@@_N@Z 00000001400624d8 f   Macro.obj
 0001:0006155c       ?FindViewer@ConEmuMacro@@YAPEA_WPEAUGuiMacro@@PEAVCRealConsole@@_N@Z 000000014006255c f   Macro.obj
 0001:000615c4       ?Flash@ConEmuMacro@@YAPEA_WPEAUGuiMacro@@PEAVCRealConsole@@_N@Z 00000001400625c4 f   Macro.obj
 0001:000616c4       ?FontSetName@ConEmuMacro@@YAPEA_WPEAUGuiMacro@@PEAVCRealConsole@@_N@Z 00000001400626c4 f   Macro.obj
 0001:00061750       ?FontSetSize@ConEmuMacro@@YAPEA_WPEAUGuiMacro@@PEAVCRealConsole@@_N@Z 0000000140062750 f   Macro.obj
 0001:000617a0       ?GetInfo@ConEmuMacro@@YAPEA_WPEAUGuiMacro@@PEAVCRealConsole@@_N@Z 00000001400627a0 f   Macro.obj
 0001:00061b54       ?GetOption@ConEmuMacro@@YAPEA_WPEAUGuiMacro@@PEAVCRealConsole@@_N@Z 0000000140062b54 f   Macro.obj
 0001:00061c8c       ?GroupInput@ConEmuMacro@@YAPEA_WPEAUGuiMacro@@PEAVCRealConsole@@_N@Z 0000000140062c8c f   Macro.obj
 0001:00061d24       ?HighlightMouse@ConEmuMacro@@YAPEA_WPEAUGuiMacro@@PEAVCRealConsole@@_N@Z 0000000140062d24 f   Macro.obj
 0001:00061d9c       ?IsConEmu@ConEmuMacro@@YAPEA_WPEAUGuiMacro@@PEAVCRealConsole@@_N@Z 0000000140062d9c f   Macro.obj
 0001:00061dac       ?IsConsoleActive@ConEmuMacro@@YAPEA_WPEAUGuiMacro@@PEAVCRealConsole@@_N@Z 0000000140062dac f   Macro.obj
 0001:00061de0       ?IsRealVisible@ConEmuMacro@@YAPEA_WPEAUGuiMacro@@PEAVCRealConsole@@_N@Z 0000000140062de0 f   Macro.obj
 0001:00061e18       ?Keys@ConEmuMacro@@YAPEA_WPEAUGuiMacro@@PEAVCRealConsole@@_N@Z 0000000140062e18 f   Macro.obj
 0001:00062100       ?Menu@ConEmuMacro@@YAPEA_WPEAUGuiMacro@@PEAVCRealConsole@@_N@Z 0000000140063100 f   Macro.obj
 0001:0006222c       ?MsgBox@ConEmuMacro@@YAPEA_WPEAUGuiMacro@@PEAVCRealConsole@@_N@Z 000000014006322c f   Macro.obj
 0001:0006232c       ?Palette@ConEmuMacro@@YAPEA_WPEAUGuiMacro@@PEAVCRealConsole@@_N@Z 000000014006332c f   Macro.obj
 0001:00062550       ?Paste@ConEmuMacro@@YAPEA_WPEAUGuiMacro@@PEAVCRealConsole@@_N@Z 0000000140063550 f   Macro.obj
 0001:00062734       ?PasteExplorerPath@ConEmuMacro@@YAPEA_WPEAUGuiMacro@@PEAVCRealConsole@@_N@Z 0000000140063734 f   Macro.obj
 0001:0006279c       ?PasteFile@ConEmuMacro@@YAPEA_WPEAUGuiMacro@@PEAVCRealConsole@@_N@Z 000000014006379c f   Macro.obj
 0001:00062940       ?Pause@ConEmuMacro@@YAPEA_WPEAUGuiMacro@@PEAVCRealConsole@@_N@Z 0000000140063940 f   Macro.obj
 0001:000629b4       ?Print@ConEmuMacro@@YAPEA_WPEAUGuiMacro@@PEAVCRealConsole@@_N@Z 00000001400639b4 f   Macro.obj
 0001:00062a20       ?Progress@ConEmuMacro@@YAPEA_WPEAUGuiMacro@@PEAVCRealConsole@@_N@Z 0000000140063a20 f   Macro.obj
 0001:00062ac4       ?Recreate@ConEmuMacro@@YAPEA_WPEAUGuiMacro@@PEAVCRealConsole@@_N@Z 0000000140063ac4 f   Macro.obj
 0001:00062b6c       ?Rename@ConEmuMacro@@YAPEA_WPEAUGuiMacro@@PEAVCRealConsole@@_N@Z 0000000140063b6c f   Macro.obj
 0001:00062c00       ?Scroll@ConEmuMacro@@YAPEA_WPEAUGuiMacro@@PEAVCRealConsole@@_N@Z 0000000140063c00 f   Macro.obj
 0001:00062cd4       ?Select@ConEmuMacro@@YAPEA_WPEAUGuiMacro@@PEAVCRealConsole@@_N@Z 0000000140063cd4 f   Macro.obj
 0001:00062eb8       ?SetDpi@ConEmuMacro@@YAPEA_WPEAUGuiMacro@@PEAVCRealConsole@@_N@Z 0000000140063eb8 f   Macro.obj
 0001:00062f54       ?SetOption@ConEmuMacro@@YAPEA_WPEAUGuiMacro@@PEAVCRealConsole@@_N@Z 0000000140063f54 f   Macro.obj
 0001:00063444       ?SetParentHWND@ConEmuMacro@@YAPEA_WPEAUGuiMacro@@PEAVCRealConsole@@_N@Z 0000000140064444 f   Macro.obj
 0001:00063474       ?Settings@ConEmuMacro@@YAPEA_WPEAUGuiMacro@@PEAVCRealConsole@@_N@Z 0000000140064474 f   Macro.obj
 0001:000634a8       ?Shell@ConEmuMacro@@YAPEA_WPEAUGuiMacro@@PEAVCRealConsole@@_N@Z 00000001400644a8 f   Macro.obj
 0001:00063c34       ?Sleep@ConEmuMacro@@YAPEA_WPEAUGuiMacro@@PEAVCRealConsole@@_N@Z 0000000140064c34 f   Macro.obj
 0001:00063d80       ?Split@ConEmuMacro@@YAPEA_WPEAUGuiMacro@@PEAVCRealConsole@@_N@Z 0000000140064d80 f   Macro.obj
 0001:00063f40       ?Status@ConEmuMacro@@YAPEA_WPEAUGuiMacro@@PEAVCRealConsole@@_N@Z 0000000140064f40 f   Macro.obj
 0001:00063fe4       ?Tab@ConEmuMacro@@YAPEA_WPEAUGuiMacro@@PEAVCRealConsole@@_N@Z 0000000140064fe4 f   Macro.obj
 0001:00064274       ?Task@ConEmuMacro@@YAPEA_WPEAUGuiMacro@@PEAVCRealConsole@@_N@Z 0000000140065274 f   Macro.obj
 0001:00064444       ?TaskAdd@ConEmuMacro@@YAPEA_WPEAUGuiMacro@@PEAVCRealConsole@@_N@Z 0000000140065444 f   Macro.obj
 0001:000645cc       ?TermMode@ConEmuMacro@@YAPEA_WPEAUGuiMacro@@PEAVCRealConsole@@_N@Z 00000001400655cc f   Macro.obj
 0001:00064640       ?Transparency@ConEmuMacro@@YAPEA_WPEAUGuiMacro@@PEAVCRealConsole@@_N@Z 0000000140065640 f   Macro.obj
 0001:0006467c       ?Unfasten@ConEmuMacro@@YAPEA_WPEAUGuiMacro@@PEAVCRealConsole@@_N@Z 000000014006567c f   Macro.obj
 0001:000646b4       ?Update@ConEmuMacro@@YAPEA_WPEAUGuiMacro@@PEAVCRealConsole@@_N@Z 00000001400656b4 f   Macro.obj
 0001:000646e8       ?Wiki@ConEmuMacro@@YAPEA_WPEAUGuiMacro@@PEAVCRealConsole@@_N@Z 00000001400656e8 f   Macro.obj
 0001:0006471c       ?WindowFullscreen@ConEmuMacro@@YAPEA_WPEAUGuiMacro@@PEAVCRealConsole@@_N@Z 000000014006571c f   Macro.obj
 0001:00064750       ?WindowMaximize@ConEmuMacro@@YAPEA_WPEAUGuiMacro@@PEAVCRealConsole@@_N@Z 0000000140065750 f   Macro.obj
 0001:000647c8       ?WindowMinimize@ConEmuMacro@@YAPEA_WPEAUGuiMacro@@PEAVCRealConsole@@_N@Z 00000001400657c8 f   Macro.obj
 0001:00064838       ?WindowMode@ConEmuMacro@@YAPEA_WPEAUGuiMacro@@PEAVCRealConsole@@_N@Z 0000000140065838 f   Macro.obj
 0001:00064b78       ?WindowPosSize@ConEmuMacro@@YAPEA_WPEAUGuiMacro@@PEAVCRealConsole@@_N@Z 0000000140065b78 f   Macro.obj
 0001:00064c28       ?Write@ConEmuMacro@@YAPEA_WPEAUGuiMacro@@PEAVCRealConsole@@_N@Z 0000000140065c28 f   Macro.obj
 0001:00064c90       ?Zoom@ConEmuMacro@@YAPEA_WPEAUGuiMacro@@PEAVCRealConsole@@_N@Z 0000000140065c90 f   Macro.obj
 0001:00064cd4       ??$swprintf_c@$0M@@@YAHAEAY0M@_WPEB_WZZ 0000000140065cd4 f i Macro.obj
 0001:00064d00       ??$ultow_s@$0BAE@@@YAPEB_WIAEAY0BAE@_WH@Z 0000000140065d00 f i Macro.obj
 0001:00064d2c       ?AsString@GuiMacro@@QEAAPEA_WXZ 0000000140065d2c f   Macro.obj
 0001:000650f0       ?ChangeContext@ConEmuMacro@@YAPEAVCRealConsole@@PEAV2@IIAEAVCVConGuard@@AEAPEA_W@Z 00000001400660f0 f   Macro.obj
 0001:000652f8       ?ConcatMacro@ConEmuMacro@@YAPEB_WAEAPEA_WPEB_W@Z 00000001400662f8 f   Macro.obj
 0001:0006537c       ?ConvertMacro@ConEmuMacro@@YAPEA_WPEB_WE_N@Z 000000014006637c f   Macro.obj
 0001:000654f0       ?ExecuteMacro@ConEmuMacro@@YAPEA_WPEA_WPEAVCRealConsole@@_NPEAUCESERVER_REQ_GUIMACRO@@@Z 00000001400664f0 f   Macro.obj
 0001:00065860       ?ExecuteMacroSync@ConEmuMacro@@YA_J_K_J@Z 0000000140066860 f   Macro.obj
 0001:0006588c       ?FindFarWindowHelper@ConEmuMacro@@YAPEA_WIPEA_WPEAVCRealConsole@@_N@Z 000000014006688c f   Macro.obj
 0001:00065994       ?GetNextInt@ConEmuMacro@@YAPEA_WAEAPEA_WAEAUGuiMacroArg@@@Z 0000000140066994 f   Macro.obj
 0001:00065a70       ?GetNextMacro@ConEmuMacro@@YAPEAUGuiMacro@@AEAPEA_W_NPEAPEA_W@Z 0000000140066a70 f   Macro.obj
 0001:00066060       ?GetNextString@ConEmuMacro@@YAPEA_WAEAPEA_W0_NAEA_N@Z 0000000140067060 f   Macro.obj
 0001:00066324       ?GetRestStrArgs@GuiMacro@@QEAA_N_KAEAPEA_W@Z 0000000140067324 f   Macro.obj
 0001:000663f0       ?GetStrArg@GuiMacro@@QEAA_N_KAEAPEA_W@Z 00000001400673f0 f   Macro.obj
 0001:00066424       ?Int2Str@ConEmuMacro@@YAPEA_WI_N@Z 0000000140067424 f   Macro.obj
 0001:00066474       ?SkipWhiteSpaces@ConEmuMacro@@YAXAEAPEA_W@Z 0000000140067474 f   Macro.obj
 0001:000664a0       ?TransparencyHelper@ConEmuMacro@@YAPEA_WHH@Z 00000001400674a0 f   Macro.obj
 0001:000665bc       ??0CMatch@@QEAA@PEAVCRealConsole@@@Z 00000001400675bc f   Match.obj
 0001:0006664c       ??1CMatch@@QEAA@XZ         000000014006764c f   Match.obj
 0001:00066678       ?CheckValidUrl@CMatch@@KA_NAEAH0AEA_NPEB_W222H@Z 0000000140067678 f   Match.obj
 0001:00066788       ?FindRangeStart@CMatch@@KA_NAEAH0AEA_NPEB_W22222H@Z 0000000140067788 f   Match.obj
 0001:000669c8       ?GetNextLine@CMatch@@IEAA_NAEAVCRConDataGuard@@H@Z 00000001400679c8 f   Match.obj
 0001:00066ae4       ?IsFileLineTerminator@CMatch@@KA_NPEB_W0@Z 0000000140067ae4 f   Match.obj
 0001:00066bbc       ?IsValidFile@CMatch@@IEAA_NPEB_WH00AEAH@Z 0000000140067bbc f   Match.obj
 0001:00066d74       ?Match@CMatch@@QEAAHW4ExpandTextRangeType@@PEB_WHHAEAVCRConDataGuard@@H@Z 0000000140067d74 f   Match.obj
 0001:00066ecc       ?MatchAny@CMatch@@IEAA_NAEAVCRConDataGuard@@H@Z 0000000140067ecc f   Match.obj
 0001:00067d04       ?MatchFileNoExt@CMatch@@IEAA_NAEAVCRConDataGuard@@H@Z 0000000140068d04 f   Match.obj
 0001:00067ee0       ?MatchWord@CMatch@@IEAA_NPEB_WHHAEAH1AEAVCRConDataGuard@@H@Z 0000000140068ee0 f   Match.obj
 0001:00068104       ?StoreMatchText@CMatch@@IEAAXPEB_W0@Z 0000000140069104 f   Match.obj
 0001:00068224       ??$_Emplace_reallocate@AEBUCmdTaskPopupItem@CConEmuMenu@@@?$vector@UCmdTaskPopupItem@CConEmuMenu@@V?$MArrayAllocator@UCmdTaskPopupItem@CConEmuMenu@@@@@std@@QEAAPEAUCmdTaskPopupItem@CConEmuMenu@@QEAU23@AEBU23@@Z 0000000140069224 f i Menu.obj
 0001:000685f0       ??$emplace_back@AEBUCmdTaskPopupItem@CConEmuMenu@@@?$vector@UCmdTaskPopupItem@CConEmuMenu@@V?$MArrayAllocator@UCmdTaskPopupItem@CConEmuMenu@@@@@std@@QEAAXAEBUCmdTaskPopupItem@CConEmuMenu@@@Z 00000001400695f0 f i Menu.obj
 0001:00068678       ??0CConEmuMenu@@QEAA@XZ    0000000140069678 f   Menu.obj
 0001:0006880c       ??1CConEmuMenu@@QEAA@XZ    000000014006980c f   Menu.obj
 0001:000688b4       ?CalcTabMenuPos@CConEmuMenu@@QEAA?AUtagPOINT@@PEAVCVirtualConsole@@@Z 00000001400698b4 f   Menu.obj
 0001:00068998       ?CreateDebugMenuPopup@CConEmuMenu@@QEAAPEAUHMENU__@@XZ 0000000140069998 f   Menu.obj
 0001:00068b6c       ?CreateEditMenuPopup@CConEmuMenu@@QEAAPEAUHMENU__@@PEAVCVirtualConsole@@PEAU2@@Z 0000000140069b6c f   Menu.obj
 0001:00068eb0       ?CreateHelpMenuPopup@CConEmuMenu@@QEAAPEAUHMENU__@@XZ 0000000140069eb0 f   Menu.obj
 0001:00069090       ?CreateOrUpdateMenu@CConEmuMenu@@QEAA_NAEAPEAUHMENU__@@PEBUMenuItem@@_K@Z 000000014006a090 f   Menu.obj
 0001:00069250       ?CreateVConListPopupMenu@CConEmuMenu@@QEAAPEAUHMENU__@@PEAU2@H@Z 000000014006a250 f   Menu.obj
 0001:00069614       ?CreateVConPopupMenu@CConEmuMenu@@QEAAPEAUHMENU__@@PEAVCVirtualConsole@@PEAU2@_N2@Z 000000014006a614 f   Menu.obj
 0001:00069bb4       ?CreateViewMenuPopup@CConEmuMenu@@QEAAPEAUHMENU__@@PEAVCVirtualConsole@@PEAU2@@Z 000000014006abb4 f   Menu.obj
 0001:00069d98       ?ExecPopupMenuCmd@CConEmuMenu@@QEAAXW4TrackMenuPlace@@PEAVCVirtualConsole@@H@Z 000000014006ad98 f   Menu.obj
 0001:0006a188       ?FillTaskPopup@CConEmuMenu@@AEAAHPEAUHMENU__@@PEAUCmdTaskPopupItem@1@@Z 000000014006b188 f   Menu.obj
 0001:0006a420       ?GetInScMinimize@CConEmuMenu@@QEAA_NXZ 000000014006b420 f   Menu.obj
 0001:0006a424       ?GetRestoreFromMinimized@CConEmuMenu@@QEAA_NXZ 000000014006b424 f   Menu.obj
 0001:0006a428       ?GetSysMenu@CConEmuMenu@@QEAAPEAUHMENU__@@H@Z 000000014006b428 f   Menu.obj
 0001:0006a4d0       ?GetTrackMenuPlace@CConEmuMenu@@QEAA?AW4TrackMenuPlace@@XZ 000000014006b4d0 f   Menu.obj
 0001:0006a4d4       ?MenuAccel@CConEmuMenu@@AEAAPEB_WHPEB_W@Z 000000014006b4d4 f   Menu.obj
 0001:0006a5ec       ?OnInitMenuPopup@CConEmuMenu@@QEAA_JPEAUHWND__@@PEAUHMENU__@@_J@Z 000000014006b5ec f   Menu.obj
 0001:0006a898       ?OnMenuRClick@CConEmuMenu@@QEAAXPEAUHMENU__@@I@Z 000000014006b898 f   Menu.obj
 0001:0006a8ac       ?OnMenuSelected@CConEmuMenu@@QEAA_NPEAUHMENU__@@GG@Z 000000014006b8ac f   Menu.obj
 0001:0006a9a4       ?OnMenuSelected_NewCon@CConEmuMenu@@AEAA_NPEAUHMENU__@@GG@Z 000000014006b9a4 f   Menu.obj
 0001:0006abac       ?OnNcIconLClick@CConEmuMenu@@QEAAXXZ 000000014006bbac f   Menu.obj
 0001:0006ac3c       ?OnNewConPopupMenu@CConEmuMenu@@QEAAXPEAUtagPOINT@@K_N@Z 000000014006bc3c f   Menu.obj
 0001:0006b9bc       ?OnNewConPopupMenuRClick@CConEmuMenu@@AEAAXPEAUHMENU__@@I@Z 000000014006c9bc f   Menu.obj
 0001:0006be18       ?OnSysCommand@CConEmuMenu@@QEAA_JPEAUHWND__@@_K_JI@Z 000000014006ce18 f   Menu.obj
 0001:0006c90c       ?Reset@CmdTaskPopupItem@CConEmuMenu@@QEAAXW4CmdTaskPopupItemType@12@HPEB_W@Z 000000014006d90c f   Menu.obj
 0001:0006c980       ?SetMenuName@CmdTaskPopupItem@CConEmuMenu@@SAXPEA_W_JPEB_W_N32@Z 000000014006d980 f   Menu.obj
 0001:0006cbb0       ?SetPassSysCommand@CConEmuMenu@@QEAA_N_N@Z 000000014006dbb0 f   Menu.obj
 0001:0006cbb8       ?SetRestoreFromMinimized@CConEmuMenu@@QEAA_N_N@Z 000000014006dbb8 f   Menu.obj
 0001:0006cbc0       ?SetTrackMenuPlace@CConEmuMenu@@QEAA?AW4TrackMenuPlace@@W42@@Z 000000014006dbc0 f   Menu.obj
 0001:0006cbc8       ?ShowKeyBarHint@CConEmuMenu@@AEAAXPEAUHMENU__@@GG@Z 000000014006dbc8 f   Menu.obj
 0001:0006cc58       ?ShowMenuHint@CConEmuMenu@@AEAAXPEAUHMENU__@@GG@Z 000000014006dc58 f   Menu.obj
 0001:0006cd54       ?ShowMenuHint@CConEmuMenu@@AEAAXPEB_WPEAUtagPOINT@@@Z 000000014006dd54 f   Menu.obj
 0001:0006ce9c       ?ShowPopupMenu@CConEmuMenu@@QEAAXPEAVCVirtualConsole@@UtagPOINT@@K_N@Z 000000014006de9c f   Menu.obj
 0001:0006d05c       ?ShowSysmenu@CConEmuMenu@@QEAAXHHK@Z 000000014006e05c f   Menu.obj
 0001:0006d4bc       ?UpdateSysMenu@CConEmuMenu@@AEAAXPEAUHMENU__@@@Z 000000014006e4bc f   Menu.obj
 0001:0006d8ec       ?trackPopupMenu@CConEmuMenu@@QEAAHW4TrackMenuPlace@@PEAUHMENU__@@IHHPEAUHWND__@@PEAUtagRECT@@@Z 000000014006e8ec f   Menu.obj
 0001:0006dbbc       ?CopyToClipboard@@YA_NPEB_W@Z 000000014006ebbc f   MyClipboard.obj
 0001:0006dd04       ?GetCliboardText@@YAPEA_WAEAKPEA_W_J@Z 000000014006ed04 f   MyClipboard.obj
 0001:0006df04       ?MyCloseClipboard@@YAXXZ   000000014006ef04 f   MyClipboard.obj
 0001:0006df44       ?MyOpenClipboard@@YA_NPEB_W@Z 000000014006ef44 f   MyClipboard.obj
 0001:0006e0a4       ?MySetClipboardData@@YAPEAXIPEAX@Z 000000014006f0a4 f   MyClipboard.obj
 0001:0006e150       ??0OleInitializer@@QEAA@XZ 000000014006f150 f   OleInitializer.obj
 0001:0006e164       ??0OleInitializer@@QEAA@_N@Z 000000014006f164 f   OleInitializer.obj
 0001:0006e190       ??1OleInitializer@@UEAA@XZ 000000014006f190 f   OleInitializer.obj
 0001:0006e1b0       ??_GOleInitializer@@UEAAPEAXI@Z 000000014006f1b0 f i OleInitializer.obj
 0001:0006e1b0       ??_EOleInitializer@@UEAAPEAXI@Z 000000014006f1b0 f i OleInitializer.obj
 0001:0006e1f8       ?Initialize@OleInitializer@@QEAA_NXZ 000000014006f1f8 f   OleInitializer.obj
 0001:0006e224       ??$SafeDelete@UCommandHistory@@@@YAXAEAPEAUCommandHistory@@@Z 000000014006f224 f i Options.obj
 0001:0006e26c       ??$SafeDelete@USettingsBase@@@@YAXAEAPEAUSettingsBase@@@Z 000000014006f26c f i Options.obj
 0001:0006e2a4       ??$ltow_s@$0BA@@@YAPEB_WHAEAY0BA@_WH@Z 000000014006f2a4 f i Options.obj
 0001:0006e2d0       ??$swprintf_c@$0BCM@@@YAHAEAY0BCM@_WPEB_WZZ 000000014006f2d0 f i Options.obj
 0001:0006e2fc       ??0Settings@@QEAA@XZ       000000014006f2fc f   Options.obj
 0001:0006e32c       ??1Settings@@QEAA@XZ       000000014006f32c f   Options.obj
 0001:0006e358       ?AppSettingsDelete@Settings@@IEAAXH@Z 000000014006f358 f   Options.obj
 0001:0006e3dc       ?AppSettingsXch@Settings@@IEAA_NHH@Z 000000014006f3dc f   Options.obj
 0001:0006e430       ?AutoSaveSettings@Settings@@QEAAXPEAUSettingsBase@@_N@Z 000000014006f430 f   Options.obj
 0001:0006e75c       ?CheckCharAltFont@Settings@@QEAA_NH@Z 000000014006f75c f   Options.obj
 0001:0006e784       ?CheckConsoleSettings@Settings@@QEAAXXZ 000000014006f784 f   Options.obj
 0001:0006e91c       ?CheckHotkeyUnique@Settings@@QEAAXXZ 000000014006f91c f   Options.obj
 0001:0006eba8       ?CmdTaskGet@Settings@@QEAAPEBUCommandTasks@@H@Z 000000014006fba8 f   Options.obj
 0001:0006ec50       ?CmdTaskGetByName@Settings@@QEAAPEBUCommandTasks@@PEB_W@Z 000000014006fc50 f   Options.obj
 0001:0006edcc       ?CmdTaskGetDefaultShell@Settings@@QEAA_NAEAURConStartArgsEx@@AEAUCEStr@@@Z 000000014006fdcc f   Options.obj
 0001:0006ef7c       ?CmdTaskSet@Settings@@QEAAHHPEB_W00K@Z 000000014006ff7c f   Options.obj
 0001:0006f360       ?CmdTaskSetVkMod@Settings@@QEAAXHK@Z 0000000140070360 f   Options.obj
 0001:0006f39c       ?CmdTaskXch@Settings@@QEAA_NHH@Z 000000014007039c f   Options.obj
 0001:0006f3e8       ?CreateCharRanges@Settings@@QEAAPEA_WAEAY0BAAAA@E@Z 00000001400703e8 f   Options.obj
 0001:0006f4cc       ?CreatePredefinedPalettes@Settings@@QEAAXH@Z 00000001400704cc f   Options.obj
 0001:0006f660       ?CreateSettings@Settings@@QEAAPEAUSettingsBase@@PEBUSettingsStorage@@@Z 0000000140070660 f   Options.obj
 0001:0006f994       ?DisableLogging@Settings@@QEAAXXZ 0000000140070994 f   Options.obj
 0001:0006f99c       ?EnableLogging@Settings@@QEAAXXZ 000000014007099c f   Options.obj
 0001:0006f9c8       ?FreeApps@Settings@@AEAAXHPEAPEAUAppSettings@@@Z 00000001400709c8 f   Options.obj
 0001:0006fa48       ?FreeCmdTasks@Settings@@IEAAXXZ 0000000140070a48 f   Options.obj
 0001:0006fac4       ?FreePalettes@Settings@@IEAAXXZ 0000000140070ac4 f   Options.obj
 0001:0006fb48       ?FreeProgresses@Settings@@IEAAXXZ 0000000140070b48 f   Options.obj
 0001:0006fbdc       ?FreeStartupTask@Settings@@IEAAXXZ 0000000140070bdc f   Options.obj
 0001:0006fc04       ?GetAppSettings@Settings@@QEAAPEBUAppSettings@@H@Z 0000000140070c04 f   Options.obj
 0001:0006fc4c       ?GetAppSettingsId@Settings@@QEAAHPEB_W_N@Z 0000000140070c4c f   Options.obj
 0001:0006fdd4       ?GetAppSettingsPtr@Settings@@IEAAPEAUAppSettings@@HH@Z 0000000140070dd4 f   Options.obj
 0001:0006ff18       ?GetColors@Settings@@QEAAPEAKHH@Z 0000000140070f18 f   Options.obj
 0001:0006ffb4       ?GetColorsPrepare@Settings@@QEAAPEAKPEAK0PEA_NH@Z 0000000140070fb4 f   Options.obj
 0001:0006ffe8       ?GetDefColors@Settings@@QEAAPEBKPEB_W@Z 0000000140070fe8 f   Options.obj
 0001:0007006c       ?GetDefaultTerminalApps@Settings@@QEAAPEA_WXZ 000000014007106c f   Options.obj
 0001:00070084       ?GetDefaultTerminalAppsMSZ@Settings@@QEAAPEB_WXZ 0000000140071084 f   Options.obj
 0001:0007008c       ?GetFadeColor@Settings@@QEAAKK@Z 000000014007108c f   Options.obj
 0001:000701a0       ?GetHotkeyById@Settings@@QEAAKHPEAPEBUConEmuHotKey@@@Z 00000001400711a0 f   Options.obj
 0001:0007023c       ?GetHotkeyNameById@Settings@@QEAAPEB_WHAEAY0IA@_W_N@Z 000000014007123c f   Options.obj
 0001:000702b0       ?GetIntelligentExceptions@Settings@@QEAAPEA_WXZ 00000001400712b0 f   Options.obj
 0001:000702c8       ?GetIntelligentExceptionsMSZ@Settings@@QEAAPEB_WXZ 00000001400712c8 f   Options.obj
 0001:000702d0       ?GetLogFileName@Settings@@QEAAPEB_WXZ 00000001400712d0 f   Options.obj
 0001:000702f0       ?GetPaletteColors@Settings@@QEAAPEAKPEB_WH@Z 00000001400712f0 f   Options.obj
 0001:00070378       ?GetPaletteIndex@AppSettings@@QEBAHXZ 0000000140071378 f   Options.obj
 0001:00070394       ?GetSettingsType@Settings@@QEAA?AUSettingsStorage@@XZ 0000000140071394 f   Options.obj
 0001:000704c0       ?GetStoragePlaceDescr@Settings@@QEAAPEA_WPEBUSettingsStorage@@PEB_W@Z 00000001400714c0 f   Options.obj
 0001:000705fc       ?HideCaptionAlwaysFrame@Settings@@QEAAHXZ 00000001400715fc f   Options.obj
 0001:00070648       ?HistoryAdd@Settings@@QEAAXPEB_W@Z 0000000140071648 f   Options.obj
 0001:00070774       ?HistoryGet@Settings@@QEAAPEB_WH@Z 0000000140071774 f   Options.obj
 0001:00070788       ?HistoryLoad@Settings@@QEAAXPEAUSettingsBase@@@Z 0000000140071788 f   Options.obj
 0001:00070894       ?HistoryReset@Settings@@QEAAXXZ 0000000140071894 f   Options.obj
 0001:000708c0       ?HistorySave@Settings@@QEAAXPEAUSettingsBase@@@Z 00000001400718c0 f   Options.obj
 0001:0007099c       ?InitSettings@Settings@@QEAAXXZ 000000014007199c f   Options.obj
 0001:00071578       ?InitVanilla@Settings@@QEAAXXZ 0000000140072578 f   Options.obj
 0001:00071694       ?IsHotkey@Settings@@QEAA_NH@Z 0000000140072694 f   Options.obj
 0001:000716b4       ?IsModifierPressed@Settings@@QEAAXHPEA_N0@Z 00000001400726b4 f   Options.obj
 0001:000717a4       ?IsModifierPressed@Settings@@QEAA_NH_N@Z 00000001400727a4 f   Options.obj
 0001:000717e0       ?LineDelimited2MSZ@Settings@@QEAAPEA_WPEB_W_N@Z 00000001400727e0 f   Options.obj
 0001:000718d8       ?LoadAppSettings@Settings@@AEAAXPEAUSettingsBase@@PEAUAppSettings@@@Z 00000001400728d8 f   Options.obj
 0001:00071cc8       ?LoadAppsSettings@Settings@@AEAAXPEAUSettingsBase@@_N@Z 0000000140072cc8 f   Options.obj
 0001:00072020       ?LoadCmdTasks@Settings@@QEAAXPEAUSettingsBase@@_N@Z 0000000140073020 f   Options.obj
 0001:0007231c       ?LoadCursorSettings@Settings@@AEAAXPEAUSettingsBase@@PEATCECursorType@@1@Z 000000014007331c f   Options.obj
 0001:000725a8       ?LoadHotkeys@Settings@@AEAAXPEAUSettingsBase@@AEB_N11@Z 00000001400735a8 f   Options.obj
 0001:000729f0       ?LoadMSZ@Settings@@QEAA_NPEAUSettingsBase@@PEB_WAEAPEA_W1_N@Z 00000001400739f0 f   Options.obj
 0001:00072a7c       ?LoadPalettes@Settings@@QEAAXPEAUSettingsBase@@@Z 0000000140073a7c f   Options.obj
 0001:00072e48       ?LoadSettings@Settings@@QEAAXAEA_NPEBUSettingsStorage@@@Z 0000000140073e48 f   Options.obj
 0001:000752d0       ?LoadSizeSettings@Settings@@IEAAXPEAUSettingsBase@@@Z 00000001400762d0 f   Options.obj
 0001:000756b8       ?MSZ2LineDelimited@Settings@@QEAAPEA_WPEB_W0_N@Z 00000001400766b8 f   Options.obj
 0001:000757e8       ?MultiLine2MSZ@Settings@@QEAAPEA_WPEB_WPEAK@Z 00000001400767e8 f   Options.obj
 0001:0007594c       ?NeedCreateAppWindow@Settings@@QEAA_NXZ 000000014007694c f   Options.obj
 0001:00075984       ?OnAutoSaveTimer@Settings@@QEAAXXZ 0000000140076984 f   Options.obj
 0001:00075a2c       ?PaletteDelete@Settings@@QEAAXPEB_W@Z 0000000140076a2c f   Options.obj
 0001:00075ac0       ?PaletteFindByColors@Settings@@QEAAPEBUColorPalette@@_NPEBU2@@Z 0000000140076ac0 f   Options.obj
 0001:00075b58       ?PaletteFindCurrent@Settings@@QEAAPEBUColorPalette@@_N@Z 0000000140076b58 f   Options.obj
 0001:00075ba4       ?PaletteGet@Settings@@QEAAPEBUColorPalette@@H@Z 0000000140076ba4 f   Options.obj
 0001:00075bac       ?PaletteGetByName@Settings@@QEAAPEBUColorPalette@@PEB_W@Z 0000000140076bac f   Options.obj
 0001:00075bcc       ?PaletteGetIndex@Settings@@QEAAHPEB_W@Z 0000000140076bcc f   Options.obj
 0001:00075c6c       ?PaletteGetPtr@Settings@@IEAAPEAUColorPalette@@H@Z 0000000140076c6c f   Options.obj
 0001:00075d3c       ?PaletteSaveAs@Settings@@QEAAXPEB_W@Z 0000000140076d3c f   Options.obj
 0001:00075d80       ?PaletteSaveAs@Settings@@QEAAXPEB_WEEEEAEAY0BA@$$CBK_N@Z 0000000140076d80 f   Options.obj
 0001:00076008       ?PaletteSetActive@Settings@@QEAAHPEB_W@Z 0000000140077008 f   Options.obj
 0001:000760a8       ?PaletteSetStdIndexes@Settings@@QEAAXXZ 00000001400770a8 f   Options.obj
 0001:00076140       ?ParseCharRanges@Settings@@QEAAHPEB_WAEAY0BAAAA@EE@Z 0000000140077140 f   Options.obj
 0001:00076284       ?PrepareFadeColors@Settings@@QEAAXPEAK0PEA_N@Z 0000000140077284 f   Options.obj
 0001:00076320       ?RClickMacro@Settings@@QEAAPEB_WW4FarMacroVersion@@@Z 0000000140077320 f   Options.obj
 0001:00076388       ?RClickMacroDefault@Settings@@QEAAPEB_WW4FarMacroVersion@@@Z 0000000140077388 f   Options.obj
 0001:0007639c       ?ReleasePointers@Settings@@IEAAXXZ 000000014007739c f   Options.obj
 0001:000765a0       ?ResetFadeColors@Settings@@QEAAXXZ 00000001400775a0 f   Options.obj
 0001:000765f0       ?ResetSavedOnExit@Settings@@QEAAXXZ 00000001400775f0 f   Options.obj
 0001:000765f8       ?SafeFarCloseMacro@Settings@@QEAAPEB_WW4FarMacroVersion@@@Z 00000001400775f8 f   Options.obj
 0001:00076660       ?SafeFarCloseMacroDefault@Settings@@QEAAPEB_WW4FarMacroVersion@@@Z 0000000140077660 f   Options.obj
 0001:00076674       ?SaveAllMacro@Settings@@QEAAPEB_WW4FarMacroVersion@@@Z 0000000140077674 f   Options.obj
 0001:000766dc       ?SaveAllMacroDefault@Settings@@QEAAPEB_WW4FarMacroVersion@@@Z 00000001400776dc f   Options.obj
 0001:000766f0       ?SaveAppSettings@Settings@@AEAAXPEAUSettingsBase@@PEAUAppSettings@@@Z 00000001400776f0 f   Options.obj
 0001:00076914       ?SaveAppsSettings@Settings@@QEAAXPEAUSettingsBase@@@Z 0000000140077914 f   Options.obj
 0001:00076b2c       ?SaveCmdTasks@Settings@@QEAA_NPEAUSettingsBase@@@Z 0000000140077b2c f   Options.obj
 0001:00076dd0       ?SaveConsoleFont@Settings@@QEAAXXZ 0000000140077dd0 f   Options.obj
 0001:00076e88       ?SaveFindOptions@Settings@@QEAAXPEAUSettingsBase@@@Z 0000000140077e88 f   Options.obj
 0001:00076f84       ?SaveHotkeys@Settings@@AEAAXPEAUSettingsBase@@H@Z 0000000140077f84 f   Options.obj
 0001:0007719c       ?SaveMSZ@Settings@@QEAAXPEAUSettingsBase@@PEB_W11_N@Z 000000014007819c f   Options.obj
 0001:000771f8       ?SavePalettes@Settings@@IEAAXPEAUSettingsBase@@@Z 00000001400781f8 f   Options.obj
 0001:00077628       ?SaveSettings@Settings@@QEAAHHPEBUSettingsStorage@@@Z 0000000140078628 f   Options.obj
 0001:0007905c       ?SaveSettingsOnExit@Settings@@QEAAXXZ 000000014007a05c f   Options.obj
 0001:00079084       ?SaveSizeSettings@Settings@@IEAAXPEAUSettingsBase@@@Z 000000014007a084 f   Options.obj
 0001:000792ec       ?SaveStartCommands@Settings@@AEAAXPEAUSettingsBase@@@Z 000000014007a2ec f   Options.obj
 0001:0007938c       ?SaveStatusSettings@Settings@@IEAAXPEAUSettingsBase@@@Z 000000014007a38c f   Options.obj
 0001:000794a4       ?SaveStdColors@Settings@@AEAAXPEAUSettingsBase@@@Z 000000014007a4a4 f   Options.obj
 0001:000795b4       ?SaveStopBuzzingDate@Settings@@QEAAXXZ 000000014007a5b4 f   Options.obj
 0001:000796d4       ?SaveVanilla@Settings@@QEAA_NPEAUSettingsBase@@@Z 000000014007a6d4 f   Options.obj
 0001:000798c4       ?SetDefaultTerminalApps@Settings@@QEAAXPEB_W@Z 000000014007a8c4 f   Options.obj
 0001:00079944       ?SetHideCaptionAlways@Settings@@QEAAX_N@Z 000000014007a944 f   Options.obj
 0001:0007994c       ?SetHotkeyById@Settings@@QEAAXHK@Z 000000014007a94c f   Options.obj
 0001:000799d4       ?SetIntelligentExceptions@Settings@@QEAAXPEB_W@Z 000000014007a9d4 f   Options.obj
 0001:00079a20       ?SetMinToTray@Settings@@QEAAX_N@Z 000000014007aa20 f   Options.obj
 0001:00079a8c       ?SetPaletteName@AppSettings@@QEAAXPEB_W@Z 000000014007aa8c f   Options.obj
 0001:00079aac       ?SortPalettes@Settings@@IEAAXXZ 000000014007aaac f   Options.obj
 0001:00079bb8       ?StatusBarFontHeight@Settings@@QEAAHXZ 000000014007abb8 f   Options.obj
 0001:00079bcc       ?StatusBarHeight@Settings@@QEAAHXZ 000000014007abcc f   Options.obj
 0001:00079c3c       ?SwitchHideCaptionAlways@Settings@@QEAAXXZ 000000014007ac3c f   Options.obj
 0001:00079c50       ?TabCloseMacro@Settings@@QEAAPEB_WW4FarMacroVersion@@@Z 000000014007ac50 f   Options.obj
 0001:00079cb8       ?TabCloseMacroDefault@Settings@@QEAAPEB_WW4FarMacroVersion@@@Z 000000014007acb8 f   Options.obj
 0001:00079ccc       ?isActivateSplitMouseOver@Settings@@QEAA_NXZ 000000014007accc f   Options.obj
 0001:00079d08       ?isAdminShield@Settings@@QEAA_NXZ 000000014007ad08 f   Options.obj
 0001:00079d14       ?isAdminSuffix@Settings@@QEAA_NXZ 000000014007ad14 f   Options.obj
 0001:00079d34       ?isAlwaysShowTrayIcon@Settings@@QEAA_NXZ 000000014007ad34 f   Options.obj
 0001:00079d88       ?isCloseOnCrossClick@Settings@@QEAA_NXZ 000000014007ad88 f   Options.obj
 0001:00079db4       ?isCloseOnLastTabClose@Settings@@QEAA_NE@Z 000000014007adb4 f   Options.obj
 0001:00079de8       ?isCloseOnLastTabClose@Settings@@QEAA_NXZ 000000014007ade8 f   Options.obj
 0001:00079df4       ?isForcedHideCaptionAlways@Settings@@QEAA_NXZ 000000014007adf4 f   Options.obj
 0001:00079e0c       ?isHideCaptionAlways@Settings@@QEAA_NXZ 000000014007ae0c f   Options.obj
 0001:00079e3c       ?isHideOnLastTabClose@Settings@@QEAA_NXZ 000000014007ae3c f   Options.obj
 0001:00079e7c       ?isIntegralSize@Settings@@QEAA_NXZ 000000014007ae7c f   Options.obj
 0001:00079ea4       ?isKeyboardHooks@Settings@@QEAA_N_N0@Z 000000014007aea4 f   Options.obj
 0001:00079ec8       ?isLogging@Settings@@QEAAII@Z 000000014007aec8 f   Options.obj
 0001:00079f20       ?isMinOnLastTabClose@Settings@@QEAA_NXZ 000000014007af20 f   Options.obj
 0001:00079f60       ?isMinToTray@Settings@@QEAA_N_N@Z 000000014007af60 f   Options.obj
 0001:00079f80       ?isMinimizeOnLoseFocus@Settings@@QEAA_NXZ 000000014007af80 f   Options.obj
 0001:00079f9c       ?isModifierExist@Settings@@QEAA_NE_N@Z 000000014007af9c f   Options.obj
 0001:0007a058       ?isRClickTouchInvert@Settings@@QEAA_NXZ 000000014007b058 f   Options.obj
 0001:0007a090       ?isTabsOnTaskBar@Settings@@QEAA_NXZ 000000014007b090 f   Options.obj
 0001:0007a0f4       ?isTransparentAllowed@Settings@@QEAA_NXZ 000000014007b0f4 f   Options.obj
 0001:0007a134       ?isUseClink@Settings@@QEAAK_N@Z 000000014007b134 f   Options.obj
 0001:0007a36c       ?isWindowOnTaskBar@Settings@@QEAA_N_N@Z 000000014007b36c f   Options.obj
 0001:0007a3f0       ??0CSettings@@QEAA@XZ      000000014007b3f0 f   OptionsClass.obj
 0001:0007a744       ??1CSettings@@UEAA@XZ      000000014007b744 f   OptionsClass.obj
 0001:0007a8e0       ??_ECSettings@@UEAAPEAXI@Z 000000014007b8e0 f i OptionsClass.obj
 0001:0007a8e0       ??_GCSettings@@UEAAPEAXI@Z 000000014007b8e0 f i OptionsClass.obj
 0001:0007a914       ?ActivatePage@CSettings@@QEAA_NW4TabHwndIndex@@@Z 000000014007b914 f   OptionsClass.obj
 0001:0007a988       ?BalloonStyle@CSettings@@QEAAKXZ 000000014007b988 f   OptionsClass.obj
 0001:0007aa1c       ?CenterMoreDlg@CSettings@@CAXPEAUHWND__@@@Z 000000014007ba1c f   OptionsClass.obj
 0001:0007aad0       ?ChangeCurrentPalette@CSettings@@QEAAXPEBUColorPalette@@_N@Z 000000014007bad0 f   OptionsClass.obj
 0001:0007ae04       ?CheckConsoleFont@CSettings@@KA_NPEAUHWND__@@@Z 000000014007be04 f   OptionsClass.obj
 0001:0007b1a0       ?CheckConsoleFontFast@CSettings@@QEAA_NPEB_W@Z 000000014007c1a0 f   OptionsClass.obj
 0001:0007b6e0       ?CheckConsoleFontRegistry@CSettings@@KA_NPEB_W@Z 000000014007c6e0 f   OptionsClass.obj
 0001:0007b964       ?CheckSelectionModifiers@CSettings@@QEAAXPEAUHWND__@@@Z 000000014007c964 f   OptionsClass.obj
 0001:0007be20       ?CheckTheming@CSettings@@QEAA_NXZ 000000014007ce20 f   OptionsClass.obj
 0001:0007bee8       ?ClearPages@CSettings@@AEAAXXZ 000000014007cee8 f   OptionsClass.obj
 0001:0007bf48       ?Create@CSetPgANSI@@SAPEAVCSetPgBase@@XZ 000000014007cf48 f i OptionsClass.obj
 0001:0007bf7c       ?Create@CSetPgAppear@@SAPEAVCSetPgBase@@XZ 000000014007cf7c f i OptionsClass.obj
 0001:0007bfb0       ?Create@CSetPgApps@@SAPEAVCSetPgBase@@XZ 000000014007cfb0 f i OptionsClass.obj
 0001:0007bfe4       ?Create@CSetPgBackgr@@SAPEAVCSetPgBase@@XZ 000000014007cfe4 f i OptionsClass.obj
 0001:0007c018       ?Create@CSetPgChildGui@@SAPEAVCSetPgBase@@XZ 000000014007d018 f i OptionsClass.obj
 0001:0007c04c       ?Create@CSetPgColors@@SAPEAVCSetPgBase@@XZ 000000014007d04c f i OptionsClass.obj
 0001:0007c080       ?Create@CSetPgComspec@@SAPEAVCSetPgBase@@XZ 000000014007d080 f i OptionsClass.obj
 0001:0007c0b4       ?Create@CSetPgConfirm@@SAPEAVCSetPgBase@@XZ 000000014007d0b4 f i OptionsClass.obj
 0001:0007c0e8       ?Create@CSetPgCursor@@SAPEAVCSetPgBase@@XZ 000000014007d0e8 f i OptionsClass.obj
 0001:0007c11c       ?Create@CSetPgDebug@@SAPEAVCSetPgBase@@XZ 000000014007d11c f i OptionsClass.obj
 0001:0007c150       ?Create@CSetPgDefTerm@@SAPEAVCSetPgBase@@XZ 000000014007d150 f i OptionsClass.obj
 0001:0007c184       ?Create@CSetPgEnvironment@@SAPEAVCSetPgBase@@XZ 000000014007d184 f i OptionsClass.obj
 0001:0007c1b8       ?Create@CSetPgFar@@SAPEAVCSetPgBase@@XZ 000000014007d1b8 f i OptionsClass.obj
 0001:0007c1ec       ?Create@CSetPgFarMacro@@SAPEAVCSetPgBase@@XZ 000000014007d1ec f i OptionsClass.obj
 0001:0007c220       ?Create@CSetPgFeatures@@SAPEAVCSetPgBase@@XZ 000000014007d220 f i OptionsClass.obj
 0001:0007c254       ?Create@CSetPgFonts@@SAPEAVCSetPgBase@@XZ 000000014007d254 f i OptionsClass.obj
 0001:0007c288       ?Create@CSetPgGeneral@@SAPEAVCSetPgBase@@XZ 000000014007d288 f i OptionsClass.obj
 0001:0007c2bc       ?Create@CSetPgHilight@@SAPEAVCSetPgBase@@XZ 000000014007d2bc f i OptionsClass.obj
 0001:0007c2f0       ?Create@CSetPgInfo@@SAPEAVCSetPgBase@@XZ 000000014007d2f0 f i OptionsClass.obj
 0001:0007c324       ?Create@CSetPgIntegr@@SAPEAVCSetPgBase@@XZ 000000014007d324 f i OptionsClass.obj
 0001:0007c358       ?Create@CSetPgKeyboard@@SAPEAVCSetPgBase@@XZ 000000014007d358 f i OptionsClass.obj
 0001:0007c38c       ?Create@CSetPgKeys@@SAPEAVCSetPgBase@@XZ 000000014007d38c f i OptionsClass.obj
 0001:0007c3c0       ?Create@CSetPgMarkCopy@@SAPEAVCSetPgBase@@XZ 000000014007d3c0 f i OptionsClass.obj
 0001:0007c3f4       ?Create@CSetPgMouse@@SAPEAVCSetPgBase@@XZ 000000014007d3f4 f i OptionsClass.obj
 0001:0007c428       ?Create@CSetPgPaste@@SAPEAVCSetPgBase@@XZ 000000014007d428 f i OptionsClass.obj
 0001:0007c45c       ?Create@CSetPgQuake@@SAPEAVCSetPgBase@@XZ 000000014007d45c f i OptionsClass.obj
 0001:0007c490       ?Create@CSetPgSizePos@@SAPEAVCSetPgBase@@XZ 000000014007d490 f i OptionsClass.obj
 0001:0007c4c4       ?Create@CSetPgStartup@@SAPEAVCSetPgBase@@XZ 000000014007d4c4 f i OptionsClass.obj
 0001:0007c4f8       ?Create@CSetPgStatus@@SAPEAVCSetPgBase@@XZ 000000014007d4f8 f i OptionsClass.obj
 0001:0007c52c       ?Create@CSetPgTabs@@SAPEAVCSetPgBase@@XZ 000000014007d52c f i OptionsClass.obj
 0001:0007c560       ?Create@CSetPgTaskbar@@SAPEAVCSetPgBase@@XZ 000000014007d560 f i OptionsClass.obj
 0001:0007c594       ?Create@CSetPgTasks@@SAPEAVCSetPgBase@@XZ 000000014007d594 f i OptionsClass.obj
 0001:0007c5c8       ?Create@CSetPgTransparent@@SAPEAVCSetPgBase@@XZ 000000014007d5c8 f i OptionsClass.obj
 0001:0007c5fc       ?Create@CSetPgUpdate@@SAPEAVCSetPgBase@@XZ 000000014007d5fc f i OptionsClass.obj
 0001:0007c630       ?Create@CSetPgViews@@SAPEAVCSetPgBase@@XZ 000000014007d630 f i OptionsClass.obj
 0001:0007c664       ?CreateConFontError@CSettings@@IEAAPEB_WPEB_W0@Z 000000014007d664 f   OptionsClass.obj
 0001:0007c810       ?Dialog@CSettings@@SAXH@Z  000000014007d810 f   OptionsClass.obj
 0001:0007c99c       ?EditConsoleFont@CSettings@@QEAA_NPEAUHWND__@@@Z 000000014007d99c f   OptionsClass.obj
 0001:0007c9e0       ?EditConsoleFontProc@CSettings@@SA_JPEAUHWND__@@I_K_J@Z 000000014007d9e0 f   OptionsClass.obj
 0001:0007d6e0       ?EnumConFamCallBack@CSettings@@SAHPEAUtagLOGFONTW@@PEAUtagNEWTEXTMETRICW@@KPEAX@Z 000000014007e6e0 f   OptionsClass.obj
 0001:0007d94c       ?EvalSize@CSettings@@QEAAJJKPEAUDpiValue@@@Z 000000014007e94c f   OptionsClass.obj
 0001:0007d9dc       ?ExportSettings@CSettings@@IEAAXXZ 000000014007e9dc f   OptionsClass.obj
 0001:0007db84       ?GetActivePage@CSettings@@QEAAPEAUHWND__@@XZ 000000014007eb84 f   OptionsClass.obj
 0001:0007dbc8       ?GetActivePageObj@CSettings@@QEAAPEAVCSetPgBase@@XZ 000000014007ebc8 f   OptionsClass.obj
 0001:0007dc10       ?GetActivePageWiki@CSettings@@QEAAPEB_WAEAUCEStr@@@Z 000000014007ec10 f   OptionsClass.obj
 0001:0007dca0       ?GetBackgroundObject@CSettings@@QEAAPEAVCBackgroundInfo@@XZ 000000014007eca0 f   OptionsClass.obj
 0001:0007dcb8       ?GetConfigName@CSettings@@QEAAPEB_WXZ 000000014007ecb8 f   OptionsClass.obj
 0001:0007dcc0       ?GetConfigPath@CSettings@@QEAAPEB_WXZ 000000014007ecc0 f   OptionsClass.obj
 0001:0007dcc8       ?GetDefaultCreateAction@CSettings@@QEAA?AW4RecreateActionParm@@XZ 000000014007ecc8 f   OptionsClass.obj
 0001:0007dcf8       ?GetDialogDpi@CSettings@@AEAAHXZ 000000014007ecf8 f   OptionsClass.obj
 0001:0007dd20       ?GetOverallDpi@CSettings@@IEAAHXZ 000000014007ed20 f   OptionsClass.obj
 0001:0007dd64       ?GetPage@CSettings@@QEAAPEAUHWND__@@W4TabHwndIndex@@@Z 000000014007ed64 f   OptionsClass.obj
 0001:0007dd7c       ?GetPageData@CSettings@@AEAAPEBUConEmuSetupPages@@W4TabHwndIndex@@@Z 000000014007ed7c f   OptionsClass.obj
 0001:0007ddc8       ?GetPageId@CSettings@@AEAA?AW4TabHwndIndex@@PEAUHWND__@@PEAPEAUConEmuSetupPages@@@Z 000000014007edc8 f   OptionsClass.obj
 0001:0007de10       ?GetPageIdByDialogId@CSettings@@AEAA?AW4TabHwndIndex@@I@Z 000000014007ee10 f   OptionsClass.obj
 0001:0007de48       ?GetPageObj@CSettings@@QEAAPEAVCSetPgBase@@W4TabHwndIndex@@@Z 000000014007ee48 f   OptionsClass.obj
 0001:0007de64       ?ImportSettings@CSettings@@IEAAXXZ 000000014007ee64 f   OptionsClass.obj
 0001:0007df40       ?InitPageNames@CSettings@@AEAAXXZ 000000014007ef40 f   OptionsClass.obj
 0001:0007dfc4       ?InitVars_Pages@CSettings@@AEAAXXZ 000000014007efc4 f   OptionsClass.obj
 0001:0007e8b0       ?InternalOpenCreate@?$MFileMapping@UPanelViewSetMapping@@@@IEAAPEAUPanelViewSetMapping@@HHH@Z 000000014007f8b0 f i OptionsClass.obj
 0001:0007ea58       ?IsBackgroundEnabled@CSettings@@QEAA_NPEAVCVirtualConsole@@@Z 000000014007fa58 f   OptionsClass.obj
 0001:0007eb78       ?IsMulti@CSettings@@QEAA_NXZ 000000014007fb78 f   OptionsClass.obj
 0001:0007eb9c       ?IsSingleInstanceArg@CSettings@@QEAA_NXZ 000000014007fb9c f   OptionsClass.obj
 0001:0007ebcc       ?LoadBackgroundFile@CSettings@@QEAA_NPEB_W_N@Z 000000014007fbcc f   OptionsClass.obj
 0001:0007ec38       ?NeedBackgroundUpdate@CSettings@@QEAAXXZ 000000014007fc38 f   OptionsClass.obj
 0001:0007ec88       ?OnCtlColorStatic@CSettings@@IEAA_JPEAUHWND__@@PEAUHDC__@@0G@Z 000000014007fc88 f   OptionsClass.obj
 0001:0007ed10       ?OnDrawFontItem@CSettings@@IEAA_JPEAUHWND__@@I_K_J@Z 000000014007fd10 f   OptionsClass.obj
 0001:0007ef48       ?OnInitDialog@CSettings@@IEAA_JXZ 000000014007ff48 f   OptionsClass.obj
 0001:0007f69c       ?OnListBoxDblClk@CSettings@@IEAA_JPEAUHWND__@@_K_J@Z 000000014008069c f   OptionsClass.obj
 0001:0007f6d4       ?OnMeasureFontItem@CSettings@@IEAA_JPEAUHWND__@@I_K_J@Z 00000001400806d4 f   OptionsClass.obj
 0001:0007f75c       ?OnPage@CSettings@@IEAA_JPEAUtagNMHDR@@@Z 000000014008075c f   OptionsClass.obj
 0001:0007fb08       ?OnPanelViewAppeared@CSettings@@QEAAXH@Z 0000000140080b08 f   OptionsClass.obj
 0001:0007fb78       ?OnResetOrReload@CSettings@@IEAAX_NPEAUSettingsStorage@@@Z 0000000140080b78 f   OptionsClass.obj
 0001:0007ffd4       ?OnSettingsClosed@CSettings@@QEAAXXZ 0000000140080fd4 f   OptionsClass.obj
 0001:000800f4       ?Performance@CSettings@@QEAAXIH@Z 00000001400810f4 f   OptionsClass.obj
 0001:0008041c       ?PostUpdateCounters@CSettings@@QEAAX_N@Z 000000014008141c f   OptionsClass.obj
 0001:0008077c       ?ProcessTipHelp@CSettings@@QEAA_JPEAUHWND__@@I_K_J@Z 000000014008177c f   OptionsClass.obj
 0001:000807e8       ?QueryDpi@CSettings@@QEAAHXZ 00000001400817e8 f   OptionsClass.obj
 0001:000807f0       ?RecreateFont@CSettings@@AEAAXG@Z 00000001400817f0 f   OptionsClass.obj
 0001:000808ac       ?RegisterTabs@CSettings@@AEAAXXZ 00000001400818ac f   OptionsClass.obj
 0001:0008090c       ?RegisterTipsFor@CSettings@@QEAAXPEAUHWND__@@@Z 000000014008190c f   OptionsClass.obj
 0001:00080ce4       ?RegisterTipsForChild@CSettings@@CAHPEAUHWND__@@_J@Z 0000000140081ce4 f   OptionsClass.obj
 0001:00080e24       ?ReleaseHandles@CSettings@@AEAAXXZ 0000000140081e24 f   OptionsClass.obj
 0001:00080e6c       ?ResetCmdHistory@CSettings@@QEAA_NPEAUHWND__@@@Z 0000000140081e6c f   OptionsClass.obj
 0001:00080ec8       ?SearchForControls@CSettings@@IEAAXXZ 0000000140081ec8 f   OptionsClass.obj
 0001:00081960       ?SelectTreeItem@CSettings@@CAXPEAUHWND__@@PEAU_TREEITEM@@_N@Z 0000000140082960 f   OptionsClass.obj
 0001:000819dc       ?SetArgBufferHeight@CSettings@@QEAAXH@Z 00000001400829dc f   OptionsClass.obj
 0001:00081a5c       ?SetBgImageDarker@CSettings@@QEAAXE_N@Z 0000000140082a5c f   OptionsClass.obj
 0001:00081b7c       ?SetConfigName@CSettings@@QEAAXPEB_W@Z 0000000140082b7c f   OptionsClass.obj
 0001:00081c50       ?SetOption@CSettings@@QEAA_NPEB_W0@Z 0000000140082c50 f   OptionsClass.obj
 0001:00081d8c       ?SetOption@CSettings@@QEAA_NPEB_WH@Z 0000000140082d8c f   OptionsClass.obj
 0001:00081e28       ?SetRequestedDpi@CSettings@@QEAAXHH@Z 0000000140082e28 f   OptionsClass.obj
 0001:00081e48       ?SetSaveCmdHistory@CSettings@@QEAAX_N@Z 0000000140082e48 f   OptionsClass.obj
 0001:00081ed0       ?SettingsLoaded@CSettings@@QEAAXKPEB_W@Z 0000000140082ed0 f   OptionsClass.obj
 0001:00082354       ?SettingsPreSave@CSettings@@QEAAXXZ 0000000140083354 f   OptionsClass.obj
 0001:0008259c       ?ShowConFontErrorTip@CSettings@@QEAAXXZ 000000014008359c f   OptionsClass.obj
 0001:000825ec       ?ShowErrorTip@CSettings@@AEAAXPEA_WPEAUHWND__@@H1PEAUtagTOOLINFOW@@1K_N@Z 00000001400835ec f   OptionsClass.obj
 0001:00082770       ?ShowFontErrorTip@CSettings@@QEAAXPEB_W@Z 0000000140083770 f   OptionsClass.obj
 0001:00082808       ?ShowModifierErrorTip@CSettings@@QEAAXPEB_WPEAUHWND__@@G@Z 0000000140083808 f   OptionsClass.obj
 0001:0008288c       ?UnregisterTabs@CSettings@@AEAAXXZ 000000014008388c f   OptionsClass.obj
 0001:000828d0       ?UpdateConsoleMode@CSettings@@QEAAXPEAVCRealConsole@@@Z 00000001400838d0 f   OptionsClass.obj
 0001:00082968       ?UpdateFontInfo@CSettings@@QEAAXXZ 0000000140083968 f   OptionsClass.obj
 0001:000829b8       ?UpdatePos@CSettings@@QEAAXHH_N@Z 00000001400839b8 f   OptionsClass.obj
 0001:00082c08       ?UpdateSize@CSettings@@QEAAXTCESize@@0@Z 0000000140083c08 f   OptionsClass.obj
 0001:00083124       ?UpdateTextColorSettings@CSettings@@QEAAXHHPEBUAppSettings@@@Z 0000000140084124 f   OptionsClass.obj
 0001:00083174       ?UpdateWinHookSettings@CSettings@@QEAAXPEAUHINSTANCE__@@@Z 0000000140084174 f   OptionsClass.obj
 0001:00083400       ?UpdateWindowMode@CSettings@@QEAAXW4ConEmuWindowMode@@@Z 0000000140084400 f   OptionsClass.obj
 0001:00083484       ?isDialogMessage@CSettings@@QEAA_NAEAUtagMSG@@@Z 0000000140084484 f   OptionsClass.obj
 0001:0008356c       ?wndOpProc@CSettings@@SA_JPEAUHWND__@@I_K_J@Z 000000014008456c f   OptionsClass.obj
 0001:00083b30       ??$_Emplace_reallocate@AEBUAppInfo@AppFoundList@FastConfig@@@?$vector@UAppInfo@AppFoundList@FastConfig@@V?$MArrayAllocator@UAppInfo@AppFoundList@FastConfig@@@@@std@@QEAAPEAUAppInfo@AppFoundList@FastConfig@@QEAU234@AEBU234@@Z 0000000140084b30 f i OptionsFast.obj
 0001:00083d30       ??$_Guess_median_unchecked@PEAUAppInfo@AppFoundList@FastConfig@@P6A_NAEBU123@0@Z@std@@YAXPEAUAppInfo@AppFoundList@FastConfig@@00P6A_NAEBU123@1@Z@Z 0000000140084d30 f i OptionsFast.obj
 0001:00083e0c       ??$_Insertion_sort_unchecked@PEAUAppInfo@AppFoundList@FastConfig@@P6A_NAEBU123@0@Z@std@@YAPEAUAppInfo@AppFoundList@FastConfig@@PEAU123@QEAU123@P6A_NAEBU123@2@Z@Z 0000000140084e0c f i OptionsFast.obj
 0001:000840fc       ??$_Make_heap_unchecked@PEAUAppInfo@AppFoundList@FastConfig@@P6A_NAEBU123@0@Z@std@@YAXPEAUAppInfo@AppFoundList@FastConfig@@0P6A_NAEBU123@1@Z@Z 00000001400850fc f i OptionsFast.obj
 0001:0008422c       ??$_Med3_unchecked@PEAUAppInfo@AppFoundList@FastConfig@@P6A_NAEBU123@0@Z@std@@YAXPEAUAppInfo@AppFoundList@FastConfig@@00P6A_NAEBU123@1@Z@Z 000000014008522c f i OptionsFast.obj
 0001:000846ec       ??$_Partition_by_median_guess_unchecked@PEAUAppInfo@AppFoundList@FastConfig@@P6A_NAEBU123@0@Z@std@@YA?AU?$pair@PEAUAppInfo@AppFoundList@FastConfig@@PEAU123@@0@PEAUAppInfo@AppFoundList@FastConfig@@0P6A_NAEBU234@1@Z@Z 00000001400856ec f i OptionsFast.obj
 0001:00085354       ??$_Pop_heap_hole_by_index@PEAUAppInfo@AppFoundList@FastConfig@@U123@P6A_NAEBU123@0@Z@std@@YAXPEAUAppInfo@AppFoundList@FastConfig@@_J1$$QEAU123@P6A_NAEBU123@3@Z@Z 0000000140086354 f i OptionsFast.obj
 0001:00085538       ??$_Pop_heap_hole_unchecked@PEAUAppInfo@AppFoundList@FastConfig@@U123@P6A_NAEBU123@0@Z@std@@YAXPEAUAppInfo@AppFoundList@FastConfig@@00$$QEAU123@P6A_NAEBU123@2@Z@Z 0000000140086538 f i OptionsFast.obj
 0001:000855e8       ??$_Pop_heap_unchecked@PEAUAppInfo@AppFoundList@FastConfig@@P6A_NAEBU123@0@Z@std@@YAXPEAUAppInfo@AppFoundList@FastConfig@@0P6A_NAEBU123@1@Z@Z 00000001400865e8 f i OptionsFast.obj
 0001:000856f8       ??$_Push_heap_by_index@PEAUAppInfo@AppFoundList@FastConfig@@U123@P6A_NAEBU123@0@Z@std@@YAXPEAUAppInfo@AppFoundList@FastConfig@@_J1$$QEAU123@P6A_NAEBU123@3@Z@Z 00000001400866f8 f i OptionsFast.obj
 0001:00085878       ??$_Sort_heap_unchecked@PEAUAppInfo@AppFoundList@FastConfig@@P6A_NAEBU123@0@Z@std@@YAXPEAUAppInfo@AppFoundList@FastConfig@@0P6A_NAEBU123@1@Z@Z 0000000140086878 f i OptionsFast.obj
 0001:000858f8       ??$_Sort_unchecked@PEAUAppInfo@AppFoundList@FastConfig@@P6A_NAEBU123@0@Z@std@@YAXPEAUAppInfo@AppFoundList@FastConfig@@0_JP6A_NAEBU123@2@Z@Z 00000001400868f8 f i OptionsFast.obj
 0001:00085a58       ??$emplace_back@AEBUAppInfo@AppFoundList@FastConfig@@@?$vector@UAppInfo@AppFoundList@FastConfig@@V?$MArrayAllocator@UAppInfo@AppFoundList@FastConfig@@@@@std@@QEAAXAEBUAppInfo@AppFoundList@FastConfig@@@Z 0000000140086a58 f i OptionsFast.obj
 0001:00085afc       ??0CVarDefs@FastConfig@@QEAA@XZ 0000000140086afc f i OptionsFast.obj
 0001:00085b78       ??0FarVerList@FastConfig@@QEAA@XZ 0000000140086b78 f i OptionsFast.obj
 0001:00085c28       ??1AppFoundList@FastConfig@@UEAA@XZ 0000000140086c28 f i OptionsFast.obj
 0001:00085c70       ??1CVarDefs@FastConfig@@QEAA@XZ 0000000140086c70 f i OptionsFast.obj
 0001:00085cec       ??1FarVerList@FastConfig@@UEAA@XZ 0000000140086cec f i OptionsFast.obj
 0001:00085d34       ??1FoundFiles@FastConfig@@QEAA@XZ 0000000140086d34 f i OptionsFast.obj
 0001:00085e34       ??_FAppFoundList@FastConfig@@QEAAXXZ 0000000140086e34 f i OptionsFast.obj
 0001:00085e78       ??_GAppFoundList@FastConfig@@UEAAPEAXI@Z 0000000140086e78 f i OptionsFast.obj
 0001:00085e78       ??_EAppFoundList@FastConfig@@UEAAPEAXI@Z 0000000140086e78 f i OptionsFast.obj
 0001:00085ee4       ??_GFarVerList@FastConfig@@UEAAPEAXI@Z 0000000140086ee4 f i OptionsFast.obj
 0001:00085ee4       ??_EFarVerList@FastConfig@@UEAAPEAXI@Z 0000000140086ee4 f i OptionsFast.obj
 0001:00085f50       ?Add@AppFoundList@FastConfig@@QEAA_NPEB_W0000ZZ 0000000140086f50 f i OptionsFast.obj
 0001:0008615c       ?Add@FoundFiles@FastConfig@@QEAAXPEB_W0@Z 000000014008715c f i OptionsFast.obj
 0001:000862c4       ?AddAppPath@AppFoundList@FastConfig@@MEAA_JPEB_W00_N000@Z 00000001400872c4 f i OptionsFast.obj
 0001:00086598       ?CheckOptionsFast@FastConfig@@YAXPEB_WK@Z 0000000140087598 f   OptionsFast.obj
 0001:00086aa8       ?CheckUnique@AppFoundList@FastConfig@@QEAA_NPEB_W@Z 0000000140087aa8 f i OptionsFast.obj
 0001:00086c10       ?Clean@AppFoundList@FastConfig@@IEAAXXZ 0000000140087c10 f i OptionsFast.obj
 0001:00086d94       ?Commit@AppFoundList@FastConfig@@UEAA_NXZ 0000000140087d94 f i OptionsFast.obj
 0001:00087e48       ?CreateDefaultTasks@FastConfig@@YAXK@Z 0000000140088e48 f   OptionsFast.obj
 0001:000891d8       ?DoPaintColorBox@FastConfig@@YAXPEAUHWND__@@AEBUColorPalette@@@Z 000000014008a1d8 f   OptionsFast.obj
 0001:00089310       ?DoStartupCommand@FastConfig@@YAXPEAUHWND__@@G@Z 000000014008a310 f   OptionsFast.obj
 0001:0008956c       ?FastMsgBox@FastConfig@@YAHPEB_WI0PEAUHWND__@@_N@Z 000000014008a56c f   OptionsFast.obj
 0001:000895e4       ?FindInstalledVersions@FarVerList@FastConfig@@QEAAXXZ 000000014008a5e4 f i OptionsFast.obj
 0001:0008a1a0       ?FindStartupTask@FastConfig@@YAXK@Z 000000014008b1a0 f   OptionsFast.obj
 0001:0008a330       ?Free@AppInfo@AppFoundList@FastConfig@@QEAAXXZ 000000014008b330 f i OptionsFast.obj
 0001:0008a3b0       ?GetStartupCommand@FastConfig@@YAPEB_WAEAUCEStr@@@Z 000000014008b3b0 f   OptionsFast.obj
 0001:0008a68c       ?MakeUnique@AppFoundList@FastConfig@@UEAAXXZ 000000014008b68c f i OptionsFast.obj
 0001:0008b92c       ?Process@CVarDefs@FastConfig@@QEAAXHPEB_W@Z 000000014008c92c f i OptionsFast.obj
 0001:0008babc       ?ScanRegistry@FarVerList@FastConfig@@IEAAXXZ 000000014008cabc f i OptionsFast.obj
 0001:0008bd04       ?SortRoutine@impl@?1??MakeUnique@AppFoundList@FastConfig@@UEAAXXZ@SA_NAEBUAppInfo@34@0@Z 000000014008cd04 f i OptionsFast.obj
 0001:0008bd90       ?SortRoutine@impl@?BM@??FindInstalledVersions@FarVerList@FastConfig@@QEAAXXZ@SA_NAEBUAppInfo@AppFoundList@4@0@Z 000000014008cd90 f i OptionsFast.obj
 0001:0008bde4       ?Trim@AppFoundList@FastConfig@@IEAA_NXZ 000000014008cde4 f i OptionsFast.obj
 0001:0008c07c       ?erase@?$MArray@UAppInfo@AppFoundList@FastConfig@@@@QEAAX_J0@Z 000000014008d07c f i OptionsFast.obj
 0001:0008c10c       ?GetItemHelp@CEHelpPopup@@SA_NHPEAUHWND__@@PEA_WK@Z 000000014008d10c f   OptionsHelp.obj
 0001:0008c26c       ?OpenSettingsWiki@CEHelpPopup@@SA_NPEAUHWND__@@G@Z 000000014008d26c f   OptionsHelp.obj
 0001:0008c3b4       ??0CPushInfo@@QEAA@XZ      000000014008d3b4 f   PushInfo.obj
 0001:0008c5ec       ?OnNotificationClick@CPushInfo@@QEAAXXZ 000000014008d5ec f   PushInfo.obj
 0001:0008c6b4       ?OpenNotificationUrl@CPushInfo@@QEAAXXZ 000000014008d6b4 f   PushInfo.obj
 0001:0008c714       ?ShowNotification@CPushInfo@@QEAA_NXZ 000000014008d714 f   PushInfo.obj
 0001:0008c798       ??0CRConData@@IEAA@PEAVCRealConsole@@PEA_WPEAUtag_CharAttr@@AEBU_CONSOLE_SCREEN_BUFFER_INFO@@AEBU_COORD@@@Z 000000014008d798 f   RConData.obj
 0001:0008c81c       ??1CRConData@@MEAA@XZ      000000014008d81c f   RConData.obj
 0001:0008c884       ??_GCRConData@@MEAAPEAXI@Z 000000014008d884 f i RConData.obj
 0001:0008c884       ??_ECRConData@@MEAAPEAXI@Z 000000014008d884 f i RConData.obj
 0001:0008c8b8       ?Allocate@CRConData@@SA_NAEAVCRConDataGuard@@PEAVCRealConsole@@PEA_WPEAUtag_CharAttr@@AEBU_CONSOLE_SCREEN_BUFFER_INFO@@AEBU_COORD@@@Z 000000014008d8b8 f   RConData.obj
 0001:0008c994       ?Allocate@CRConData@@SA_NAEAVCRConDataGuard@@PEAVCRealConsole@@_K@Z 000000014008d994 f   RConData.obj
 0001:0008cae8       ?CheckProgressInConsole@CRConData@@QEAAFI@Z 000000014008dae8 f   RConData.obj
 0001:0008d0fc       ?FindPanels@CRConData@@QEAA_NAEA_NAEAUtagRECT@@1011@Z 000000014008e0fc f   RConData.obj
 0001:0008d7d8       ?GetConsoleData@CRConData@@QEAAIPEA_WPEAUtag_CharAttr@@II_WU2@11_N4@Z 000000014008e7d8 f   RConData.obj
 0001:0008de54       ?GetConsoleLine@CRConData@@QEBA_NHAEAUConsoleLinePtr@@@Z 000000014008ee54 f   RConData.obj
 0001:0008df00       ?clear@ConsoleLinePtr@@QEAAXXZ 000000014008ef00 f   RConData.obj
 0001:0008df14       ?isValid@CRConData@@QEAA_N_N_K@Z 000000014008ef14 f   RConData.obj
 0001:0008df50       ?isValid@CRConDataGuard@@QEAA_N_K@Z 000000014008ef50 f   RConData.obj
 0001:0008df78       ??0CRConFiles@@QEAA@PEAVCRealConsole@@@Z 000000014008ef78 f   RConFiles.obj
 0001:0008df80       ?CheckParentFolders@CRConFiles@@AEAA_NPEB_W0AEAUCEStr@@@Z 000000014008ef80 f   RConFiles.obj
 0001:0008e0c8       ?GetFileFromConsole@CRConFiles@@QEAAPEB_WPEB_WAEAUCEStr@@@Z 000000014008f0c8 f   RConFiles.obj
 0001:0008e3a0       ??$swprintf_s@$0MI@@@YAHAEAY0MI@_WPEB_WZZ 000000014008f3a0 f i RConPalette.obj
 0001:0008e3f4       ??0CRConPalette@@QEAA@PEAVCRealConsole@@@Z 000000014008f3f4 f   RConPalette.obj
 0001:0008e434       ??_ECRConPalette@@UEAAPEAXI@Z 000000014008f434 f i RConPalette.obj
 0001:0008e434       ??_GCRConPalette@@UEAAPEAXI@Z 000000014008f434 f i RConPalette.obj
 0001:0008e460       ?UpdateColorTable@CRConPalette@@QEAAXPEAK_N1EEE@Z 000000014008f460 f   RConPalette.obj
 0001:0008e864       ??$SafeDelete@VCMatch@@@@YAXAEAPEAVCMatch@@@Z 000000014008f864 f i RealBuffer.obj
 0001:0008e8ac       ??$sprintf_c@$0CA@@@YAHAEAY0CA@DPEBDZZ 000000014008f8ac f i RealBuffer.obj
 0001:0008e8d8       ??$sprintf_c@$0PP@@@YAHAEAY0PP@DPEBDZZ 000000014008f8d8 f i RealBuffer.obj
 0001:0008e904       ??$swprintf_c@$0GA@@@YAHAEAY0GA@_WPEB_WZZ 000000014008f904 f i RealBuffer.obj
 0001:0008e930       ??$swprintf_c@$0HNA@@@YAHAEAY0HNA@_WPEB_WZZ 000000014008f930 f i RealBuffer.obj
 0001:0008e95c       ??$swprintf_c@$0PA@@@YAHAEAY0PA@_WPEB_WZZ 000000014008f95c f i RealBuffer.obj
 0001:0008e988       ??0CAnsiCopy@@QEAA@PEAKKK@Z 000000014008f988 f i RealBuffer.obj
 0001:0008ea3c       ??0CHtmlCopy@@QEAA@_NPEB_W1HKK@Z 000000014008fa3c f i RealBuffer.obj
 0001:0008eb64       ??0CRealBuffer@@QEAA@PEAVCRealConsole@@W4RealBufferType@@@Z 000000014008fb64 f   RealBuffer.obj
 0001:0008ece8       ??1CFormatCopy@@UEAA@XZ    000000014008fce8 f i RealBuffer.obj
 0001:0008ed84       ??1CRConDataGuard@@UEAA@XZ 000000014008fd84 f i RealBuffer.obj
 0001:0008eddc       ??1CRealBuffer@@QEAA@XZ    000000014008fddc f   RealBuffer.obj
 0001:0008ef14       ??_GCRConDataGuard@@UEAAPEAXI@Z 000000014008ff14 f i RealBuffer.obj
 0001:0008ef14       ??_ECRConDataGuard@@UEAAPEAXI@Z 000000014008ff14 f i RealBuffer.obj
 0001:0008ef14       ??_E?$CRefGuard@VCRConData@@@@UEAAPEAXI@Z 000000014008ff14 f i RealBuffer.obj
 0001:0008ef14       ??_G?$CRefGuard@VCRConData@@@@UEAAPEAXI@Z 000000014008ff14 f i RealBuffer.obj
 0001:0008ef8c       ??_ECAnsiCopy@@UEAAPEAXI@Z 000000014008ff8c f i RealBuffer.obj
 0001:0008ef8c       ??_GCAnsiCopy@@UEAAPEAXI@Z 000000014008ff8c f i RealBuffer.obj
 0001:0008efcc       ??_GCFormatCopy@@UEAAPEAXI@Z 000000014008ffcc f i RealBuffer.obj
 0001:0008efcc       ??_ECFormatCopy@@UEAAPEAXI@Z 000000014008ffcc f i RealBuffer.obj
 0001:0008f000       ??_ECHtmlCopy@@UEAAPEAXI@Z 0000000140090000 f i RealBuffer.obj
 0001:0008f000       ??_GCHtmlCopy@@UEAAPEAXI@Z 0000000140090000 f i RealBuffer.obj
 0001:0008f040       ?AllocateBuffer@?$MPipe@UCESERVER_REQ_HDR@@U1@@@IEAAPEAUCESERVER_REQ_HDR@@KPEAU2@K@Z 0000000140090040 f i RealBuffer.obj
 0001:0008f11c       ?ApplyConsoleInfo@CRealBuffer@@AEAAXPEBUCESERVER_REQ@@AEA_N11@Z 000000014009011c f   RealBuffer.obj
 0001:0008f860       ?ApplyConsoleInfo@CRealBuffer@@QEAA_NXZ 0000000140090860 f   RealBuffer.obj
 0001:0008f984       ?Attach@?$CRefGuard@VCVirtualConsole@@@@UEAA_NPEAVCVirtualConsole@@@Z 0000000140090984 f i VConRelease.obj
 0001:0008f984       ?Attach@?$CRefGuard@VCRConData@@@@UEAA_NPEAVCRConData@@@Z 0000000140090984 f i RealBuffer.obj
 0001:0008f984       ?Attach@?$CRefGuard@VCConHostSearch@CRealConsole@@@@UEAA_NPEAVCConHostSearch@CRealConsole@@@Z 0000000140090984 f i RealConsole.obj
 0001:0008f984       ?Attach@?$CRefGuard@VCVConGroup@@@@UEAA_NPEAVCVConGroup@@@Z 0000000140090984 f i VConGroup.obj
 0001:0008f9f4       ?BuferModeChangeLock@CRealBuffer@@QEAA_NXZ 00000001400909f4 f   RealBuffer.obj
 0001:0008fa08       ?BuferModeChangeUnlock@CRealBuffer@@QEAAXXZ 0000000140090a08 f   RealBuffer.obj
 0001:0008fa10       ?BufferHeight@CRealBuffer@@QEAAHI@Z 0000000140090a10 f   RealBuffer.obj
 0001:0008fa68       ?BufferToScreen@CRealBuffer@@QEAA?AU_COORD@@U2@_N1@Z 0000000140090a68 f   RealBuffer.obj
 0001:0008fb20       ?CanProcessHyperlink@CRealBuffer@@AEAA_NAEBU_COORD@@@Z 0000000140090b20 f   RealBuffer.obj
 0001:0008fc1c       ?ChangeBufferHeightMode@CRealBuffer@@QEAAX_N@Z 0000000140090c1c f   RealBuffer.obj
 0001:0008fd04       ?ChangeSelectionByKey@CRealBuffer@@QEAAXI_N0@Z 0000000140090d04 f   RealBuffer.obj
 0001:00090100       ?CheckBufferSize@CRealBuffer@@AEAA_NXZ 0000000140091100 f   RealBuffer.obj
 0001:00090164       ?Close@?$MPipe@UCESERVER_REQ_HDR@@U1@@@QEAAXXZ 0000000140091164 f i RealBuffer.obj
 0001:000901fc       ?ConsoleCursorInfo@CRealBuffer@@QEAAXPEAU_CONSOLE_CURSOR_INFO@@@Z 00000001400911fc f   RealBuffer.obj
 0001:000902bc       ?ConsoleCursorPos@CRealBuffer@@QEAAXPEAU_COORD@@@Z 00000001400912bc f   RealBuffer.obj
 0001:00090310       ?ConsoleScreenBufferInfo@CRealBuffer@@QEAAXPEAU_CONSOLE_SCREEN_BUFFER_INFO@@PEAU_SMALL_RECT@@PEAUTOPLEFTCOORD@@@Z 0000000140091310 f   RealBuffer.obj
 0001:00090378       ?CorrectSelectionAnchor@CRealBuffer@@QEAAIXZ 0000000140091378 f   RealBuffer.obj
 0001:00090410       ?CreateResult@CAnsiCopy@@UEAAPEAXXZ 0000000140091410 f i RealBuffer.obj
 0001:00090474       ?CreateResult@CHtmlCopy@@UEAAPEAXXZ 0000000140091474 f i RealBuffer.obj
 0001:000905d4       ?CreateResultInternal@CFormatCopy@@IEAAPEAXPEBD_J@Z 00000001400915d4 f i RealBuffer.obj
 0001:000907a8       ?DoCopyPaste@CRealBuffer@@QEAAX_N0@Z 00000001400917a8 f   RealBuffer.obj
 0001:000908cc       ?DoScrollBuffer@CRealBuffer@@QEAA_JHFI_N@Z 00000001400918cc f   RealBuffer.obj
 0001:00090a68       ?DoSelectionCopy@CRealBuffer@@QEAA_NW4CECopyMode@@EPEB_WPEAPEAX@Z 0000000140091a68 f   RealBuffer.obj
 0001:00090d30       ?DoSelectionCopyInt@CRealBuffer@@AEAA_NW4CECopyMode@@_NHHHHEPEB_WPEAPEAX@Z 0000000140091d30 f   RealBuffer.obj
 0001:00091b78       ?DoSelectionFinalize@CRealBuffer@@QEAA_N_NW4CECopyMode@@_KPEAPEAX@Z 0000000140092b78 f   RealBuffer.obj
 0001:00091bf8       ?DoSelectionStop@CRealBuffer@@QEAAXXZ 0000000140092bf8 f   RealBuffer.obj
 0001:00091c80       ?DumpConsole@CRealBuffer@@QEAAXPEAX@Z 0000000140092c80 f   RealBuffer.obj
 0001:00091dac       ?ExpandSelection@CRealBuffer@@QEAAXFF_N@Z 0000000140092dac f   RealBuffer.obj
 0001:000921e0       ?ExpandTextRange@CRealBuffer@@AEAA?AW4ExpandTextRangeType@@AEAU_COORD@@0W42@PEAUCEStr@@@Z 00000001400931e0 f   RealBuffer.obj
 0001:00092454       ?FindPanels@CRealBuffer@@QEAAXXZ 0000000140093454 f   RealBuffer.obj
 0001:000927f8       ?FormatColor@CAnsiCopy@@IEAAPEB_WKK_N00AEAY0FA@_W@Z 00000001400937f8 f i RealBuffer.obj
 0001:00092ae4       ?GetBufferHeight@CRealBuffer@@QEBAFXZ 0000000140093ae4 f   RealBuffer.obj
 0001:00092aec       ?GetBufferPosY@CRealBuffer@@QEBAFXZ 0000000140093aec f   RealBuffer.obj
 0001:00092b00       ?GetBufferWidth@CRealBuffer@@QEBAFXZ 0000000140093b00 f   RealBuffer.obj
 0001:00092b08       ?GetConInMode@CRealBuffer@@QEAAGXZ 0000000140093b08 f   RealBuffer.obj
 0001:00092b10       ?GetConOutMode@CRealBuffer@@QEAAGXZ 0000000140093b10 f   RealBuffer.obj
 0001:00092b18       ?GetConWindowSize@CRealBuffer@@QEBA_NAEBU_CONSOLE_SCREEN_BUFFER_INFO@@PEAH1PEAK@Z 0000000140093b18 f   RealBuffer.obj
 0001:00092c44       ?GetConsoleCP@CRealBuffer@@QEAAKXZ 0000000140093c44 f   RealBuffer.obj
 0001:00092c4c       ?GetConsoleData@CRealBuffer@@QEAAXPEA_WPEAUtag_CharAttr@@HHAEAUConEmuTextRange@@@Z 0000000140093c4c f   RealBuffer.obj
 0001:00093718       ?GetConsoleLine@CRealBuffer@@QEAA_NAEAVCRConDataGuard@@HAEAPEB_WAEAHPEAVMSectionLock@@@Z 0000000140094718 f   RealBuffer.obj
 0001:0009379c       ?GetConsoleLine@CRealBuffer@@QEAA_NHAEAVCRConDataGuard@@AEAUConsoleLinePtr@@PEAVMSectionLock@@@Z 000000014009479c f   RealBuffer.obj
 0001:000938f8       ?GetConsoleOutputCP@CRealBuffer@@QEAAKXZ 00000001400948f8 f   RealBuffer.obj
 0001:00093900       ?GetConsoleSelectionInfo@CRealBuffer@@QEAA_NPEAU_CONSOLE_SELECTION_INFO@@@Z 0000000140094900 f   RealBuffer.obj
 0001:00093924       ?GetCursorInfo@CRealBuffer@@QEAAXPEAU_COORD@@PEAU_CONSOLE_CURSOR_INFO@@@Z 0000000140094924 f   RealBuffer.obj
 0001:00093948       ?GetData@CRealBuffer@@IEAA_NAEAVCRConDataGuard@@@Z 0000000140094948 f   RealBuffer.obj
 0001:000939d8       ?GetDefaultNtvdmHeight@CRealBuffer@@QEAA?AU_COORD@@XZ 00000001400949d8 f   RealBuffer.obj
 0001:00093a50       ?GetDetector@CRealBuffer@@QEAAPEBVCRgnDetect@@XZ 0000000140094a50 f   RealBuffer.obj
 0001:00093a60       ?GetDynamicHeight@CRealBuffer@@QEBAHXZ 0000000140094a60 f   RealBuffer.obj
 0001:00093a80       ?GetKeybLayout@CRealBuffer@@QEAA_KXZ 0000000140094a80 f   RealBuffer.obj
 0001:00093a88       ?GetLastTextRangeType@CRealBuffer@@QEAA?AW4ExpandTextRangeType@@XZ 0000000140094a88 f   RealBuffer.obj
 0001:00093a98       ?GetMaxSize@CRealBuffer@@QEAA?AU_COORD@@XZ 0000000140094a98 f   RealBuffer.obj
 0001:00093aa4       ?GetPanelRect@CRealBuffer@@QEAA_N_NPEAUtagRECT@@00@Z 0000000140094aa4 f   RealBuffer.obj
 0001:00093b50       ?GetRBtnDrag@CRealBuffer@@QEAA_NPEAU_COORD@@@Z 0000000140094b50 f   RealBuffer.obj
 0001:00093b64       ?GetSelectionCellsCount@CRealBuffer@@QEAAHXZ 0000000140094b64 f   RealBuffer.obj
 0001:00093bc4       ?GetSelectionCharCount@CRealBuffer@@AEAAH_NHHHHPEAH1H@Z 0000000140094bc4 f   RealBuffer.obj
 0001:00093c9c       ?GetStatusLineCount@CRealBuffer@@QEAAHH@Z 0000000140094c9c f   RealBuffer.obj
 0001:00093dbc       ?GetTextHeight@CRealBuffer@@QEBAHXZ 0000000140094dbc f   RealBuffer.obj
 0001:00093dd0       ?GetTextWidth@CRealBuffer@@QEBAHXZ 0000000140094dd0 f   RealBuffer.obj
 0001:00093de4       ?InitBuffers@CRealBuffer@@AEAA_NKHHPEAVCRConDataGuard@@@Z 0000000140094de4 f   RealBuffer.obj
 0001:000942b0       ?InitMaxSize@CRealBuffer@@QEAAXAEBU_COORD@@@Z 00000001400952b0 f   RealBuffer.obj
 0001:000942bc       ?InitSBI@CRealBuffer@@QEAAXAEBU_CONSOLE_SCREEN_BUFFER_INFO@@@Z 00000001400952bc f   RealBuffer.obj
 0001:00094408       ?InternalOpenCreate@?$MFileMapping@UCESERVER_CONSAVE_MAP@@@@IEAAPEAUCESERVER_CONSAVE_MAP@@HHH@Z 0000000140095408 f i RealBuffer.obj
 0001:000945b0       ?InternalOpenCreate@?$MFileMapping@UCESERVER_CONSAVE_MAPHDR@@@@IEAAPEAUCESERVER_CONSAVE_MAPHDR@@HHH@Z 00000001400955b0 f i RealBuffer.obj
 0001:00094758       ?IsBufferHeightTurnedOn@CRealBuffer@@AEAA_NAEBU_CONSOLE_SCREEN_BUFFER_INFO@@@Z 0000000140095758 f   RealBuffer.obj
 0001:000947a8       ?IsTrueColorerBufferChanged@CRealBuffer@@AEAA_NXZ 00000001400957a8 f   RealBuffer.obj
 0001:000949a4       ?LineAdd@CFormatCopy@@UEAAXPEB_WPEBGPEBK_J@Z 00000001400959a4 f i RealBuffer.obj
 0001:00094a70       ?LineAdd@CFormatCopy@@UEAAXPEB_WPEBUtag_CharAttr@@_J@Z 0000000140095a70 f i RealBuffer.obj
 0001:00094b54       ?LoadAlternativeConsole@CRealBuffer@@QEAA_NW4LoadAltMode@@@Z 0000000140095b54 f   RealBuffer.obj
 0001:00095090       ?LoadDataFromDump@CRealBuffer@@AEAA_NAEBU_CONSOLE_SCREEN_BUFFER_INFO@@PEBU_CHAR_INFO@@K@Z 0000000140096090 f   RealBuffer.obj
 0001:00095490       ?LoadDataFromSrv@CRealBuffer@@AEAA_NAEAVCRConDataGuard@@KPEAU_CHAR_INFO@@@Z 0000000140096490 f   RealBuffer.obj
 0001:000957e8       ?LoadDumpConsole@CRealBuffer@@QEAA_NPEB_W@Z 00000001400967e8 f   RealBuffer.obj
 0001:00095d9c       ?MarkFindText@CRealBuffer@@QEAAXHPEB_W_N1@Z 0000000140096d9c f   RealBuffer.obj
 0001:000963f4       ?OnBufferHeight@CRealBuffer@@QEAAXXZ 00000001400973f4 f   RealBuffer.obj
 0001:00096414       ?OnKeyboard@CRealBuffer@@QEAA_NPEAUHWND__@@I_K_JPEB_W@Z 0000000140097414 f   RealBuffer.obj
 0001:00096620       ?OnKeysSending@CRealBuffer@@QEAAXXZ 0000000140097620 f   RealBuffer.obj
 0001:0009667c       ?OnMouse@CRealBuffer@@QEAA_NI_KHHU_COORD@@@Z 000000014009767c f   RealBuffer.obj
 0001:00097268       ?OnMouseSelection@CRealBuffer@@AEAA_NI_KHH@Z 0000000140098268 f   RealBuffer.obj
 0001:00097724       ?OnTimerCheckSelection@CRealBuffer@@QEAAXXZ 0000000140098724 f   RealBuffer.obj
 0001:0009784c       ?Open@?$MPipe@UCESERVER_REQ_HDR@@U1@@@QEAAHXZ 000000014009884c f i RealBuffer.obj
 0001:00097934       ?ParBegin@CAnsiCopy@@MEAAXXZ 0000000140098934 f i RealBuffer.obj
 0001:0009795c       ?ParBegin@CHtmlCopy@@MEAAXXZ 000000014009895c f i RealBuffer.obj
 0001:00097984       ?ParEnd@CAnsiCopy@@MEAAXXZ 0000000140098984 f i RealBuffer.obj
 0001:000979b0       ?ParEnd@CHtmlCopy@@MEAAXXZ 00000001400989b0 f i RealBuffer.obj
 0001:000979dc       ?PatchMouseCoords@CRealBuffer@@AEAA_NAEAH0AEAU_COORD@@@Z 00000001400989dc f   RealBuffer.obj
 0001:00097bdc       ?PreFillBuffers@CRealBuffer@@QEAAXXZ 0000000140098bdc f   RealBuffer.obj
 0001:00097cac       ?PreInit@CRealBuffer@@QEAA_NXZ 0000000140098cac f   RealBuffer.obj
 0001:00097e34       ?PrepareColorTable@CRealBuffer@@AEAAXPEBUAppSettings@@PEAPEAUtag_CharAttr@@1@Z 0000000140098e34 f   RealBuffer.obj
 0001:00097f34       ?PrepareTransparent@CRealBuffer@@AEAAXPEA_WPEAUtag_CharAttr@@HH@Z 0000000140098f34 f   RealBuffer.obj
 0001:00098164       ?ProcessFarHyperlink@CRealBuffer@@QEAA_NIU_COORD@@_N@Z 0000000140099164 f   RealBuffer.obj
 0001:00098bc8       ?ProcessFarHyperlink@CRealBuffer@@QEAA_N_N@Z 0000000140099bc8 f   RealBuffer.obj
 0001:00098d24       ?ProcessSelectionHotKey@CRealBuffer@@QEAAPEBUConEmuHotKey@@AEBUConEmuChord@@_NPEB_W@Z 0000000140099d24 f   RealBuffer.obj
 0001:00098fe8       ?QueryCellInfo@CRealBuffer@@QEAAXPEA_WH@Z 0000000140099fe8 f   RealBuffer.obj
 0001:000991cc       ?RawAdd@CFormatCopy@@IEAAXPEB_W_J@Z 000000014009a1cc f i RealBuffer.obj
 0001:00099304       ?Release@?$CRefGuard@VCRConData@@@@UEAAXXZ 000000014009a304 f i RealBuffer.obj
 0001:00099304       ?Release@?$CRefGuard@VCVirtualConsole@@@@UEAAXXZ 000000014009a304 f i VConGroup.obj
 0001:00099304       ?Release@?$CRefGuard@VCConHostSearch@CRealConsole@@@@UEAAXXZ 000000014009a304 f i RealConsole.obj
 0001:00099304       ?Release@?$CRefGuard@VCVConGroup@@@@UEAAXXZ 000000014009a304 f i VConGroup.obj
 0001:00099348       ?ReleaseMem@CRealBuffer@@QEAAXXZ 000000014009a348 f   RealBuffer.obj
 0001:00099380       ?ResetBuffer@CRealBuffer@@QEAAXXZ 000000014009a380 f   RealBuffer.obj
 0001:000994a0       ?ResetConData@CRealBuffer@@QEAAXXZ 000000014009a4a0 f   RealBuffer.obj
 0001:000994b0       ?ResetLastMousePos@CRealBuffer@@AEAA_NXZ 000000014009a4b0 f   RealBuffer.obj
 0001:000994f8       ?ResetTopLeft@CRealBuffer@@QEAAXXZ 000000014009a4f8 f   RealBuffer.obj
 0001:00099534       ?ScreenToBuffer@CRealBuffer@@QEAA?AU_COORD@@U2@@Z 000000014009a534 f   RealBuffer.obj
 0001:0009956c       ?SetBufferHeightMode@CRealBuffer@@QEAAX_N0@Z 000000014009a56c f   RealBuffer.obj
 0001:000995b4       ?SetChange2Size@CRealBuffer@@QEAAXHH@Z 000000014009a5b4 f   RealBuffer.obj
 0001:000995c4       ?SetConsoleSize@CRealBuffer@@QEAA_NFFGK@Z 000000014009a5c4 f   RealBuffer.obj
 0001:000998ec       ?SetConsoleSizeSrv@CRealBuffer@@AEAA_NGGGK@Z 000000014009a8ec f   RealBuffer.obj
 0001:0009a264       ?SetKeybLayout@CRealBuffer@@QEAAX_K@Z 000000014009b264 f   RealBuffer.obj
 0001:0009a26c       ?SetRBtnDrag@CRealBuffer@@QEAAX_NPEBU_COORD@@@Z 000000014009b26c f   RealBuffer.obj
 0001:0009a284       ?SetTopLeft@CRealBuffer@@IEAA_NHH_N0@Z 000000014009b284 f   RealBuffer.obj
 0001:0009a3cc       ?ShowKeyBarHint@CRealBuffer@@QEAAXG@Z 000000014009b3cc f   RealBuffer.obj
 0001:0009a404       ?StartSelection@CRealBuffer@@QEAAX_NFF0IPEAU_COORD@@K@Z 000000014009b404 f   RealBuffer.obj
 0001:0009a6ac       ?StoreLastTextRange@CRealBuffer@@AEAA_NW4ExpandTextRangeType@@@Z 000000014009b6ac f   RealBuffer.obj
 0001:0009a700       ?StorePausedState@CRealBuffer@@QEAAXW4CEPauseCmd@@@Z 000000014009b700 f   RealBuffer.obj
 0001:0009a750       ?SyncConsole2Window@CRealBuffer@@QEAAXFF@Z 000000014009b750 f   RealBuffer.obj
 0001:0009a848       ?TextAdd@CAnsiCopy@@MEAAXPEB_W_JKK_N22@Z 000000014009b848 f i RealBuffer.obj
 0001:0009a98c       ?TextAdd@CHtmlCopy@@MEAAXPEB_W_JKK_N22@Z 000000014009b98c f i RealBuffer.obj
 0001:0009ac80       ?TextHeight@CRealBuffer@@QEBAHXZ 000000014009bc80 f   RealBuffer.obj
 0001:0009ac9c       ?TextWidth@CRealBuffer@@QEBAHXZ 000000014009bc9c f   RealBuffer.obj
 0001:0009acb8       ?Transact@?$MPipe@UCESERVER_REQ_HDR@@U1@@@QEAAHPEBUCESERVER_REQ_HDR@@KPEAPEBU2@@Z 000000014009bcb8 f i RealBuffer.obj
 0001:0009b0e4       ?UpdateSelection@CRealBuffer@@QEAAXXZ 000000014009c0e4 f   RealBuffer.obj
 0001:0009b11c       ?isConSelectMode@CRealBuffer@@QEAA_NXZ 000000014009c11c f   RealBuffer.obj
 0001:0009b160       ?isConsoleDataChanged@CRealBuffer@@QEAA_NXZ 000000014009c160 f   RealBuffer.obj
 0001:0009b170       ?isCursorVisible@CRealBuffer@@QEAA_NXZ 000000014009c170 f   RealBuffer.obj
 0001:0009b1b8       ?isDataValid@CRealBuffer@@IEAA_NXZ 000000014009c1b8 f   RealBuffer.obj
 0001:0009b298       ?isFarMenuOrMacro@CRealBuffer@@QEAA_NXZ 000000014009c298 f   RealBuffer.obj
 0001:0009b468       ?isInitialized@CRealBuffer@@QEAA_NXZ 000000014009c468 f   RealBuffer.obj
 0001:0009b48c       ?isLeftPanel@CRealBuffer@@QEAA_NXZ 000000014009c48c f   RealBuffer.obj
 0001:0009b490       ?isMouseClickExtension@CRealBuffer@@QEAA_NXZ 000000014009c490 f   RealBuffer.obj
 0001:0009b4e0       ?isMouseInsideSelection@CRealBuffer@@QEAA_NHH@Z 000000014009c4e0 f   RealBuffer.obj
 0001:0009b5f4       ?isMouseSelectionPresent@CRealBuffer@@QEAA_NXZ 000000014009c5f4 f   RealBuffer.obj
 0001:0009b608       ?isPaused@CRealBuffer@@QEAA_NXZ 000000014009c608 f   RealBuffer.obj
 0001:0009b61c       ?isRightPanel@CRealBuffer@@QEAA_NXZ 000000014009c61c f   RealBuffer.obj
 0001:0009b620       ?isScroll@CRealBuffer@@QEAA_NW4RealBufferScroll@@@Z 000000014009c620 f   RealBuffer.obj
 0001:0009b628       ?isSelectionAllowed@CRealBuffer@@QEAA_NXZ 000000014009c628 f   RealBuffer.obj
 0001:0009b7cc       ?isSelectionPresent@CRealBuffer@@QEAA_NXZ 000000014009c7cc f   RealBuffer.obj
 0001:0009b7e0       ?isStreamSelection@CRealBuffer@@QEAA_NXZ 000000014009c7e0 f   RealBuffer.obj
 0001:0009b7f4       ??$SafeDelete@UTermX@@@@YAXAEAPEAUTermX@@@Z 000000014009c7f4 f i RealConsole.obj
 0001:0009b824       ??$SafeDelete@VCProcessData@@@@YAXAEAPEAVCProcessData@@@Z 000000014009c824 f i RealConsole.obj
 0001:0009b89c       ??$SafeDelete@VCTab@@@@YAXAEAPEAVCTab@@@Z 000000014009c89c f i RealConsole.obj
 0001:0009b8e4       ??$_Emplace_reallocate@AEBUConProcess@@@?$vector@UConProcess@@V?$MArrayAllocator@UConProcess@@@@@std@@QEAAPEAUConProcess@@QEAU2@AEBU2@@Z 000000014009c8e4 f i RealConsole.obj
 0001:0009bacc       ??$_Emplace_reallocate@AEBUtagPROCESSENTRY32W@@@?$vector@UtagPROCESSENTRY32W@@V?$MArrayAllocator@UtagPROCESSENTRY32W@@@@@std@@QEAAPEAUtagPROCESSENTRY32W@@QEAU2@AEBU2@@Z 000000014009cacc f i RealConsole.obj
 0001:0009bcc4       ??$emplace_back@AEBUConProcess@@@?$vector@UConProcess@@V?$MArrayAllocator@UConProcess@@@@@std@@QEAAXAEBUConProcess@@@Z 000000014009ccc4 f i RealConsole.obj
 0001:0009bd40       ??$emplace_back@AEBUtagPROCESSENTRY32W@@@?$vector@UtagPROCESSENTRY32W@@V?$MArrayAllocator@UtagPROCESSENTRY32W@@@@@std@@QEAAXAEBUtagPROCESSENTRY32W@@@Z 000000014009cd40 f i RealConsole.obj
 0001:0009bddc       ??$ltow_s@$0BE@@@YAPEB_WHAEAY0BE@_WH@Z 000000014009cddc f i RealConsole.obj
 0001:0009be08       ??$sprintf_c@$0MA@@@YAHAEAY0MA@DPEBDZZ 000000014009ce08 f i RealConsole.obj
 0001:0009be34       ??$swprintf_c@$04@@YAHAEAY04_WPEB_WZZ 000000014009ce34 f i RealConsole.obj
 0001:0009be60       ??$swprintf_c@$07@@YAHAEAY07_WPEB_WZZ 000000014009ce60 f i RealConsole.obj
 0001:0009be8c       ??$swprintf_c@$0BAD@@@YAHAEAY0BAD@_WPEB_WZZ 000000014009ce8c f i RealConsole.obj
 0001:0009beb8       ??$swprintf_c@$0BGI@@@YAHAEAY0BGI@_WPEB_WZZ 000000014009ceb8 f i RealConsole.obj
 0001:0009bee4       ??$swprintf_c@$0BO@@@YAHAEAY0BO@_WPEB_WZZ 000000014009cee4 f i RealConsole.obj
 0001:0009bf10       ??$ultow_s@$0DAM@@@YAPEB_WIAEAY0DAM@_WH@Z 000000014009cf10 f i RealConsole.obj
 0001:0009bf3c       ??$ultow_s@$0EBA@@@YAPEB_WIAEAY0EBA@_WH@Z 000000014009cf3c f i RealConsole.obj
 0001:0009bf68       ??$xf_interlocked_new@UTermX@@@@YAPEAUTermX@@AEAPEAU0@$$QEAPEAU0@@Z 000000014009cf68 f i RealConsole.obj
 0001:0009bf9c       ??0?$MPipe@UCESERVER_REQ_HDR@@U1@@@QEAA@XZ 000000014009cf9c f i RealConsole.obj
 0001:0009c0a4       ??0CConHostSearch@CRealConsole@@QEAA@XZ 000000014009d0a4 f   RealConsole.obj
 0001:0009c128       ??0CRealConsole@@QEAA@PEAVCVirtualConsole@@PEAVCConEmuMain@@@Z 000000014009d128 f   RealConsole.obj
 0001:0009c3d4       ??1?$CRefGuard@VCConHostSearch@CRealConsole@@@@UEAA@XZ 000000014009d3d4 f i RealConsole.obj
 0001:0009c42c       ??1?$MPipe@UCESERVER_REQ_HDR@@U1@@@UEAA@XZ 000000014009d42c f i RealConsole.obj
 0001:0009c47c       ??1CRealConsole@@QEAA@XZ   000000014009d47c f   RealConsole.obj
 0001:0009cb04       ??1CStartEnvTitle@@UEAA@XZ 000000014009db04 f i RealConsole.obj
 0001:0009cb10       ??1_TabsInfo@CRealConsole@@QEAA@XZ 000000014009db10 f i RealConsole.obj
 0001:0009cb18       ??_G?$CRefGuard@VCConHostSearch@CRealConsole@@@@UEAAPEAXI@Z 000000014009db18 f i RealConsole.obj
 0001:0009cb18       ??_E?$CRefGuard@VCConHostSearch@CRealConsole@@@@UEAAPEAXI@Z 000000014009db18 f i RealConsole.obj
 0001:0009cb90       ??_G?$MPipe@UCESERVER_REQ_HDR@@U1@@@UEAAPEAXI@Z 000000014009db90 f i RealConsole.obj
 0001:0009cb90       ??_E?$MPipe@UCESERVER_REQ_HDR@@U1@@@UEAAPEAXI@Z 000000014009db90 f i RealConsole.obj
 0001:0009cc00       ??_GCConHostSearch@CRealConsole@@UEAAPEAXI@Z 000000014009dc00 f i RealConsole.obj
 0001:0009cc00       ??_ECConHostSearch@CRealConsole@@UEAAPEAXI@Z 000000014009dc00 f i RealConsole.obj
 0001:0009cc80       ??_ECStartEnvBase@@UEAAPEAXI@Z 000000014009dc80 f i RealConsole.obj
 0001:0009cc80       ??_GCStartEnvBase@@UEAAPEAXI@Z 000000014009dc80 f i RealConsole.obj
 0001:0009ccac       ?ActivateFarWindow@CRealConsole@@QEAA_NH@Z 000000014009dcac f   RealConsole.obj
 0001:0009cf88       ?AddIndicatorsCtrlState@CRealConsole@@QEAAXAEAK@Z 000000014009df88 f   RealConsole.obj
 0001:0009cfd0       ?AddModifiersCtrlState@CRealConsole@@QEAAXAEAK@Z 000000014009dfd0 f   RealConsole.obj
 0001:0009d034       ?AdminDuplicate@CRealConsole@@QEAAXXZ 000000014009e034 f   RealConsole.obj
 0001:0009d05c       ?AttachConemuC@CRealConsole@@QEAA_NPEAUHWND__@@KPEBUCESERVER_REQ_STARTSTOP@@AEAUCESERVER_REQ_SRVSTARTSTOPRET@@@Z 000000014009e05c f   RealConsole.obj
 0001:0009d2bc       ?AutoCopyTimer@CRealConsole@@QEAAXXZ 000000014009e2bc f   RealConsole.obj
 0001:0009d32c       ?BufferToScreen@CRealConsole@@QEAA?AU_COORD@@U2@_N1@Z 000000014009e32c f   RealConsole.obj
 0001:0009d35c       ?CanActivateFarWindow@CRealConsole@@QEAAKH@Z 000000014009e35c f   RealConsole.obj
 0001:0009d51c       ?CanCloseTab@CRealConsole@@QEAA_N_N@Z 000000014009e51c f   RealConsole.obj
 0001:0009d540       ?CanCutChildFrame@CRealConsole@@SA_NPEB_W@Z 000000014009e540 f   RealConsole.obj
 0001:0009d590       ?ChangeAffinityPriority@CRealConsole@@QEAA_NPEB_W0@Z 000000014009e590 f   RealConsole.obj
 0001:0009d7a4       ?ChangeBufferHeightMode@CRealConsole@@QEAAX_N@Z 000000014009e7a4 f   RealConsole.obj
 0001:0009d7c0       ?ChangePromptPosition@CRealConsole@@AEAA_NPEBUAppSettings@@U_COORD@@@Z 000000014009e7c0 f   RealConsole.obj
 0001:0009d918       ?ChangeSelectionByKey@CRealConsole@@QEAAXI_N0@Z 000000014009e918 f   RealConsole.obj
 0001:0009d924       ?CheckFarStates@CRealConsole@@AEAAXXZ 000000014009e924 f   RealConsole.obj
 0001:0009db60       ?CheckPanelTitle@CRealConsole@@AEAAXXZ 000000014009eb60 f   RealConsole.obj
 0001:0009dbfc       ?CheckProgressInTitle@CRealConsole@@IEAAFXZ 000000014009ebfc f   RealConsole.obj
 0001:0009ddf8       ?CheckVConRConPointer@CRealConsole@@AEAAX_N@Z 000000014009edf8 f   RealConsole.obj
 0001:0009deb0       ?ChildSystemMenu@CRealConsole@@QEAAXXZ 000000014009eeb0 f   RealConsole.obj
 0001:0009df94       ?CloseColorMapping@CRealConsole@@AEAAXXZ 000000014009ef94 f   RealConsole.obj
 0001:0009e014       ?CloseConsole@CRealConsole@@QEAAX_N00@Z 000000014009f014 f   RealConsole.obj
 0001:0009e250       ?CloseConsoleWindow@CRealConsole@@QEAAX_N@Z 000000014009f250 f   RealConsole.obj
 0001:0009e2d0       ?CloseFarMapData@CRealConsole@@AEAAXPEAVMSectionLock@@@Z 000000014009f2d0 f   RealConsole.obj
 0001:0009e394       ?CloseMapHeader@CRealConsole@@AEAAXXZ 000000014009f394 f   RealConsole.obj
 0001:0009e494       ?CloseTab@CRealConsole@@QEAAXXZ 000000014009f494 f   RealConsole.obj
 0001:0009e6ac       ?ConHostSearch@CRealConsole@@IEAAK_N@Z 000000014009f6ac f   RealConsole.obj
 0001:0009e9a4       ?ConHostSearchPrepare@CRealConsole@@IEAAXXZ 000000014009f9a4 f   RealConsole.obj
 0001:0009eb50       ?ConHostSetPID@CRealConsole@@IEAAXK@Z 000000014009fb50 f   RealConsole.obj
 0001:0009eba0       ?ConWnd@CRealConsole@@QEAAPEAUHWND__@@XZ 000000014009fba0 f   RealConsole.obj
 0001:0009ebb0       ?Construct@CRealConsole@@QEAA_NPEAVCVirtualConsole@@PEAURConStartArgsEx@@@Z 000000014009fbb0 f   RealConsole.obj
 0001:0009f35c       ?CoordInPanel@CRealConsole@@QEAAHU_COORD@@_N@Z 00000001400a035c f   RealConsole.obj
 0001:0009f424       ?CorrectGuiChildRect@CRealConsole@@SAXKKAEAUtagRECT@@PEB_W@Z 00000001400a0424 f   RealConsole.obj
 0001:0009f560       ?CreateColorMapping@CRealConsole@@AEAAXXZ 00000001400a0560 f   RealConsole.obj
 0001:0009f6bc       ?CreateCommandLine@CRealConsole@@QEAAPEA_W_N@Z 00000001400a06bc f   RealConsole.obj
 0001:0009f7dc       ?CreateLogFiles@CRealConsole@@AEAAXXZ 00000001400a07dc f   RealConsole.obj
 0001:0009f97c       ?CreateOrRunAs@CRealConsole@@KA_NPEAV1@AEAURConStartArgsEx@@PEA_WAEAPEB_WAEAU_STARTUPINFOW@@AEAU_PROCESS_INFORMATION@@AEAPEAU_SHELLEXECUTEINFOW@@AEAK_N@Z 00000001400a097c f   RealConsole.obj
 0001:0009ffd4       ?CtrlWinAltSpace@CRealConsole@@QEAAXXZ 00000001400a0fd4 f   RealConsole.obj
 0001:000a0034       ?DeleteWordKeyPress@CRealConsole@@QEAA_N_N@Z 00000001400a1034 f   RealConsole.obj
 0001:000a01e4       ?DetachRCon@CRealConsole@@QEAA_N_N00@Z 00000001400a11e4 f   RealConsole.obj
 0001:000a05fc       ?DoEndFindText@CRealConsole@@QEAAXXZ 00000001400a15fc f   RealConsole.obj
 0001:000a06a0       ?DoFindText@CRealConsole@@QEAAXH@Z 00000001400a16a0 f   RealConsole.obj
 0001:000a0778       ?DoLockUnlock@CRealConsole@@QEAAX_N@Z 00000001400a1778 f   RealConsole.obj
 0001:000a0954       ?DoRenameTab@CRealConsole@@QEAAXXZ 00000001400a1954 f   RealConsole.obj
 0001:000a09c4       ?DoScroll@CRealConsole@@QEAA_JHI@Z 00000001400a19c4 f   RealConsole.obj
 0001:000a0c8c       ?DoSelectionCopy@CRealConsole@@QEAA_NW4CECopyMode@@EPEB_W@Z 00000001400a1c8c f   RealConsole.obj
 0001:000a0e54       ?DoSelectionStop@CRealConsole@@QEAAXXZ 00000001400a1e54 f   RealConsole.obj
 0001:000a0e60       ?DumpConsole@CRealConsole@@QEAAXPEAX@Z 00000001400a1e60 f   RealConsole.obj
 0001:000a0e6c       ?DuplicateRoot@CRealConsole@@QEAA_N_N0PEB_W11@Z 00000001400a1e6c f   RealConsole.obj
 0001:000a16c4       ?EvalPromptCtrlBSCount@CRealConsole@@AEAAHPEBUAppSettings@@@Z 00000001400a26c4 f   RealConsole.obj
 0001:000a1918       ?EvalPromptLeftRightCount@CRealConsole@@AEAAHPEBUAppSettings@@U_COORD@@AEAG@Z 00000001400a2918 f   RealConsole.obj
 0001:000a1dd4       ?ExpandSelection@CRealConsole@@QEAAXFF@Z 00000001400a2dd4 f   RealConsole.obj
 0001:000a1e20       ?FinalRelease@CConHostSearch@CRealConsole@@MEAAXXZ 00000001400a2e20 f   RealConsole.obj
 0001:000a1e5c       ?FindChildGuiWindowProc@CRealConsole@@CAHPEAUHWND__@@_J@Z 00000001400a2e5c f   RealConsole.obj
 0001:000a1ea8       ?FindPicViewFrom@CRealConsole@@AEAAPEAUHWND__@@PEAU2@@Z 00000001400a2ea8 f   RealConsole.obj
 0001:000a1f1c       ?GetActivateFarWindowError@CRealConsole@@QEAAPEB_WPEA_W_K@Z 00000001400a2f1c f   RealConsole.obj
 0001:000a1fc4       ?GetActiveAppSettingsId@CRealConsole@@QEAAH_N@Z 00000001400a2fc4 f   RealConsole.obj
 0001:000a20ac       ?GetActiveBufferType@CRealConsole@@QEAA?AW4RealBufferType@@XZ 00000001400a30ac f   RealConsole.obj
 0001:000a20c4       ?GetActiveDlgFlags@CRealConsole@@QEAAKXZ 00000001400a30c4 f   RealConsole.obj
 0001:000a20f4       ?GetActivePID@CRealConsole@@QEAAKPEAUConProcess@@@Z 00000001400a30f4 f   RealConsole.obj
 0001:000a2150       ?GetActiveProcessInfo@CRealConsole@@QEAAPEB_WAEAUCEStr@@@Z 00000001400a3150 f   RealConsole.obj
 0001:000a23c4       ?GetActiveProcessName@CRealConsole@@QEAAPEB_WXZ 00000001400a33c4 f   RealConsole.obj
 0001:000a23e0       ?GetActiveTab@CRealConsole@@QEAAHXZ 00000001400a33e0 f   RealConsole.obj
 0001:000a23f0       ?GetActiveTabType@CRealConsole@@QEAAIXZ 00000001400a33f0 f   RealConsole.obj
 0001:000a23f8       ?GetAnsiLogInfo@CRealConsole@@QEAA?AUConEmuAnsiLog@@XZ 00000001400a33f8 f   RealConsole.obj
 0001:000a2490       ?GetAppCursorKeys@CRealConsole@@QEAA_NXZ 00000001400a3490 f   RealConsole.obj
 0001:000a24ac       ?GetArgs@CRealConsole@@QEAAAEBURConStartArgsEx@@XZ 00000001400a34ac f   RealConsole.obj
 0001:000a24b4       ?GetBracketedPaste@CRealConsole@@QEAA_NXZ 00000001400a34b4 f   RealConsole.obj
 0001:000a24c8       ?GetCmd@CRealConsole@@QEAAPEB_W_N@Z 00000001400a34c8 f   RealConsole.obj
 0001:000a2500       ?GetConStatus@CRealConsole@@QEAAPEB_WXZ 00000001400a3500 f   RealConsole.obj
 0001:000a2518       ?GetConsoleCP@CRealConsole@@QEAAKXZ 00000001400a3518 f   RealConsole.obj
 0001:000a2524       ?GetConsoleCurDir@CRealConsole@@QEAAPEB_WAEAUCEStr@@_N@Z 00000001400a3524 f   RealConsole.obj
 0001:000a2648       ?GetConsoleCursorInfo@CRealConsole@@QEAAXPEAU_CONSOLE_CURSOR_INFO@@PEAU_COORD@@@Z 00000001400a3648 f   RealConsole.obj
 0001:000a2690       ?GetConsoleData@CRealConsole@@QEAAXPEA_WPEAUtag_CharAttr@@HHAEAUConEmuTextRange@@@Z 00000001400a3690 f   RealConsole.obj
 0001:000a26cc       ?GetConsoleInfo@CRealConsole@@QEAAPEB_WPEB_WAEAUCEStr@@@Z 00000001400a36cc f   RealConsole.obj
 0001:000a2a30       ?GetConsoleInfo@CRealConsole@@QEAAXPEAUConsoleInfoArg@@@Z 00000001400a3a30 f   RealConsole.obj
 0001:000a2a78       ?GetConsoleOutputCP@CRealConsole@@QEAAKXZ 00000001400a3a78 f   RealConsole.obj
 0001:000a2a84       ?GetConsoleScreenBufferInfo@CRealConsole@@QEAAXPEAU_CONSOLE_SCREEN_BUFFER_INFO@@@Z 00000001400a3a84 f   RealConsole.obj
 0001:000a2aa4       ?GetConsoleStartDir@CRealConsole@@QEAAPEB_WAEAUCEStr@@@Z 00000001400a3aa4 f   RealConsole.obj
 0001:000a2afc       ?GetCursorShape@CRealConsole@@QEAA?AW4TermCursorShapes@@XZ 00000001400a3afc f   RealConsole.obj
 0001:000a2b0c       ?GetDefaultAppSettingsId@CRealConsole@@AEAAHXZ 00000001400a3b0c f   RealConsole.obj
 0001:000a2da4       ?GetDetector@CRealConsole@@QEAAPEBVCRgnDetect@@XZ 00000001400a3da4 f   RealConsole.obj
 0001:000a2db8       ?GetFarInfo@CRealConsole@@QEAAPEBUCEFAR_INFO_MAPPING@@XZ 00000001400a3db8 f   RealConsole.obj
 0001:000a2dcc       ?GetFarPID@CRealConsole@@QEAAK_N@Z 00000001400a3dcc f   RealConsole.obj
 0001:000a2e04       ?GetFarStatus@CRealConsole@@QEAAKXZ 00000001400a3e04 f   RealConsole.obj
 0001:000a2e1c       ?GetFarVersion@CRealConsole@@QEAA_NPEAUFarVersion@@@Z 00000001400a3e1c f   RealConsole.obj
 0001:000a2e80       ?GetFileFromConsole@CRealConsole@@QEAAPEB_WPEB_WAEAUCEStr@@@Z 00000001400a3e80 f   RealConsole.obj
 0001:000a2f4c       ?GetInteractivePID@CRealConsole@@QEAAKXZ 00000001400a3f4c f   RealConsole.obj
 0001:000a2f8c       ?GetLastTextRangeType@CRealConsole@@QEAA?AW4ExpandTextRangeType@@XZ 00000001400a3f8c f   RealConsole.obj
 0001:000a2f98       ?GetLoadedPID@CRealConsole@@QEAAKXZ 00000001400a3f98 f   RealConsole.obj
 0001:000a302c       ?GetMaxConSize@CRealConsole@@QEAA_NPEAU_COORD@@@Z 00000001400a402c f   RealConsole.obj
 0001:000a3048       ?GetMntPrefix@CRealConsole@@QEAAPEB_WXZ 00000001400a4048 f   RealConsole.obj
 0001:000a30f8       ?GetModifiedEditors@CRealConsole@@QEAAHXZ 00000001400a40f8 f   RealConsole.obj
 0001:000a3168       ?GetMonitorThreadID@CRealConsole@@QEAAKXZ 00000001400a4168 f   RealConsole.obj
 0001:000a3178       ?GetPanelDirs@CRealConsole@@QEAAXAEAUCEStr@@0@Z 00000001400a4178 f   RealConsole.obj
 0001:000a3208       ?GetPanelRect@CRealConsole@@QEAA_N_NPEAUtagRECT@@00@Z 00000001400a4208 f   RealConsole.obj
 0001:000a3258       ?GetPanelTitle@CRealConsole@@QEAAPEB_WXZ 00000001400a4258 f   RealConsole.obj
 0001:000a3294       ?GetProcessInformation@CRealConsole@@QEAA_NKPEAUConProcess@@@Z 00000001400a4294 f   RealConsole.obj
 0001:000a3420       ?GetProcesses@CRealConsole@@QEAAHPEAPEAUConProcess@@_N@Z 00000001400a4420 f   RealConsole.obj
 0001:000a3744       ?GetProgramStatus@CRealConsole@@QEAAKXZ 00000001400a4744 f   RealConsole.obj
 0001:000a3754       ?GetProgress@CRealConsole@@QEAAFPEAHPEA_N@Z 00000001400a4754 f   RealConsole.obj
 0001:000a37e0       ?GetRootProcessIcon@CRealConsole@@QEAAHXZ 00000001400a47e0 f   RealConsole.obj
 0001:000a3800       ?GetRootProcessName@CRealConsole@@QEAAPEB_WXZ 00000001400a4800 f   RealConsole.obj
 0001:000a3818       ?GetRunTime@CRealConsole@@AEAAKXZ 00000001400a4818 f   RealConsole.obj
 0001:000a384c       ?GetRunningPID@CRealConsole@@QEAAKXZ 00000001400a484c f   RealConsole.obj
 0001:000a398c       ?GetServerPID@CRealConsole@@QEAAK_N@Z 00000001400a498c f   RealConsole.obj
 0001:000a39ac       ?GetStartupDir@CRealConsole@@QEAAPEB_WXZ 00000001400a49ac f   RealConsole.obj
 0001:000a39dc       ?GetStatusLineCount@CRealConsole@@QEAAHH@Z 00000001400a49dc f   RealConsole.obj
 0001:000a3a10       ?GetTab@CRealConsole@@QEAA_NHAEAVCTab@@@Z 00000001400a4a10 f   RealConsole.obj
 0001:000a3b04       ?GetTabCount@CRealConsole@@QEAAH_N@Z 00000001400a4b04 f   RealConsole.obj
 0001:000a3b40       ?GetTabTitle@CRealConsole@@QEAAPEB_WAEAVCTab@@@Z 00000001400a4b40 f   RealConsole.obj
 0001:000a3bb8       ?GetTermType@CRealConsole@@QEAA?AW4TermEmulationType@@XZ 00000001400a4bb8 f   RealConsole.obj
 0001:000a3c24       ?GetTerminalPID@CRealConsole@@QEAAKXZ 00000001400a4c24 f   RealConsole.obj
 0001:000a3c34       ?GetTitle@CRealConsole@@QEAAPEB_W_N@Z 00000001400a4c34 f   RealConsole.obj
 0001:000a3d84       ?GetUserPwd@CRealConsole@@QEAA_NPEAPEB_W0PEA_N@Z 00000001400a4d84 f   RealConsole.obj
 0001:000a3db8       ?GetView@CRealConsole@@QEAAPEAUHWND__@@XZ 00000001400a4db8 f   RealConsole.obj
 0001:000a3dcc       ?GetWheelScrollLines@<unnamed-type-mouse>@CConEmuMain@@QEAAIXZ 00000001400a4dcc f i RealConsole.obj
 0001:000a3e38       ?GuiAppAttachAllowed@CRealConsole@@QEAA_NKPEB_WK@Z 00000001400a4e38 f   RealConsole.obj
 0001:000a4104       ?GuiNotifyChildWindow@CRealConsole@@QEAAXXZ 00000001400a5104 f   RealConsole.obj
 0001:000a4240       ?GuiWnd@CRealConsole@@QEAAPEAUHWND__@@XZ 00000001400a5240 f   RealConsole.obj
 0001:000a4258       ?GuiWndFocusRestore@CRealConsole@@QEAAX_N@Z 00000001400a5258 f   RealConsole.obj
 0001:000a43d4       ?GuiWndFocusStore@CRealConsole@@QEAAXXZ 00000001400a53d4 f   RealConsole.obj
 0001:000a451c       ?GuiWndFocusThread@CRealConsole@@AEAAXPEAUHWND__@@AEAH1AEAK@Z 00000001400a551c f   RealConsole.obj
 0001:000a45d0       ?GuiWndPID@CRealConsole@@QEAAKXZ 00000001400a55d0 f   RealConsole.obj
 0001:000a45e4       ?InCreateRoot@CRealConsole@@QEAA_NXZ 00000001400a55e4 f   RealConsole.obj
 0001:000a4600       ?InScroll@CRealConsole@@QEAA_NXZ 00000001400a5600 f   RealConsole.obj
 0001:000a4638       ?InitAltServer@CRealConsole@@IEAA_NK@Z 00000001400a5638 f   RealConsole.obj
 0001:000a4798       ?InitNames@CRealConsole@@IEAAXXZ 00000001400a5798 f   RealConsole.obj
 0001:000a48bc       ?InitiateDetach@CRealConsole@@AEAAKXZ 00000001400a58bc f   RealConsole.obj
 0001:000a4988       ?InternalOpenCreate@?$MFileMapping@$$CBUCEFAR_INFO_MAPPING@@@@IEAAPEBUCEFAR_INFO_MAPPING@@HHH@Z 00000001400a5988 f i RealConsole.obj
 0001:000a4b30       ?InternalOpenCreate@?$MFileMapping@UAnnotationHeader@@@@IEAAPEAUAnnotationHeader@@HHH@Z 00000001400a5b30 f i RealConsole.obj
 0001:000a4cd8       ?InternalOpenCreate@?$MFileMapping@UCESERVER_CONSOLE_APP_MAPPING@@@@IEAAPEAUCESERVER_CONSOLE_APP_MAPPING@@HHH@Z 00000001400a5cd8 f i RealConsole.obj
 0001:000a4e80       ?InternalOpenCreate@?$MFileMapping@UCESERVER_CONSOLE_MAPPING_HDR@@@@IEAAPEAUCESERVER_CONSOLE_MAPPING_HDR@@HHH@Z 00000001400a5e80 f i RealConsole.obj
 0001:000a5028       ?IsConsoleDataChanged@CRealConsole@@QEAA_NXZ 00000001400a6028 f   RealConsole.obj
 0001:000a505c       ?IsFarHyperlinkAllowed@CRealConsole@@QEAA_N_N@Z 00000001400a605c f   RealConsole.obj
 0001:000a512c       ?IsFarLua@CRealConsole@@QEAA_NXZ 00000001400a612c f   RealConsole.obj
 0001:000a5168       ?IsPromptActionAllowed@CRealConsole@@AEAA_N_NPEBUAppSettings@@@Z 00000001400a6168 f   RealConsole.obj
 0001:000a5214       ?IsSwitchFarWindowAllowed@CRealConsole@@QEAA_NXZ 00000001400a6214 f   RealConsole.obj
 0001:000a5260       ?LoadAlternativeConsole@CRealConsole@@AEAA_NW4LoadAltMode@@@Z 00000001400a6260 f   RealConsole.obj
 0001:000a52fc       ?LoadDumpConsole@CRealConsole@@QEAA_NPEB_W@Z 00000001400a62fc f   RealConsole.obj
 0001:000a539c       ?LogInput@CRealConsole@@AEAA_NPEAU_INPUT_RECORD@@@Z 00000001400a639c f   RealConsole.obj
 0001:000a5748       ?LogInput@CRealConsole@@QEAA_NI_K_JPEB_W@Z 00000001400a6748 f   RealConsole.obj
 0001:000a5a64       ?LogString@CRealConsole@@QEAA_NPEBD@Z 00000001400a6a64 f   RealConsole.obj
 0001:000a5b04       ?LogString@CRealConsole@@QEAA_NPEB_W@Z 00000001400a6b04 f   RealConsole.obj
 0001:000a5ba8       ?MonitorAssertTrap@CRealConsole@@QEAAXXZ 00000001400a6ba8 f   RealConsole.obj
 0001:000a5bc0       ?MonitorThread@CRealConsole@@KAKPEAX@Z 00000001400a6bc0 f   RealConsole.obj
 0001:000a5df8       ?MonitorThreadWorker@CRealConsole@@IEAAK_NAEA_N@Z 00000001400a6df8 f   RealConsole.obj
 0001:000a6b1c       ?NeedRefreshRootProcessIcon@CRealConsole@@QEAAXXZ 00000001400a7b1c f   RealConsole.obj
 0001:000a6b28       ?OnActivate@CRealConsole@@QEAAXHH@Z 00000001400a7b28 f   RealConsole.obj
 0001:000a6da0       ?OnBufferHeight@CRealConsole@@QEAAXXZ 00000001400a7da0 f   RealConsole.obj
 0001:000a6dac       ?OnConsoleDataChanged@CRealConsole@@QEAAXXZ 00000001400a7dac f   RealConsole.obj
 0001:000a6e6c       ?OnConsoleKeyboardLayout@CRealConsole@@QEAAXK@Z 00000001400a7e6c f   RealConsole.obj
 0001:000a6e90       ?OnConsoleLangChange@CRealConsole@@QEAAX_K@Z 00000001400a7e90 f   RealConsole.obj
 0001:000a6f74       ?OnDeactivate@CRealConsole@@QEAAXH@Z 00000001400a7f74 f   RealConsole.obj
 0001:000a6ff8       ?OnDosAppStartStop@CRealConsole@@QEAAXW4StartStopType@@K@Z 00000001400a7ff8 f   RealConsole.obj
 0001:000a7094       ?OnFocus@CRealConsole@@QEAAX_N@Z 00000001400a8094 f   RealConsole.obj
 0001:000a7124       ?OnGuiFocused@CRealConsole@@QEAAX_N0@Z 00000001400a8124 f   RealConsole.obj
 0001:000a7210       ?OnKeyboard@CRealConsole@@QEAAXPEAUHWND__@@I_K_JPEB_WPEBUtagMSG@@@Z 00000001400a8210 f   RealConsole.obj
 0001:000a735c       ?OnKeyboardBackCall@CRealConsole@@CA_NPEAVCVirtualConsole@@_J@Z 00000001400a835c f   RealConsole.obj
 0001:000a73a0       ?OnKeyboardIme@CRealConsole@@QEAAXPEAUHWND__@@I_K_J@Z 00000001400a83a0 f   RealConsole.obj
 0001:000a75b8       ?OnKeyboardInt@CRealConsole@@AEAAXPEAUHWND__@@I_K_JPEB_WPEBUtagMSG@@@Z 00000001400a85b8 f   RealConsole.obj
 0001:000a790c       ?OnMouse@CRealConsole@@QEAA_NI_KHH_N@Z 00000001400a890c f   RealConsole.obj
 0001:000a7ca0       ?OnMouseSelection@CRealConsole@@QEAA_NI_KHH@Z 00000001400a8ca0 f   RealConsole.obj
 0001:000a7d20       ?OnScroll@CRealConsole@@QEAAXI_KHH_N@Z 00000001400a8d20 f   RealConsole.obj
 0001:000a7e40       ?OnSelectionChanged@CRealConsole@@QEAAXXZ 00000001400a8e40 f   RealConsole.obj
 0001:000a8000       ?OnServerClosing@CRealConsole@@QEAAXKPEAH@Z 00000001400a9000 f   RealConsole.obj
 0001:000a8148       ?OnServerStarted@CRealConsole@@AEAAXKPEAXK_N@Z 00000001400a9148 f   RealConsole.obj
 0001:000a81e4       ?OnServerStarted@CRealConsole@@QEAAPEAUHWND__@@QEAU2@KKAEAUCESERVER_REQ_SRVSTARTSTOPRET@@@Z 00000001400a91e4 f   RealConsole.obj
 0001:000a82a8       ?OnStartProcessAllowed@CRealConsole@@QEAAXXZ 00000001400a92a8 f   RealConsole.obj
 0001:000a8378       ?OnStartedSuccess@CRealConsole@@AEAAXXZ 00000001400a9378 f   RealConsole.obj
 0001:000a839c       ?OnTimerCheck@CRealConsole@@QEAAXXZ 00000001400a939c f   RealConsole.obj
 0001:000a8490       ?OnTitleChanged@CRealConsole@@AEAAXXZ 00000001400a9490 f   RealConsole.obj
 0001:000a882c       ?OpenConsoleEventPipe@CRealConsole@@QEAA_NXZ 00000001400a982c f   RealConsole.obj
 0001:000a8a10       ?OpenFarMapData@CRealConsole@@AEAA_NXZ 00000001400a9a10 f   RealConsole.obj
 0001:000a8c30       ?OpenMapHeader@CRealConsole@@AEAA_N_N@Z 00000001400a9c30 f   RealConsole.obj
 0001:000a8da8       ?Owner@CRealConsole@@QEAAPEAVCConEmuMain@@XZ 00000001400a9da8 f   RealConsole.obj
 0001:000a8db4       ?Paste@CRealConsole@@QEAAXW4CEPasteMode@@PEB_W_NE@Z 00000001400a9db4 f   RealConsole.obj
 0001:000a9340       ?PasteExplorerPath@CRealConsole@@QEAAX_N0@Z 00000001400aa340 f   RealConsole.obj
 0001:000a93f4       ?Pause@CRealConsole@@QEAA?AW4CEPauseCmd@@W42@@Z 00000001400aa3f4 f   RealConsole.obj
 0001:000a9500       ?PortableStarted@CRealConsole@@QEAAXPEAUCESERVER_REQ_PORTABLESTARTED@@@Z 00000001400aa500 f   RealConsole.obj
 0001:000a963c       ?PostCommand@CRealConsole@@AEAAXKKPEBX@Z 00000001400aa63c f   RealConsole.obj
 0001:000a974c       ?PostConsoleEvent@CRealConsole@@QEAA_NPEAU_INPUT_RECORD@@_N@Z 00000001400aa74c f   RealConsole.obj
 0001:000a99a0       ?PostConsoleEventPipe@CRealConsole@@QEAA_NPEAUMSG64@@_K@Z 00000001400aa9a0 f   RealConsole.obj
 0001:000a9adc       ?PostConsoleMessage@CRealConsole@@QEAA_NPEAUHWND__@@I_K_J@Z 00000001400aaadc f   RealConsole.obj
 0001:000a9c40       ?PostCtrlBreakEvent@CRealConsole@@QEAA_NKK@Z 00000001400aac40 f   RealConsole.obj
 0001:000a9d10       ?PostDragCopy@CRealConsole@@QEAAX_N@Z 00000001400aad10 f   RealConsole.obj
 0001:000a9e38       ?PostKeyPress@CRealConsole@@QEAA_NGK_WH@Z 00000001400aae38 f   RealConsole.obj
 0001:000a9f4c       ?PostKeyUp@CRealConsole@@QEAA_NGK_WH@Z 00000001400aaf4c f   RealConsole.obj
 0001:000aa020       ?PostLeftClickSync@CRealConsole@@QEAA_NU_COORD@@@Z 00000001400ab020 f   RealConsole.obj
 0001:000aa178       ?PostMacro@CRealConsole@@QEAAXPEB_W_N@Z 00000001400ab178 f   RealConsole.obj
 0001:000aa6e4       ?PostMacroThread@CRealConsole@@CAKPEAX@Z 00000001400ab6e4 f   RealConsole.obj
 0001:000aa81c       ?PostMouseEvent@CRealConsole@@AEAAXI_KU_COORD@@_N@Z 00000001400ab81c f   RealConsole.obj
 0001:000aadb8       ?PostPromptCmd@CRealConsole@@QEAA_N_NPEB_W@Z 00000001400abdb8 f   RealConsole.obj
 0001:000ab1c4       ?PostString@CRealConsole@@IEAA_NPEA_W_K_N@Z 00000001400ac1c4 f   RealConsole.obj
 0001:000ab61c       ?PostponeMacro@CRealConsole@@QEAAPEA_W$$QEAPEA_W@Z 00000001400ac61c f   RealConsole.obj
 0001:000ab678       ?PreCreate@CRealConsole@@AEAA_NPEAURConStartArgsEx@@@Z 00000001400ac678 f   RealConsole.obj
 0001:000ab938       ?PrepareConsoleRegistryKey@CRealConsole@@AEAAPEAUHKEY__@@PEB_W@Z 00000001400ac938 f   RealConsole.obj
 0001:000abcd0       ?PrepareDefaultColors@CRealConsole@@AEAAXAEAE000_NPEAUHKEY__@@@Z 00000001400accd0 f   RealConsole.obj
 0001:000ac02c       ?PrepareDefaultColors@CRealConsole@@QEAAXXZ 00000001400ad02c f   RealConsole.obj
 0001:000ac05c       ?PrepareNewConArgs@CRealConsole@@AEAAXXZ 00000001400ad05c f   RealConsole.obj
 0001:000ac090       ?PrepareOutputFile@CRealConsole@@AEAA_N_NPEA_W@Z 00000001400ad090 f   RealConsole.obj
 0001:000ac50c       ?PrepareOutputFileCreate@CRealConsole@@AEAAPEAXPEA_W@Z 00000001400ad50c f   RealConsole.obj
 0001:000ac5c8       ?ProcessCheckName@CRealConsole@@AEAAXAEAUConProcess@@PEA_W@Z 00000001400ad5c8 f   RealConsole.obj
 0001:000ac790       ?ProcessKeyboard@CRealConsole@@QEAAXI_K_JPEB_W@Z 00000001400ad790 f   RealConsole.obj
 0001:000ac904       ?ProcessPostponedMacro@CRealConsole@@AEAAXXZ 00000001400ad904 f   RealConsole.obj
 0001:000ac984       ?ProcessSelectionHotKey@CRealConsole@@QEAAPEBUConEmuHotKey@@AEBUConEmuChord@@_NPEB_W@Z 00000001400ad984 f   RealConsole.obj
 0001:000ac9e8       ?ProcessUpdate@CRealConsole@@AEAA_NPEBKI@Z 00000001400ad9e8 f   RealConsole.obj
 0001:000ad294       ?ProcessUpdateFlags@CRealConsole@@AEAA_N_N@Z 00000001400ae294 f   RealConsole.obj
 0001:000ad784       ?ProcessXtermSubst@CRealConsole@@QEAA_NAEBU_INPUT_RECORD@@@Z 00000001400ae784 f   RealConsole.obj
 0001:000ad910       ?QueryCellInfo@CRealConsole@@QEAAXPEA_WH@Z 00000001400ae910 f   RealConsole.obj
 0001:000ad938       ?QueryPromptStart@CRealConsole@@QEAA_NPEAU_COORD@@@Z 00000001400ae938 f   RealConsole.obj
 0001:000ad984       ?QueryRConModes@CRealConsole@@QEAAXPEA_WH_N@Z 00000001400ae984 f   RealConsole.obj
 0001:000ada50       ?QueryStartStopRet@CRealConsole@@QEAAXAEAUCESERVER_REQ_SRVSTARTSTOPRET@@@Z 00000001400aea50 f   RealConsole.obj
 0001:000adc14       ?QueryTermModes@CRealConsole@@QEAAXPEA_WH_N@Z 00000001400aec14 f   RealConsole.obj
 0001:000ade90       ?RecreateProcess@CRealConsole@@QEAA_NPEAURConStartArgsEx@@@Z 00000001400aee90 f   RealConsole.obj
 0001:000ae24c       ?RecreateProcessStart@CRealConsole@@AEAA_NXZ 00000001400af24c f   RealConsole.obj
 0001:000ae368       ?RefreshAfterRestore@CRealConsole@@SA_NPEAVCVirtualConsole@@_J@Z 00000001400af368 f   RealConsole.obj
 0001:000ae448       ?RefreshFarPID@_TabsInfo@CRealConsole@@QEAA_NK@Z 00000001400af448 f   RealConsole.obj
 0001:000ae4e4       ?ReloadFarWorkDir@CRealConsole@@IEAA_NXZ 00000001400af4e4 f   RealConsole.obj
 0001:000ae5ac       ?RenameTab@CRealConsole@@QEAAXPEB_W@Z 00000001400af5ac f   RealConsole.obj
 0001:000ae694       ?RenameWindow@CRealConsole@@QEAAXPEB_W@Z 00000001400af694 f   RealConsole.obj
 0001:000ae788       ?ReopenServerPipes@CRealConsole@@IEAA_NXZ 00000001400af788 f   RealConsole.obj
 0001:000aea70       ?RepositionDialogWithTab@CRealConsole@@IEAAXPEAUHWND__@@@Z 00000001400afa70 f   RealConsole.obj
 0001:000aeb74       ?RequestStartup@CRealConsole@@AEAAX_N@Z 00000001400afb74 f   RealConsole.obj
 0001:000aebc0       ?ResetActiveAppSettingsId@CRealConsole@@QEAAXXZ 00000001400afbc0 f   RealConsole.obj
 0001:000aebc8       ?ResetTopLeft@CRealConsole@@QEAAXXZ 00000001400afbc8 f   RealConsole.obj
 0001:000aebe8       ?ResetVarsOnStart@CRealConsole@@AEAAXXZ 00000001400afbe8 f   RealConsole.obj
 0001:000aed50       ?ScreenToBuffer@CRealConsole@@QEAA?AU_COORD@@U2@@Z 00000001400afd50 f   RealConsole.obj
 0001:000aed78       ?Set@?$MMap@KH$0A@@@QEAA_NAEBKAEBH@Z 00000001400afd78 f i RealConsole.obj
 0001:000aeebc       ?SetActiveBuffer@CRealConsole@@AEAA_NPEAVCRealBuffer@@_N@Z 00000001400afebc f   RealConsole.obj
 0001:000aef7c       ?SetActiveBuffer@CRealConsole@@QEAA_NW4RealBufferType@@@Z 00000001400aff7c f   RealConsole.obj
 0001:000aefd4       ?SetActivePID@CRealConsole@@AEAAXPEBUConProcess@@@Z 00000001400affd4 f   RealConsole.obj
 0001:000af0bc       ?SetAltSrvPID@CRealConsole@@IEAAXK@Z 00000001400b00bc f   RealConsole.obj
 0001:000af140       ?SetAppDistinctPID@CRealConsole@@AEAAXPEBUConProcess@@@Z 00000001400b0140 f   RealConsole.obj
 0001:000af27c       ?SetConStatus@CRealConsole@@QEAAXPEB_WK@Z 00000001400b027c f   RealConsole.obj
 0001:000af468       ?SetConsoleSize@CRealConsole@@QEAA_NFFGK@Z 00000001400b0468 f   RealConsole.obj
 0001:000af494       ?SetCursorShape@CRealConsole@@QEAAXW4TermCursorShapes@@@Z 00000001400b0494 f   RealConsole.obj
 0001:000af4c4       ?SetFarPID@CRealConsole@@QEAAXK@Z 00000001400b04c4 f   RealConsole.obj
 0001:000af5c0       ?SetFarPluginPID@CRealConsole@@QEAAXK@Z 00000001400b05c0 f   RealConsole.obj
 0001:000af698       ?SetFullScreen@CRealConsole@@QEAA_NXZ 00000001400b0698 f   RealConsole.obj
 0001:000af73c       ?SetGuiMode@CRealConsole@@QEAAXKPEAUHWND__@@KKPEB_WKHUtagRECT@@@Z 00000001400b073c f   RealConsole.obj
 0001:000afd08       ?SetHwnd@CRealConsole@@AEAAXPEAUHWND__@@_N@Z 00000001400b0d08 f   RealConsole.obj
 0001:000afe60       ?SetInitEnvCommands@CRealConsole@@QEAAXAEAUCESERVER_REQ_SRVSTARTSTOPRET@@@Z 00000001400b0e60 f   RealConsole.obj
 0001:000b008c       ?SetMainSrvPID@CRealConsole@@IEAAXKPEAX@Z 00000001400b108c f   RealConsole.obj
 0001:000b01a4       ?SetMonitorThreadEvent@CRealConsole@@IEAAXXZ 00000001400b11a4 f   RealConsole.obj
 0001:000b01c0       ?SetMountRoot@CRealConsole@@IEAAXPEAUCESERVER_REQ@@@Z 00000001400b11c0 f   RealConsole.obj
 0001:000b0264       ?SetOtherWindowParent@CRealConsole@@QEAAPEAUHWND__@@PEAU2@0@Z 00000001400b1264 f   RealConsole.obj
 0001:000b038c       ?SetOtherWindowPos@CRealConsole@@QEAA_NPEAUHWND__@@0HHHHI@Z 00000001400b138c f   RealConsole.obj
 0001:000b05dc       ?SetOtherWindowRgn@CRealConsole@@QEAA_NPEAUHWND__@@HPEAUtagRECT@@_N@Z 00000001400b15dc f   RealConsole.obj
 0001:000b0710       ?SetPaletteName@CRealConsole@@QEAAXPEB_W@Z 00000001400b1710 f   RealConsole.obj
 0001:000b0774       ?SetProgress@CRealConsole@@QEAA_NFFPEB_W@Z 00000001400b1774 f   RealConsole.obj
 0001:000b085c       ?SetRootProcessName@CRealConsole@@IEAAXPEB_W@Z 00000001400b185c f   RealConsole.obj
 0001:000b0948       ?SetSplitProperties@CRealConsole@@QEAAXW4SplitType@RConStartArgs@@II@Z 00000001400b1948 f   RealConsole.obj
 0001:000b0964       ?SetSwitchActiveServer@CRealConsole@@IEAAX_NW4SwitchActiveServerEvt@1@1@Z 00000001400b1964 f   RealConsole.obj
 0001:000b0a14       ?SetTabs@CRealConsole@@QEAAXPEAUConEmuTab@@HK@Z 00000001400b1a14 f   RealConsole.obj
 0001:000b0e78       ?SetTerminalPID@CRealConsole@@IEAAXK@Z 00000001400b1e78 f   RealConsole.obj
 0001:000b0ed8       ?ShowConsole@CRealConsole@@QEAAXH@Z 00000001400b1ed8 f   RealConsole.obj
 0001:000b1014       ?ShowConsoleOrGuiClient@CRealConsole@@QEAAXH@Z 00000001400b2014 f   RealConsole.obj
 0001:000b105c       ?ShowGuiClientExt@CRealConsole@@QEAAXH_N@Z 00000001400b205c f   RealConsole.obj
 0001:000b11f8       ?ShowGuiClientInt@CRealConsole@@QEAAX_N@Z 00000001400b21f8 f   RealConsole.obj
 0001:000b12a4       ?ShowKeyBarHint@CRealConsole@@QEAAXG@Z 00000001400b22a4 f   RealConsole.obj
 0001:000b12c4       ?ShowOtherWindow@CRealConsole@@QEAA_NPEAUHWND__@@H_N@Z 00000001400b22c4 f   RealConsole.obj
 0001:000b13f4       ?ShowPropertiesDialog@CRealConsole@@QEAAXXZ 00000001400b23f4 f   RealConsole.obj
 0001:000b14e4       ?StartDebugger@CRealConsole@@QEAA_NW4StartDebugType@@@Z 00000001400b24e4 f   RealConsole.obj
 0001:000b195c       ?StartMonitorThread@CRealConsole@@IEAA_NXZ 00000001400b295c f   RealConsole.obj
 0001:000b1a64       ?StartProcess@CRealConsole@@IEAA_NXZ 00000001400b2a64 f   RealConsole.obj
 0001:000b24ec       ?StartProcessInt@CRealConsole@@AEAA_NAEAPEB_WAEAPEA_W0_NPEAUHWND__@@AEAK44EEEEAEAU_STARTUPINFOW@@AEAU_PROCESS_INFORMATION@@4@Z 00000001400b34ec f   RealConsole.obj
 0001:000b2ce0       ?StartSelection@CRealConsole@@QEAAX_NFF0K@Z 00000001400b3ce0 f   RealConsole.obj
 0001:000b2d10       ?StartStopAppCursorKeys@CRealConsole@@QEAAXK_N@Z 00000001400b3d10 f   RealConsole.obj
 0001:000b2e4c       ?StartStopBracketedPaste@CRealConsole@@QEAAXK_N@Z 00000001400b3e4c f   RealConsole.obj
 0001:000b2f40       ?StartStopTermMode@CRealConsole@@QEAA_NW4TermModeCommand@@W4ChangeTermAction@@@Z 00000001400b3f40 f   RealConsole.obj
 0001:000b3024       ?StartStopXMouse@CRealConsole@@QEAAXKW4TermMouseMode@@@Z 00000001400b4024 f   RealConsole.obj
 0001:000b3104       ?StartStopXTerm@CRealConsole@@QEAAXK_N@Z 00000001400b4104 f   RealConsole.obj
 0001:000b3214       ?StopSignal@CRealConsole@@QEAAXXZ 00000001400b4214 f   RealConsole.obj
 0001:000b3310       ?StopThread@CRealConsole@@QEAAX_N@Z 00000001400b4310 f   RealConsole.obj
 0001:000b3570       ?StoreActiveTab@_TabsInfo@CRealConsole@@QEAAXHAEAVCTab@@@Z 00000001400b4570 f   RealConsole.obj
 0001:000b35b4       ?StoreCurWorkDir@CRealConsole@@IEAAXPEAUCESERVER_REQ_STORECURDIR@@@Z 00000001400b45b4 f   RealConsole.obj
 0001:000b3794       ?StoreGuiChildRect@CRealConsole@@QEAAXPEAUtagRECT@@@Z 00000001400b4794 f   RealConsole.obj
 0001:000b37f8       ?SwitchKeyboardLayout@CRealConsole@@QEAAX_K0@Z 00000001400b47f8 f   RealConsole.obj
 0001:000b3958       ?SyncConsole2Window@CRealConsole@@QEAAX_NPEAUtagRECT@@@Z 00000001400b4958 f   RealConsole.obj
 0001:000b3a78       ?SyncGui2Window@CRealConsole@@QEAAXUtagRECT@@@Z 00000001400b4a78 f   RealConsole.obj
 0001:000b3bf0       ?TerminateActiveProcess@CRealConsole@@QEAA_N_NK@Z 00000001400b4bf0 f   RealConsole.obj
 0001:000b3d78       ?TerminateActiveProcessConfirm@CRealConsole@@QEAA_NK@Z 00000001400b4d78 f   RealConsole.obj
 0001:000b3e8c       ?TerminateAllButShell@CRealConsole@@QEAA_N_N@Z 00000001400b4e8c f   RealConsole.obj
 0001:000b415c       ?TextHeight@CRealConsole@@QEAAIXZ 00000001400b515c f   RealConsole.obj
 0001:000b4174       ?TextWidth@CRealConsole@@QEAAIXZ 00000001400b5174 f   RealConsole.obj
 0001:000b418c       ?Unfasten@CRealConsole@@QEAAXXZ 00000001400b518c f   RealConsole.obj
 0001:000b43bc       ?UpdateCursorInfo@CRealConsole@@QEAAXXZ 00000001400b53bc f   RealConsole.obj
 0001:000b4430       ?UpdateFarSettings@CRealConsole@@QEAAXKPEAUFAR_REQ_FARSETCHANGED@@@Z 00000001400b5430 f   RealConsole.obj
 0001:000b4594       ?UpdateGuiInfoMapping@CRealConsole@@QEAAXPEBUConEmuGuiMapping@@@Z 00000001400b5594 f   RealConsole.obj
 0001:000b466c       ?UpdateRootInfo@CRealConsole@@IEAAXAEBUCESERVER_ROOT_INFO@@@Z 00000001400b566c f   RealConsole.obj
 0001:000b47b0       ?UpdateScrollInfo@CRealConsole@@QEAAXXZ 00000001400b57b0 f   RealConsole.obj
 0001:000b4900       ?UpdateServerActive@CRealConsole@@QEAAX_N@Z 00000001400b5900 f   RealConsole.obj
 0001:000b4aa8       ?UpdateStartState@CRealConsole@@IEAAXW4RConStartState@@_N@Z 00000001400b5aa8 f   RealConsole.obj
 0001:000b4afc       ?UpdateTextColorSettings@CRealConsole@@QEAAX_N0PEBUAppSettings@@@Z 00000001400b5afc f   RealConsole.obj
 0001:000b4d20       ?VCon@CRealConsole@@QEAAPEAVCVirtualConsole@@XZ 00000001400b5d20 f   RealConsole.obj
 0001:000b4d2c       ?Write@CRealConsole@@QEAA_NPEB_WHPEAK@Z 00000001400b5d2c f   RealConsole.obj
 0001:000b4e44       ?erase@?$MArray@UConProcess@@@@QEAAX_J0@Z 00000001400b5e44 f i RealConsole.obj
 0001:000b4ed4       ?isActive@CRealConsole@@QEAA_N_N@Z 00000001400b5ed4 f   RealConsole.obj
 0001:000b4ee8       ?isAdministrator@CRealConsole@@QEAA_NXZ 00000001400b5ee8 f   RealConsole.obj
 0001:000b4f28       ?isAlive@CRealConsole@@QEAA_NXZ 00000001400b5f28 f   RealConsole.obj
 0001:000b4f74       ?isAlternative@CRealConsole@@QEAA_NXZ 00000001400b5f74 f   RealConsole.obj
 0001:000b4f9c       ?isBufferHeight@CRealConsole@@QEAA_NXZ 00000001400b5f9c f   RealConsole.obj
 0001:000b4fd8       ?isCloseTabConfirmed@CRealConsole@@QEAA_NIPEB_W_N@Z 00000001400b5fd8 f   RealConsole.obj
 0001:000b5144       ?isConSelectMode@CRealConsole@@QEAA_NXZ 00000001400b6144 f   RealConsole.obj
 0001:000b515c       ?isConsoleClosing@CRealConsole@@QEAA_NXZ 00000001400b615c f   RealConsole.obj
 0001:000b5228       ?isConsoleReady@CRealConsole@@QEAA_NXZ 00000001400b6228 f   RealConsole.obj
 0001:000b5248       ?isCygwinMsys@CRealConsole@@QEAA_NXZ 00000001400b6248 f   RealConsole.obj
 0001:000b526c       ?isDetached@CRealConsole@@QEAA_NXZ 00000001400b626c f   RealConsole.obj
 0001:000b5294       ?isEditor@CRealConsole@@QEAA_NXZ 00000001400b6294 f   RealConsole.obj
 0001:000b52b0       ?isFar@CRealConsole@@QEAA_N_N@Z 00000001400b62b0 f   RealConsole.obj
 0001:000b52cc       ?isFarBufferSupported@CRealConsole@@QEAA_NXZ 00000001400b62cc f   RealConsole.obj
 0001:000b5310       ?isFarInStack@CRealConsole@@QEAA_NXZ 00000001400b6310 f   RealConsole.obj
 0001:000b5348       ?isFarKeyBarShown@CRealConsole@@QEAA_NXZ 00000001400b6348 f   RealConsole.obj
 0001:000b53c8       ?isFarPanelAllowed@CRealConsole@@QEAA_NXZ 00000001400b63c8 f   RealConsole.obj
 0001:000b5528       ?isFilePanel@CRealConsole@@QEAA_N_N00@Z 00000001400b6528 f   RealConsole.obj
 0001:000b56b8       ?isFixAndCenter@CRealConsole@@QEAA_NPEAU_COORD@@@Z 00000001400b66b8 f   RealConsole.obj
 0001:000b56f8       ?isGuiEagerFocus@CRealConsole@@QEAA_NXZ 00000001400b66f8 f   RealConsole.obj
 0001:000b5734       ?isGuiForceConView@CRealConsole@@QEAA_NXZ 00000001400b6734 f   RealConsole.obj
 0001:000b574c       ?isGuiOverCon@CRealConsole@@QEAA_NXZ 00000001400b674c f   RealConsole.obj
 0001:000b5768       ?isGuiVisible@CRealConsole@@QEAA_NXZ 00000001400b6768 f   RealConsole.obj
 0001:000b57b4       ?isHighlighted@CRealConsole@@QEAA_NXZ 00000001400b67b4 f   RealConsole.obj
 0001:000b5808       ?isInFocus@CRealConsole@@QEAA_NXZ 00000001400b6808 f   RealConsole.obj
 0001:000b584c       ?isInternalScroll@CRealConsole@@QEAA_NXZ 00000001400b684c f   RealConsole.obj
 0001:000b58ac       ?isLogging@CRealConsole@@QEAAII@Z 00000001400b68ac f   RealConsole.obj
 0001:000b58d8       ?isMouseButtonDown@CRealConsole@@QEAA_NXZ 00000001400b68d8 f   RealConsole.obj
 0001:000b58e8       ?isMouseSelectionPresent@CRealConsole@@QEAA_NXZ 00000001400b68e8 f   RealConsole.obj
 0001:000b58fc       ?isNeedCursorDraw@CRealConsole@@QEAA_NXZ 00000001400b68fc f   RealConsole.obj
 0001:000b5950       ?isNtvdm@CRealConsole@@QEAA_NXZ 00000001400b6950 f   RealConsole.obj
 0001:000b5964       ?isPictureView@CRealConsole@@QEAAPEAUHWND__@@_N@Z 00000001400b6964 f   RealConsole.obj
 0001:000b5c78       ?isPosixConvertAllowed@CRealConsole@@QEAA_NXZ 00000001400b6c78 f   RealConsole.obj
 0001:000b5cbc       ?isSelectionPresent@CRealConsole@@QEAA_NXZ 00000001400b6cbc f   RealConsole.obj
 0001:000b5cd0       ?isSendMouseAllowed@CRealConsole@@QEAA_NXZ 00000001400b6cd0 f   RealConsole.obj
 0001:000b5cfc       ?isServerAlive@CRealConsole@@QEAA_NXZ 00000001400b6cfc f   RealConsole.obj
 0001:000b5d30       ?isServerAvailable@CRealConsole@@QEAA_NXZ 00000001400b6d30 f   RealConsole.obj
 0001:000b5d58       ?isServerClosing@CRealConsole@@QEAA_N_N@Z 00000001400b6d58 f   RealConsole.obj
 0001:000b5d84       ?isServerCreated@CRealConsole@@QEAA_N_N@Z 00000001400b6d84 f   RealConsole.obj
 0001:000b5da0       ?isUnixFS@CRealConsole@@QEAA_NXZ 00000001400b6da0 f   RealConsole.obj
 0001:000b5dcc       ?isViewer@CRealConsole@@QEAA_NXZ 00000001400b6dcc f   RealConsole.obj
 0001:000b5de8       ?isVisible@CRealConsole@@QEAA_NXZ 00000001400b6de8 f   RealConsole.obj
 0001:000b5dfc       ?logProgress@CRealConsole@@IEAAXPEB_WHH@Z 00000001400b6dfc f   RealConsole.obj
 0001:000b5e78       ?priorityProc@CRealConsole@@KA_JPEAUHWND__@@I_K_J@Z 00000001400b6e78 f   RealConsole.obj
 0001:000b6218       ?renameProc@CRealConsole@@CA_JPEAUHWND__@@I_K_J@Z 00000001400b7218 f   RealConsole.obj
 0001:000b6498       ?setAppProgress@CRealConsole@@IEAAXFF@Z 00000001400b7498 f   RealConsole.obj
 0001:000b64f4       ?setConsoleProgress@CRealConsole@@IEAAXF@Z 00000001400b74f4 f   RealConsole.obj
 0001:000b6534       ?setGuiWnd@CRealConsole@@AEAAXPEAUHWND__@@@Z 00000001400b7534 f   RealConsole.obj
 0001:000b6544       ?setGuiWndPID@CRealConsole@@AEAAXPEAUHWND__@@KHPEB_W@Z 00000001400b7544 f   RealConsole.obj
 0001:000b6668       ?setLastConsoleProgress@CRealConsole@@IEAAXF_N@Z 00000001400b7668 f   RealConsole.obj
 0001:000b66cc       ?setLastShownProgress@CRealConsole@@IEAAXF@Z 00000001400b76cc f   RealConsole.obj
 0001:000b670c       ?setPreWarningProgress@CRealConsole@@IEAAXF@Z 00000001400b770c f   RealConsole.obj
 0001:000b674c       ?setProgress@CRealConsole@@IEAAXF@Z 00000001400b774c f   RealConsole.obj
 0001:000b67bc       sprintf_s                  00000001400b77bc f i RealConsole.obj
 0001:000b6810       ??0CRealServer@@QEAA@XZ    00000001400b7810 f   RealServer.obj
 0001:000b6824       ??1CRealServer@@QEAA@XZ    00000001400b7824 f   RealServer.obj
 0001:000b6840       ?Init@CRealServer@@QEAAXPEAVCRealConsole@@@Z 00000001400b7840 f   RealServer.obj
 0001:000b6888       ?ServerCommand@CRealServer@@KAHPEAXPEAUCESERVER_REQ@@AEAPEAU2@AEAK3_J@Z 00000001400b7888 f   RealServer.obj
 0001:000b6d40       ?ServerThreadReady@CRealServer@@KAHPEAX_J@Z 00000001400b7d40 f   RealServer.obj
 0001:000b6d88       ?Start@CRealServer@@QEAA_NXZ 00000001400b7d88 f   RealServer.obj
 0001:000b6e9c       ?Stop@CRealServer@@QEAAX_N@Z 00000001400b7e9c f   RealServer.obj
 0001:000b6f1c       ?cmdActivateCon@CRealServer@@IEAAPEAUCESERVER_REQ@@PEAXPEAU2@I@Z 00000001400b7f1c f   RealServer.obj
 0001:000b6f6c       ?cmdActivateTab@CRealServer@@IEAAPEAUCESERVER_REQ@@PEAXPEAU2@I@Z 00000001400b7f6c f   RealServer.obj
 0001:000b7054       ?cmdExportEnvVarAll@CRealServer@@IEAAPEAUCESERVER_REQ@@PEAXPEAU2@I@Z 00000001400b8054 f   RealServer.obj
 0001:000b70b0       ?cmdFlashWindow@CRealServer@@IEAAPEAUCESERVER_REQ@@PEAXPEAU2@I@Z 00000001400b80b0 f   RealServer.obj
 0001:000b7124       ?cmdGetAllPanels@CRealServer@@IEAAPEAUCESERVER_REQ@@PEAXPEAU2@I@Z 00000001400b8124 f   RealServer.obj
 0001:000b71c8       ?cmdGetAllTabs@CRealServer@@IEAAPEAUCESERVER_REQ@@PEAXPEAU2@I@Z 00000001400b81c8 f   RealServer.obj
 0001:000b725c       ?cmdGetOutputFile@CRealServer@@IEAAPEAUCESERVER_REQ@@PEAXPEAU2@I@Z 00000001400b825c f   RealServer.obj
 0001:000b72d8       ?cmdGetTaskCmd@CRealServer@@IEAAPEAUCESERVER_REQ@@PEAXPEAU2@I@Z 00000001400b82d8 f   RealServer.obj
 0001:000b7488       ?cmdGuiMacro@CRealServer@@IEAAPEAUCESERVER_REQ@@PEAXPEAU2@I@Z 00000001400b8488 f   RealServer.obj
 0001:000b7534       ?cmdIsAnsiExecAllowed@CRealServer@@IEAAPEAUCESERVER_REQ@@PEAXPEAU2@I@Z 00000001400b8534 f   RealServer.obj
 0001:000b7664       ?cmdLockDc@CRealServer@@IEAAPEAUCESERVER_REQ@@PEAXPEAU2@I@Z 00000001400b8664 f   RealServer.obj
 0001:000b769c       ?cmdOnCreateProc@CRealServer@@IEAAPEAUCESERVER_REQ@@PEAXPEAU2@I@Z 00000001400b869c f   RealServer.obj
 0001:000b7708       ?cmdOnPeekReadInput@CRealServer@@IEAAPEAUCESERVER_REQ@@PEAXPEAU2@I@Z 00000001400b8708 f   RealServer.obj
 0001:000b7790       ?cmdOnSetConsoleKeyShortcuts@CRealServer@@IEAAPEAUCESERVER_REQ@@PEAXPEAU2@I@Z 00000001400b8790 f   RealServer.obj
 0001:000b77cc       ?cmdQueryPalette@CRealServer@@IEAAPEAUCESERVER_REQ@@PEAXPEAU2@I@Z 00000001400b87cc f   RealServer.obj
 0001:000b7868       ?cmdRegPanelView@CRealServer@@IEAAPEAUCESERVER_REQ@@PEAXPEAU2@I@Z 00000001400b8868 f   RealServer.obj
 0001:000b78e0       ?cmdRenameTab@CRealServer@@IEAAPEAUCESERVER_REQ@@PEAXPEAU2@I@Z 00000001400b88e0 f   RealServer.obj
 0001:000b7928       ?cmdResources@CRealServer@@IEAAPEAUCESERVER_REQ@@PEAXPEAU2@I@Z 00000001400b8928 f   RealServer.obj
 0001:000b7af0       ?cmdSetBackground@CRealServer@@IEAAPEAUCESERVER_REQ@@PEAXPEAU2@I@Z 00000001400b8af0 f   RealServer.obj
 0001:000b7b60       ?cmdSetForeground@CRealServer@@IEAAPEAUCESERVER_REQ@@PEAXPEAU2@I@Z 00000001400b8b60 f   RealServer.obj
 0001:000b7be8       ?cmdSetProgress@CRealServer@@IEAAPEAUCESERVER_REQ@@PEAXPEAU2@I@Z 00000001400b8be8 f   RealServer.obj
 0001:000b7c38       ?cmdStartStop@CRealServer@@IEAAPEAUCESERVER_REQ@@PEAXPEAU2@I@Z 00000001400b8c38 f   RealServer.obj
 0001:000b85e8       ?cmdStartXTerm@CRealServer@@IEAAPEAUCESERVER_REQ@@PEAXPEAU2@I@Z 00000001400b95e8 f   RealServer.obj
 0001:000b8710       ?cmdTabsChanged@CRealServer@@IEAAPEAUCESERVER_REQ@@PEAXPEAU2@I@Z 00000001400b9710 f   RealServer.obj
 0001:000b88b0       ??0CRecreateDlg@@QEAA@XZ   00000001400b98b0 f   Recreate.obj
 0001:000b8918       ??1CRecreateDlg@@QEAA@XZ   00000001400b9918 f   Recreate.obj
 0001:000b8940       ?AddCommandList@CRecreateDlg@@IEAAXPEB_W_J@Z 00000001400b9940 f   Recreate.obj
 0001:000b89d4       ?AddDirectoryList@CRecreateDlg@@IEAAXPEB_W_J@Z 00000001400b99d4 f   Recreate.obj
 0001:000b8a50       ?BrowseCallbackProc@CRecreateDlg@@SAHPEAUHWND__@@I_J1@Z 00000001400b9a50 f   Recreate.obj
 0001:000b8a80       ?Close@CRecreateDlg@@QEAAXXZ 00000001400b9a80 f   Recreate.obj
 0001:000b8ac0       ?FreeVars@CRecreateDlg@@IEAAXXZ 00000001400b9ac0 f   Recreate.obj
 0001:000b8b2c       ?InitVars@CRecreateDlg@@IEAAXXZ 00000001400b9b2c f   Recreate.obj
 0001:000b8d8c       ?OnButtonClicked@CRecreateDlg@@IEAA_JPEAUHWND__@@I_K_J@Z 00000001400b9d8c f   Recreate.obj
 0001:000b93c4       ?OnComboSetFocus@CRecreateDlg@@IEAA_JPEAUHWND__@@I_K_J@Z 00000001400ba3c4 f   Recreate.obj
 0001:000b9400       ?OnCtlColorStatic@CRecreateDlg@@IEAA_JPEAUHWND__@@I_K_J@Z 00000001400ba400 f   Recreate.obj
 0001:000b9460       ?OnEditSetFocus@CRecreateDlg@@IEAA_JPEAUHWND__@@I_K_J@Z 00000001400ba460 f   Recreate.obj
 0001:000b94ac       ?OnFillCmdList@CRecreateDlg@@IEAA_JPEAUHWND__@@I_K_J@Z 00000001400ba4ac f   Recreate.obj
 0001:000b957c       ?OnInitDialog@CRecreateDlg@@IEAA_JPEAUHWND__@@I_K_J@Z 00000001400ba57c f   Recreate.obj
 0001:000ba2f0       ?OnSysCommand@CRecreateDlg@@IEAA_JPEAUHWND__@@I_K_J@Z 00000001400bb2f0 f   Recreate.obj
 0001:000ba438       ?OnUserControls@CRecreateDlg@@IEAA_JPEAUHWND__@@I_K_J@Z 00000001400bb438 f   Recreate.obj
 0001:000ba7b8       ?RecreateDlg@CRecreateDlg@@QEAAHPEAURConStartArgsEx@@_N@Z 00000001400bb7b8 f   Recreate.obj
 0001:000ba8e0       ?RecreateDlgProc@CRecreateDlg@@SA_JPEAUHWND__@@I_K_J@Z 00000001400bb8e0 f   Recreate.obj
 0001:000bab20       ??$SafeDelete@V?$xml_document@D@rapidxml@@@@YAXAEAPEAV?$xml_document@D@rapidxml@@@Z 00000001400bbb20 f i Registry.obj
 0001:000bab74       ??$_Emplace_reallocate@D@?$vector@DV?$MArrayAllocator@D@@@std@@QEAAPEADQEAD$$QEAD@Z 00000001400bbb74 f i Registry.obj
 0001:000bb470       ??$insert_coded_character@$0GA@@?$xml_document@D@rapidxml@@CAXAEAPEADK@Z 00000001400bc470 f i Registry.obj
 0001:000bb550       ??$parse@$0GA@@?$xml_document@D@rapidxml@@QEAAXPEAD@Z 00000001400bc550 f i Registry.obj
 0001:000bb668       ??$parse_and_append_data@$0GA@@?$xml_document@D@rapidxml@@AEAADPEAV?$xml_node@D@1@AEAPEADPEAD@Z 00000001400bc668 f i Registry.obj
 0001:000bb740       ??$parse_cdata@$0GA@@?$xml_document@D@rapidxml@@AEAAPEAV?$xml_node@D@1@AEAPEAD@Z 00000001400bc740 f i Registry.obj
 0001:000bb7e8       ??$parse_comment@$0GA@@?$xml_document@D@rapidxml@@AEAAPEAV?$xml_node@D@1@AEAPEAD@Z 00000001400bc7e8 f i Registry.obj
 0001:000bb890       ??$parse_doctype@$0GA@@?$xml_document@D@rapidxml@@AEAAPEAV?$xml_node@D@1@AEAPEAD@Z 00000001400bc890 f i Registry.obj
 0001:000bb930       ??$parse_element@$0GA@@?$xml_document@D@rapidxml@@AEAAPEAV?$xml_node@D@1@AEAPEAD@Z 00000001400bc930 f i Registry.obj
 0001:000bbabc       ??$parse_node@$0GA@@?$xml_document@D@rapidxml@@AEAAPEAV?$xml_node@D@1@AEAPEAD@Z 00000001400bcabc f i Registry.obj
 0001:000bbc98       ??$parse_node_attributes@$0GA@@?$xml_document@D@rapidxml@@AEAAXAEAPEADPEAV?$xml_node@D@1@@Z 00000001400bcc98 f i Registry.obj
 0001:000bbeec       ??$parse_node_contents@$0GA@@?$xml_document@D@rapidxml@@AEAAXAEAPEADPEAV?$xml_node@D@1@@Z 00000001400bceec f i Registry.obj
 0001:000bc050       ??$parse_xml_declaration@$0GA@@?$xml_document@D@rapidxml@@AEAAPEAV?$xml_node@D@1@AEAPEAD@Z 00000001400bd050 f i Registry.obj
 0001:000bd8a0       ??$skip_and_expand_character_refs@U?$attribute_value_pred@$0CC@@?$xml_document@D@rapidxml@@U?$attribute_value_pure_pred@$0CC@@23@$0GA@@?$xml_document@D@rapidxml@@CAPEADAEAPEAD@Z 00000001400be8a0 f i Registry.obj
 0001:000bda68       ??$skip_and_expand_character_refs@U?$attribute_value_pred@$0CH@@?$xml_document@D@rapidxml@@U?$attribute_value_pure_pred@$0CH@@23@$0GA@@?$xml_document@D@rapidxml@@CAPEADAEAPEAD@Z 00000001400bea68 f i Registry.obj
 0001:000bdc30       ??$skip_and_expand_character_refs@Utext_pred@?$xml_document@D@rapidxml@@Utext_pure_no_ws_pred@23@$0GA@@?$xml_document@D@rapidxml@@CAPEADAEAPEAD@Z 00000001400bec30 f i Registry.obj
 0001:000bddf8       ??$sprintf_c@$03@@YAHAEAY03DPEBDZZ 00000001400bedf8 f i Registry.obj
 0001:000bde90       ??0SettingsINI@@QEAA@AEBUSettingsStorage@@@Z 00000001400bee90 f   Registry.obj
 0001:000bdedc       ??0SettingsRegistry@@QEAA@XZ 00000001400beedc f   Registry.obj
 0001:000bdf44       ??0SettingsXML@@QEAA@AEBUSettingsStorage@@@Z 00000001400bef44 f   Registry.obj
 0001:000bdfa0       ??0parse_error@rapidxml@@QEAA@AEBV01@@Z 00000001400befa0 f i Registry.obj
 0001:000bdff8       ??0parse_error@rapidxml@@QEAA@PEBDPEAX@Z 00000001400beff8 f i Registry.obj
 0001:000be064       ??1SettingsINI@@UEAA@XZ    00000001400bf064 f   Registry.obj
 0001:000be098       ??1SettingsRegistry@@UEAA@XZ 00000001400bf098 f   Registry.obj
 0001:000be0c0       ??1SettingsXML@@UEAA@XZ    00000001400bf0c0 f   Registry.obj
 0001:000be17c       ??_GSettingsBase@@UEAAPEAXI@Z 00000001400bf17c f i Registry.obj
 0001:000be17c       ??_ESettingsBase@@UEAAPEAXI@Z 00000001400bf17c f i Registry.obj
 0001:000be1a8       ??_GSettingsINI@@UEAAPEAXI@Z 00000001400bf1a8 f i Registry.obj
 0001:000be1a8       ??_ESettingsINI@@UEAAPEAXI@Z 00000001400bf1a8 f i Registry.obj
 0001:000be1dc       ??_ESettingsRegistry@@UEAAPEAXI@Z 00000001400bf1dc f i Registry.obj
 0001:000be1dc       ??_GSettingsRegistry@@UEAAPEAXI@Z 00000001400bf1dc f i Registry.obj
 0001:000be210       ??_ESettingsXML@@UEAAPEAXI@Z 00000001400bf210 f i Registry.obj
 0001:000be210       ??_GSettingsXML@@UEAAPEAXI@Z 00000001400bf210 f i Registry.obj
 0001:000be244       ??_Eparse_error@rapidxml@@UEAAPEAXI@Z 00000001400bf244 f i Registry.obj
 0001:000be244       ??_Gparse_error@rapidxml@@UEAAPEAXI@Z 00000001400bf244 f i Registry.obj
 0001:000be288       ?ClearChildrenTail@SettingsXML@@IEAAXPEAV?$xml_node@D@rapidxml@@0PEBD@Z 00000001400bf288 f   Registry.obj
 0001:000be2fc       ?CloseKey@SettingsINI@@UEAAXXZ 00000001400bf2fc f   Registry.obj
 0001:000be320       ?CloseKey@SettingsRegistry@@UEAAXXZ 00000001400bf320 f   Registry.obj
 0001:000be344       ?CloseKey@SettingsXML@@UEAAXXZ 00000001400bf344 f   Registry.obj
 0001:000be370       ?CloseStorage@SettingsXML@@IEAAXXZ 00000001400bf370 f   Registry.obj
 0001:000be650       ?ConvertData@SettingsXML@@SA_NPEBD0PEAEK@Z 00000001400bf650 f   Registry.obj
 0001:000be8ac       ?Delete@SettingsINI@@UEAAXPEB_W@Z 00000001400bf8ac f   Registry.obj
 0001:000be8e8       ?Delete@SettingsRegistry@@UEAAXPEB_W@Z 00000001400bf8e8 f   Registry.obj
 0001:000be8f4       ?Delete@SettingsXML@@UEAAXPEB_W@Z 00000001400bf8f4 f   Registry.obj
 0001:000be900       ?DeleteImpl@SettingsXML@@IEAAXPEB_W0@Z 00000001400bf900 f   Registry.obj
 0001:000be948       ?DeleteKey@SettingsRegistry@@UEAAXPEB_W@Z 00000001400bf948 f   Registry.obj
 0001:000be954       ?DeleteKey@SettingsXML@@UEAAXPEB_W@Z 00000001400bf954 f   Registry.obj
 0001:000be960       ?FindItem@SettingsXML@@IEAAPEAV?$xml_node@D@rapidxml@@PEAV23@PEB_W1_N@Z 00000001400bf960 f   Registry.obj
 0001:000beb4c       ?GetAttr@SettingsXML@@IEAAPEBDPEAV?$xml_node@D@rapidxml@@PEBD@Z 00000001400bfb4c f   Registry.obj
 0001:000beba0       ?Load@SettingsBase@@QEAA_NPEB_WAEAD@Z 00000001400bfba0 f   Registry.obj
 0001:000beba0       ?Load@SettingsBase@@QEAA_NPEB_WAEAE@Z 00000001400bfba0 f   Registry.obj
 0001:000bebb0       ?Load@SettingsBase@@QEAA_NPEB_WAEAI@Z 00000001400bfbb0 f   Registry.obj
 0001:000bebb0       ?Load@SettingsBase@@QEAA_NPEB_WAEAJ@Z 00000001400bfbb0 f   Registry.obj
 0001:000bebb0       ?Load@SettingsBase@@QEAA_NPEB_WAEAK@Z 00000001400bfbb0 f   Registry.obj
 0001:000bebb0       ?Load@SettingsBase@@QEAA_NPEB_WAEAH@Z 00000001400bfbb0 f   Registry.obj
 0001:000bebc0       ?Load@SettingsBase@@QEAA_NPEB_WAEAUtagRECT@@@Z 00000001400bfbc0 f   Registry.obj
 0001:000becc4       ?Load@SettingsBase@@QEAA_NPEB_WAEA_N@Z 00000001400bfcc4 f   Registry.obj
 0001:000becf8       ?Load@SettingsRegistry@@UEAA_NPEB_WPEAEK@Z 00000001400bfcf8 f   Registry.obj
 0001:000bed94       ?Load@SettingsRegistry@@UEAA_NPEB_WPEAPEA_W@Z 00000001400bfd94 f   Registry.obj
 0001:000bee5c       ?Load@SettingsRegistry@@UEAA_NPEB_WPEA_WH@Z 00000001400bfe5c f   Registry.obj
 0001:000bef00       ?Load@SettingsXML@@UEAA_NPEB_WPEAEK@Z 00000001400bff00 f   Registry.obj
 0001:000beff8       ?Load@SettingsXML@@UEAA_NPEB_WPEAPEA_W@Z 00000001400bfff8 f   Registry.obj
 0001:000bf2c8       ?Load@SettingsXML@@UEAA_NPEB_WPEA_WH@Z 00000001400c02c8 f   Registry.obj
 0001:000bf34c       ?OpenKey@SettingsINI@@UEAA_NPEB_WIH@Z 00000001400c034c f   Registry.obj
 0001:000bf568       ?OpenKey@SettingsRegistry@@QEAA_NPEAUHKEY__@@PEB_WIH@Z 00000001400c0568 f   Registry.obj
 0001:000bf5cc       ?OpenKey@SettingsRegistry@@UEAA_NPEB_WIH@Z 00000001400c05cc f   Registry.obj
 0001:000bf5ec       ?OpenKey@SettingsXML@@UEAA_NPEB_WIH@Z 00000001400c05ec f   Registry.obj
 0001:000bf854       ?OpenStorage@SettingsXML@@IEAA_NIAEAPEA_W@Z 00000001400c0854 f   Registry.obj
 0001:000bfc00       ?Save@SettingsBase@@QEAAXPEB_W0@Z 00000001400c0c00 f   Registry.obj
 0001:000bfc44       ?Save@SettingsBase@@QEAAXPEB_WAEBE@Z 00000001400c0c44 f   Registry.obj
 0001:000bfc44       ?Save@SettingsBase@@QEAAXPEB_WAEBD@Z 00000001400c0c44 f   Registry.obj
 0001:000bfc44       ?Save@SettingsBase@@QEAAXPEB_WAEB_N@Z 00000001400c0c44 f   Registry.obj
 0001:000bfc70       ?Save@SettingsBase@@QEAAXPEB_WAEBH@Z 00000001400c0c70 f   Registry.obj
 0001:000bfc70       ?Save@SettingsBase@@QEAAXPEB_WAEBJ@Z 00000001400c0c70 f   Registry.obj
 0001:000bfc90       ?Save@SettingsBase@@QEAAXPEB_WAEBI@Z 00000001400c0c90 f   Registry.obj
 0001:000bfcb0       ?Save@SettingsBase@@QEAAXPEB_WAEBK@Z 00000001400c0cb0 f   Registry.obj
 0001:000bfccc       ?Save@SettingsBase@@QEAAXPEB_WAEBUtagRECT@@@Z 00000001400c0ccc f   Registry.obj
 0001:000bfd4c       ?Save@SettingsRegistry@@UEAAXPEB_WPEBEKK@Z 00000001400c0d4c f   Registry.obj
 0001:000bfd88       ?Save@SettingsXML@@UEAAXPEB_WPEBEKK@Z 00000001400c0d88 f   Registry.obj
 0001:000c02a8       ?SaveMSZ@SettingsBase@@QEAAXPEB_W0K@Z 00000001400c12a8 f   Registry.obj
 0001:000c02dc       ?SetAttr@SettingsXML@@IEAA_NPEAV?$xml_node@D@rapidxml@@PEBD1@Z 00000001400c12dc f   Registry.obj
 0001:000c0434       ?SetAttr@SettingsXML@@IEAA_NPEAV?$xml_node@D@rapidxml@@PEBDPEB_W@Z 00000001400c1434 f   Registry.obj
 0001:000c0488       ?SetMultiLine@SettingsXML@@IEAA_NPEAV?$xml_node@D@rapidxml@@PEB_WJ@Z 00000001400c1488 f   Registry.obj
 0001:000c0630       ?TouchKey@SettingsXML@@IEAAXPEAV?$xml_node@D@rapidxml@@@Z 00000001400c1630 f   Registry.obj
 0001:000c0764       ?_Reallocate_exactly@?$vector@DV?$MArrayAllocator@D@@@std@@AEAAX_K@Z 00000001400c1764 f i Registry.obj
 0001:000c0804       ?allocate_aligned@?$memory_pool@D@rapidxml@@AEAAPEAX_K@Z 00000001400c1804 f i Registry.obj
 0001:000c08ac       ?clear@?$memory_pool@D@rapidxml@@QEAAXXZ 00000001400c18ac f i Registry.obj
 0001:000c0928       ?first_attribute@?$xml_node@D@rapidxml@@QEBAPEAV?$xml_attribute@D@2@PEBD_K_N@Z 00000001400c1928 f i Registry.obj
 0001:000c09fc       ?first_node@?$xml_node@D@rapidxml@@QEBAPEAV12@PEBD_K_N@Z 00000001400c19fc f i Registry.obj
 0001:000c0ad0       ?insert_node@?$xml_node@D@rapidxml@@QEAAXPEAV12@0@Z 00000001400c1ad0 f i Registry.obj
 0001:000c0b50       ?next_sibling@?$xml_node@D@rapidxml@@QEBAPEAV12@PEBD_K_N@Z 00000001400c1b50 f i Registry.obj
 0001:000c0c24       ?remove_attribute@?$xml_node@D@rapidxml@@QEAAXPEAV?$xml_attribute@D@2@@Z 00000001400c1c24 f i Registry.obj
 0001:000c0c9c       ?remove_node@?$xml_node@D@rapidxml@@QEAAXPEAV12@@Z 00000001400c1c9c f i Registry.obj
 0001:000c0d14       ?utf2wcs@SettingsXML@@KAPEB_WPEBDAEAUCEStr@@@Z 00000001400c1d14 f   Registry.obj
 0001:000c0db4       ?wcs2utf@SettingsXML@@IEAAPEBDPEB_W@Z 00000001400c1db4 f   Registry.obj
 0001:000c0e6c       ?wcs2utf@SettingsXML@@IEBAPEBDPEB_WAEAUCEStrA@@@Z 00000001400c1e6c f   Registry.obj
 0001:000c0f28       ?what@parse_error@rapidxml@@UEBAPEBDXZ 00000001400c1f28 f i Registry.obj
 0001:000c0f30       ??0CRunQueue@@QEAA@XZ      00000001400c1f30 f   RunQueue.obj
 0001:000c0fe4       ??1CRunQueue@@QEAA@XZ      00000001400c1fe4 f   RunQueue.obj
 0001:000c1090       ?AdvanceQueue@CRunQueue@@QEAAXXZ 00000001400c2090 f   RunQueue.obj
 0001:000c10e4       ?ProcessRunQueue@CRunQueue@@AEAAXXZ 00000001400c20e4 f   RunQueue.obj
 0001:000c1278       ?RequestRConStartup@CRunQueue@@QEAAXPEAVCRealConsole@@@Z 00000001400c2278 f   RunQueue.obj
 0001:000c1338       ?RunQueueThread@CRunQueue@@AEAAKXZ 00000001400c2338 f   RunQueue.obj
 0001:000c13b8       ?RunQueueThreadHelper@CRunQueue@@CAKPEAX@Z 00000001400c23b8 f   RunQueue.obj
 0001:000c13c8       ?StartQueue@CRunQueue@@QEAAXXZ 00000001400c23c8 f   RunQueue.obj
 0001:000c1408       ?Terminate@CRunQueue@@QEAAXXZ 00000001400c2408 f   RunQueue.obj
 0001:000c146c       ??$swprintf_c@$0BAF@@@YAHAEAY0BAF@_WPEB_WZZ 00000001400c246c f i ScreenDump.obj
 0001:000c1498       ?DumpImage@@YAHPEAUHDC__@@PEAUHBITMAP__@@HHHHPEB_W_N@Z 00000001400c2498 f   ScreenDump.obj
 0001:000c178c       ?DumpImage@@YAHPEAUHDC__@@PEAUHBITMAP__@@HHPEB_W@Z 00000001400c278c f   ScreenDump.obj
 0001:000c17bc       ?LoadScreen@@YAHPEAUHDC__@@HHHHPEAPEAEPEAK_N@Z 00000001400c27bc f   ScreenDump.obj
 0001:000c2764       ?EditIconHint_Process@@YA_NPEAUHWND__@@I_K_JAEA_J@Z 00000001400c3764 f   SearchCtrl.obj
 0001:000c29d0       ?EditIconHint_ResChanged@@YAXPEAUHWND__@@@Z 00000001400c39d0 f   SearchCtrl.obj
 0001:000c2a5c       ?EditIconHint_Set@@YAXPEAUHWND__@@0_NPEB_W1IG@Z 00000001400c3a5c f   SearchCtrl.obj
 0001:000c2c88       ?EditIconHint_SetTimer@@YAXPEAUHWND__@@@Z 00000001400c3c88 f   SearchCtrl.obj
 0001:000c2ca0       ?EditIconHint_Subclass@@YAXPEAUHWND__@@0@Z 00000001400c3ca0 f   SearchCtrl.obj
 0001:000c2cb8       ?Get@?$MMap@PEAUHWND__@@UCEIconHintInfo@@$0A@@@QEAA_NAEBQEAUHWND__@@PEAUCEIconHintInfo@@_N@Z 00000001400c3cb8 f i SearchCtrl.obj
 0001:000c2dc4       ?Get@?$MMap@PEAUHWND__@@UTabPanelWinMap@@$0A@@@QEAA_NAEBQEAUHWND__@@PEAUTabPanelWinMap@@_N@Z 00000001400c3dc4 f i WinObjBase.obj
 0001:000c2dc4       ?Get@?$MMap@PEAUHWND__@@UCEIconHintOthers@@$0A@@@QEAA_NAEBQEAUHWND__@@PEAUCEIconHintOthers@@_N@Z 00000001400c3dc4 f i SearchCtrl.obj
 0001:000c2e58       ?GetNext@?$MMap@PEAUHWND__@@UCEIconHintInfo@@$0A@@@QEAA_NPEBQEAUHWND__@@PEAPEAU2@PEAUCEIconHintInfo@@@Z 00000001400c3e58 f i SearchCtrl.obj
 0001:000c2fa0       ?Init@?$MMap@PEAUHWND__@@UCEIconHintInfo@@$0A@@@QEAA_N_K_N@Z 00000001400c3fa0 f i SearchCtrl.obj
 0001:000c3014       ?Init@?$MMap@PEAUHWND__@@UCEIconHintOthers@@$0A@@@QEAA_N_K_N@Z 00000001400c4014 f i SearchCtrl.obj
 0001:000c308c       ?Set@?$MMap@HUCEIconDrawHandles@@$0A@@@QEAA_NAEBHAEBUCEIconDrawHandles@@@Z 00000001400c408c f i SearchCtrl.obj
 0001:000c31ec       ?Set@?$MMap@PEAUHWND__@@UCEIconHintInfo@@$0A@@@QEAA_NAEBQEAUHWND__@@AEBUCEIconHintInfo@@@Z 00000001400c41ec f i SearchCtrl.obj
 0001:000c34b0       ?Set@?$MMap@PEAUHWND__@@UTabPanelWinMap@@$0A@@@QEAA_NAEBQEAUHWND__@@AEBUTabPanelWinMap@@@Z 00000001400c44b0 f i WinObjBase.obj
 0001:000c34b0       ?Set@?$MMap@PEAUHWND__@@UCEIconHintOthers@@$0A@@@QEAA_NAEBQEAUHWND__@@AEBUCEIconHintOthers@@@Z 00000001400c44b0 f i SearchCtrl.obj
 0001:000c362c       ?BackColorIdx@AppSettings@@QEBAEXZ 00000001400c462c f   SetAppSettings.obj
 0001:000c3650       ?CTSBashMargin@AppSettings@@QEBA_NXZ 00000001400c4650 f   SetAppSettings.obj
 0001:000c3678       ?CTSClickPromptPosition@AppSettings@@QEBAEXZ 00000001400c4678 f   SetAppSettings.obj
 0001:000c36a0       ?CTSDeleteLeftWord@AppSettings@@QEBAEXZ 00000001400c46a0 f   SetAppSettings.obj
 0001:000c36c8       ?CTSDetectLineEnd@AppSettings@@QEBA_NXZ 00000001400c46c8 f   SetAppSettings.obj
 0001:000c36f0       ?CTSEOL@AppSettings@@QEBAEXZ 00000001400c46f0 f   SetAppSettings.obj
 0001:000c3718       ?CTSShiftArrowStart@AppSettings@@QEBA_NXZ 00000001400c4718 f   SetAppSettings.obj
 0001:000c3740       ?CTSTrimTrailing@AppSettings@@QEBAEXZ 00000001400c4740 f   SetAppSettings.obj
 0001:000c3768       ?Cursor@AppSettings@@QEBA?ATCECursorType@@_N@Z 00000001400c4768 f   SetAppSettings.obj
 0001:000c37c0       ?CursorBlink@AppSettings@@QEBA_N_N@Z 00000001400c47c0 f   SetAppSettings.obj
 0001:000c37e0       ?CursorFixedSize@AppSettings@@QEBAE_N@Z 00000001400c47e0 f   SetAppSettings.obj
 0001:000c3800       ?CursorIgnoreSize@AppSettings@@QEBA_N_N@Z 00000001400c4800 f   SetAppSettings.obj
 0001:000c3820       ?ExtendFonts@AppSettings@@QEBA_NXZ 00000001400c4820 f   SetAppSettings.obj
 0001:000c3848       ?FontBoldColor@AppSettings@@QEBAEXZ 00000001400c4848 f   SetAppSettings.obj
 0001:000c3870       ?FontItalicColor@AppSettings@@QEBAEXZ 00000001400c4870 f   SetAppSettings.obj
 0001:000c3898       ?FontNormalColor@AppSettings@@QEBAEXZ 00000001400c4898 f   SetAppSettings.obj
 0001:000c38c0       ?FreeApps@AppSettings@@QEAAXXZ 00000001400c48c0 f   SetAppSettings.obj
 0001:000c38fc       ?PasteAllLines@AppSettings@@QEBAEXZ 00000001400c48fc f   SetAppSettings.obj
 0001:000c3924       ?PasteFirstLine@AppSettings@@QEBAEXZ 00000001400c4924 f   SetAppSettings.obj
 0001:000c394c       ?PopBackColorIdx@AppSettings@@QEBAEXZ 00000001400c494c f   SetAppSettings.obj
 0001:000c3970       ?PopTextColorIdx@AppSettings@@QEBAEXZ 00000001400c4970 f   SetAppSettings.obj
 0001:000c3994       ?PosixAllLines@AppSettings@@QEBAEXZ 00000001400c4994 f   SetAppSettings.obj
 0001:000c39bc       ?PosixFirstLine@AppSettings@@QEBAEXZ 00000001400c49bc f   SetAppSettings.obj
 0001:000c39e4       ?SetNames@AppSettings@@QEAAXPEB_W@Z 00000001400c49e4 f   SetAppSettings.obj
 0001:000c3ab4       ?TextColorIdx@AppSettings@@QEBAEXZ 00000001400c4ab4 f   SetAppSettings.obj
 0001:000c3ad8       ?FreePtr@CommandTasks@@QEAAXXZ 00000001400c4ad8 f   SetCmdTask.obj
 0001:000c3b38       ?LoadCmdTask@CommandTasks@@QEAA_NPEAUSettingsBase@@H@Z 00000001400c4b38 f   SetCmdTask.obj
 0001:000c3e78       ?ParseGuiArgs@CommandTasks@@QEBAXPEAURConStartArgsEx@@@Z 00000001400c4e78 f   SetCmdTask.obj
 0001:000c4200       ?SaveCmdTask@CommandTasks@@QEAA_NPEAUSettingsBase@@_N@Z 00000001400c5200 f   SetCmdTask.obj
 0001:000c4494       ?SetCommands@CommandTasks@@QEAA_NPEB_W@Z 00000001400c5494 f   SetCmdTask.obj
 0001:000c455c       ?SetGuiArg@CommandTasks@@QEAA_NPEB_W@Z 00000001400c555c f   SetCmdTask.obj
 0001:000c4624       ?SetName@CommandTasks@@QEAAXPEB_WH@Z 00000001400c5624 f   SetCmdTask.obj
 0001:000c4730       ?FreePtr@ColorPalette@@QEAAXXZ 00000001400c5730 f   SetColorPalette.obj
 0001:000c4758       ?GetColors@ColorPalette@@QEAAPEAK_N@Z 00000001400c5758 f   SetColorPalette.obj
 0001:000c4784       ??$swprintf_c@$0BMM@@@YAHAEAY0BMM@_WPEB_WZZ 00000001400c5784 f i SetDlgButtons.obj
 0001:000c47b0       ?CheckButtonMacro@CSetDlgButtons@@SAPEA_WGE@Z 00000001400c57b0 f   SetDlgButtons.obj
 0001:000c489c       ?OnBtn_ActivateSplitMouseOver@CSetDlgButtons@@KAXPEAUHWND__@@GE@Z 00000001400c589c f   SetDlgButtons.obj
 0001:000c48d8       ?OnBtn_ActivityReset@CSetDlgButtons@@KAXPEAUHWND__@@GE@Z 00000001400c58d8 f   SetDlgButtons.obj
 0001:000c4930       ?OnBtn_AddDefaults@CSetDlgButtons@@KAXPEAUHWND__@@GE@Z 00000001400c5930 f   SetDlgButtons.obj
 0001:000c4a1c       ?OnBtn_AdminSuffixOrShield@CSetDlgButtons@@KAXPEAUHWND__@@GE@Z 00000001400c5a1c f   SetDlgButtons.obj
 0001:000c4b50       ?OnBtn_AnsiSecureRadio@CSetDlgButtons@@KAXPEAUHWND__@@GE@Z 00000001400c5b50 f   SetDlgButtons.obj
 0001:000c4ba8       ?OnBtn_AntiAliasing2@CSetDlgButtons@@KAXPEAUHWND__@@GE@Z 00000001400c5ba8 f   SetDlgButtons.obj
 0001:000c4bd8       ?OnBtn_ApplyPos@CSetDlgButtons@@KAXPEAUHWND__@@GE@Z 00000001400c5bd8 f   SetDlgButtons.obj
 0001:000c4e8c       ?OnBtn_BgAllowPlugin@CSetDlgButtons@@KAXPEAUHWND__@@GE@Z 00000001400c5e8c f   SetDlgButtons.obj
 0001:000c4ebc       ?OnBtn_BgImageChoose@CSetDlgButtons@@KAXPEAUHWND__@@GE@Z 00000001400c5ebc f   SetDlgButtons.obj
 0001:000c510c       ?OnBtn_BgImageEnable@CSetDlgButtons@@KAXPEAUHWND__@@GE@Z 00000001400c610c f   SetDlgButtons.obj
 0001:000c524c       ?OnBtn_CTSAutoCopy@CSetDlgButtons@@KAXPEAUHWND__@@GE@Z 00000001400c624c f   SetDlgButtons.obj
 0001:000c52b8       ?OnBtn_CTSEndCopyAuto@CSetDlgButtons@@KAXPEAUHWND__@@GE@Z 00000001400c62b8 f   SetDlgButtons.obj
 0001:000c53a8       ?OnBtn_CascadeFixed@CSetDlgButtons@@KAXPEAUHWND__@@GE@Z 00000001400c63a8 f   SetDlgButtons.obj
 0001:000c5434       ?OnBtn_ClinkWebPage@CSetDlgButtons@@KAXPEAUHWND__@@GE@Z 00000001400c6434 f   SetDlgButtons.obj
 0001:000c5464       ?OnBtn_CloseConEmuOptions@CSetDlgButtons@@KAXPEAUHWND__@@GE@Z 00000001400c6464 f   SetDlgButtons.obj
 0001:000c5680       ?OnBtn_CloseConfirmFlags@CSetDlgButtons@@KAXPEAUHWND__@@GE@Z 00000001400c6680 f   SetDlgButtons.obj
 0001:000c56cc       ?OnBtn_CmdAutoActions@CSetDlgButtons@@KAXPEAUHWND__@@GE@Z 00000001400c66cc f   SetDlgButtons.obj
 0001:000c5744       ?OnBtn_CmdGroupApp@CSetDlgButtons@@KAXPEAUHWND__@@GE@Z 00000001400c6744 f   SetDlgButtons.obj
 0001:000c5968       ?OnBtn_CmdGroupKey@CSetDlgButtons@@KAXPEAUHWND__@@GE@Z 00000001400c6968 f   SetDlgButtons.obj
 0001:000c5a50       ?OnBtn_CmdTaskbarUpdate@CSetDlgButtons@@KAXPEAUHWND__@@GE@Z 00000001400c6a50 f   SetDlgButtons.obj
 0001:000c5aa8       ?OnBtn_CmdTasksActive@CSetDlgButtons@@KAXPEAUHWND__@@GE@Z 00000001400c6aa8 f   SetDlgButtons.obj
 0001:000c5af4       ?OnBtn_CmdTasksAdd@CSetDlgButtons@@KAXPEAUHWND__@@GE@Z 00000001400c6af4 f   SetDlgButtons.obj
 0001:000c5be8       ?OnBtn_CmdTasksDel@CSetDlgButtons@@KAXPEAUHWND__@@GE@Z 00000001400c6be8 f   SetDlgButtons.obj
 0001:000c5ebc       ?OnBtn_CmdTasksDir@CSetDlgButtons@@KAXPEAUHWND__@@GE@Z 00000001400c6ebc f   SetDlgButtons.obj
 0001:000c6044       ?OnBtn_CmdTasksDup@CSetDlgButtons@@KAXPEAUHWND__@@GE@Z 00000001400c7044 f   SetDlgButtons.obj
 0001:000c61b8       ?OnBtn_CmdTasksFlags@CSetDlgButtons@@KAXPEAUHWND__@@GE@Z 00000001400c71b8 f   SetDlgButtons.obj
 0001:000c6344       ?OnBtn_CmdTasksParm@CSetDlgButtons@@KAXPEAUHWND__@@GE@Z 00000001400c7344 f   SetDlgButtons.obj
 0001:000c6474       ?OnBtn_CmdTasksReload@CSetDlgButtons@@KAXPEAUHWND__@@GE@Z 00000001400c7474 f   SetDlgButtons.obj
 0001:000c654c       ?OnBtn_CmdTasksUpDown@CSetDlgButtons@@KAXPEAUHWND__@@GE@Z 00000001400c754c f   SetDlgButtons.obj
 0001:000c6650       ?OnBtn_ColorField@CSetDlgButtons@@KAXPEAUHWND__@@GE@Z 00000001400c7650 f   SetDlgButtons.obj
 0001:000c67c4       ?OnBtn_ColorFormat@CSetDlgButtons@@KAXPEAUHWND__@@GE@Z 00000001400c77c4 f   SetDlgButtons.obj
 0001:000c6834       ?OnBtn_ColorSchemeSaveDelete@CSetDlgButtons@@KAXPEAUHWND__@@GE@Z 00000001400c7834 f   SetDlgButtons.obj
 0001:000c6898       ?OnBtn_ComspecBitsRadio@CSetDlgButtons@@KAXPEAUHWND__@@GE@Z 00000001400c7898 f   SetDlgButtons.obj
 0001:000c68ec       ?OnBtn_ComspecExplicit@CSetDlgButtons@@KAXPEAUHWND__@@GE@Z 00000001400c78ec f   SetDlgButtons.obj
 0001:000c6a64       ?OnBtn_ComspecRadio@CSetDlgButtons@@KAXPEAUHWND__@@GE@Z 00000001400c7a64 f   SetDlgButtons.obj
 0001:000c6b04       ?OnBtn_ComspecTest@CSetDlgButtons@@KAXPEAUHWND__@@GE@Z 00000001400c7b04 f   SetDlgButtons.obj
 0001:000c6b64       ?OnBtn_CursorOptions@CSetDlgButtons@@KAXPEAUHWND__@@GE@Z 00000001400c7b64 f   SetDlgButtons.obj
 0001:000c6b94       ?OnBtn_DebugActivityRadio@CSetDlgButtons@@KAXPEAUHWND__@@GE@Z 00000001400c7b94 f   SetDlgButtons.obj
 0001:000c6c08       ?OnBtn_DebugLog@CSetDlgButtons@@KAXPEAUHWND__@@GE@Z 00000001400c7c08 f   SetDlgButtons.obj
 0001:000c6cb4       ?OnBtn_DefTerm@CSetDlgButtons@@KAXPEAUHWND__@@GE@Z 00000001400c7cb4 f   SetDlgButtons.obj
 0001:000c6fa4       ?OnBtn_DosBox@CSetDlgButtons@@KAXPEAUHWND__@@GE@Z 00000001400c7fa4 f   SetDlgButtons.obj
 0001:000c7084       ?OnBtn_ExtendFonts@CSetDlgButtons@@KAXPEAUHWND__@@GE@Z 00000001400c8084 f   SetDlgButtons.obj
 0001:000c70bc       ?OnBtn_FixFarBorders@CSetDlgButtons@@KAXPEAUHWND__@@GE@Z 00000001400c80bc f   SetDlgButtons.obj
 0001:000c70f4       ?OnBtn_FontAuto@CSetDlgButtons@@KAXPEAUHWND__@@GE@Z 00000001400c80f4 f   SetDlgButtons.obj
 0001:000c7194       ?OnBtn_GotoEditorCmd@CSetDlgButtons@@KAXPEAUHWND__@@GE@Z 00000001400c8194 f   SetDlgButtons.obj
 0001:000c7344       ?OnBtn_HideCaption@CSetDlgButtons@@KAXPEAUHWND__@@GE@Z 00000001400c8344 f   SetDlgButtons.obj
 0001:000c73a0       ?OnBtn_HideCaptionAlways@CSetDlgButtons@@KAXPEAUHWND__@@GE@Z 00000001400c83a0 f   SetDlgButtons.obj
 0001:000c7430       ?OnBtn_HideChildCaption@CSetDlgButtons@@KAXPEAUHWND__@@GE@Z 00000001400c8430 f   SetDlgButtons.obj
 0001:000c745c       ?OnBtn_HideInactiveConTabs@CSetDlgButtons@@KAXPEAUHWND__@@GE@Z 00000001400c845c f   SetDlgButtons.obj
 0001:000c7488       ?OnBtn_HideOrMinOnLastTabClose@CSetDlgButtons@@KAXPEAUHWND__@@GE@Z 00000001400c8488 f   SetDlgButtons.obj
 0001:000c75cc       ?OnBtn_InstallKeybHooks@CSetDlgButtons@@KAXPEAUHWND__@@GE@Z 00000001400c85cc f   SetDlgButtons.obj
 0001:000c7638       ?OnBtn_LongOutput@CSetDlgButtons@@KAXPEAUHWND__@@GE@Z 00000001400c8638 f   SetDlgButtons.obj
 0001:000c768c       ?OnBtn_MinByEscRadio@CSetDlgButtons@@KAXPEAUHWND__@@GE@Z 00000001400c868c f   SetDlgButtons.obj
 0001:000c76ec       ?OnBtn_MinMaxKey@CSetDlgButtons@@KAXPEAUHWND__@@GE@Z 00000001400c86ec f   SetDlgButtons.obj
 0001:000c77b8       ?OnBtn_Monospace@CSetDlgButtons@@KAXPEAUHWND__@@GE@Z 00000001400c87b8 f   SetDlgButtons.obj
 0001:000c7810       ?OnBtn_MultiShowPanes@CSetDlgButtons@@KAXPEAUHWND__@@GE@Z 00000001400c8810 f   SetDlgButtons.obj
 0001:000c7860       ?OnBtn_NormalFullscreenMaximized@CSetDlgButtons@@KAXPEAUHWND__@@GE@Z 00000001400c8860 f   SetDlgButtons.obj
 0001:000c78ac       ?OnBtn_OneTabPerGroup@CSetDlgButtons@@KAXPEAUHWND__@@GE@Z 00000001400c88ac f   SetDlgButtons.obj
 0001:000c78d8       ?OnBtn_QuakeStyles@CSetDlgButtons@@KAXPEAUHWND__@@GE@Z 00000001400c88d8 f   SetDlgButtons.obj
 0001:000c794c       ?OnBtn_RConVisible@CSetDlgButtons@@KAXPEAUHWND__@@GE@Z 00000001400c894c f   SetDlgButtons.obj
 0001:000c7994       ?OnBtn_ScrollbarStyle@CSetDlgButtons@@KAXPEAUHWND__@@GE@Z 00000001400c8994 f   SetDlgButtons.obj
 0001:000c7a9c       ?OnBtn_SendConsoleSpecials@CSetDlgButtons@@KAXPEAUHWND__@@GE@Z 00000001400c8a9c f   SetDlgButtons.obj
 0001:000c7b30       ?OnBtn_ShowFarWindows@CSetDlgButtons@@KAXPEAUHWND__@@GE@Z 00000001400c8b30 f   SetDlgButtons.obj
 0001:000c7b5c       ?OnBtn_SnapToDesktopEdges@CSetDlgButtons@@KAXPEAUHWND__@@GE@Z 00000001400c8b5c f   SetDlgButtons.obj
 0001:000c7b94       ?OnBtn_StatusAddDel@CSetDlgButtons@@KAXPEAUHWND__@@GE@Z 00000001400c8b94 f   SetDlgButtons.obj
 0001:000c7d60       ?OnBtn_StatusHorzSep@CSetDlgButtons@@KAXPEAUHWND__@@GE@Z 00000001400c8d60 f   SetDlgButtons.obj
 0001:000c7da8       ?OnBtn_StatusSystemColors@CSetDlgButtons@@KAXPEAUHWND__@@GE@Z 00000001400c8da8 f   SetDlgButtons.obj
 0001:000c7e08       ?OnBtn_StatusVertPad@CSetDlgButtons@@KAXPEAUHWND__@@GE@Z 00000001400c8e08 f   SetDlgButtons.obj
 0001:000c7e50       ?OnBtn_StatusVertSep@CSetDlgButtons@@KAXPEAUHWND__@@GE@Z 00000001400c8e50 f   SetDlgButtons.obj
 0001:000c7e84       ?OnBtn_TabsLocationBottom@CSetDlgButtons@@KAXPEAUHWND__@@GE@Z 00000001400c8e84 f   SetDlgButtons.obj
 0001:000c7ec8       ?OnBtn_TabsRadioAuto@CSetDlgButtons@@KAXPEAUHWND__@@GE@Z 00000001400c8ec8 f   SetDlgButtons.obj
 0001:000c7f60       ?OnBtn_TaskbarBtnRadio@CSetDlgButtons@@KAXPEAUHWND__@@GE@Z 00000001400c8f60 f   SetDlgButtons.obj
 0001:000c7fec       ?OnBtn_ThumbBackColors@CSetDlgButtons@@KAXPEAUHWND__@@GE@Z 00000001400c8fec f   SetDlgButtons.obj
 0001:000c8044       ?OnBtn_ThumbLoadFiles@CSetDlgButtons@@KAXPEAUHWND__@@GE@Z 00000001400c9044 f   SetDlgButtons.obj
 0001:000c8074       ?OnBtn_ThumbPreviewBoxColors@CSetDlgButtons@@KAXPEAUHWND__@@GE@Z 00000001400c9074 f   SetDlgButtons.obj
 0001:000c80cc       ?OnBtn_ThumbSelectionBoxColors@CSetDlgButtons@@KAXPEAUHWND__@@GE@Z 00000001400c90cc f   SetDlgButtons.obj
 0001:000c8124       ?OnBtn_Transparent@CSetDlgButtons@@KAXPEAUHWND__@@GE@Z 00000001400c9124 f   SetDlgButtons.obj
 0001:000c81d8       ?OnBtn_TransparentSeparate@CSetDlgButtons@@KAXPEAUHWND__@@GE@Z 00000001400c91d8 f   SetDlgButtons.obj
 0001:000c82c4       ?OnBtn_TrueColorer@CSetDlgButtons@@KAXPEAUHWND__@@GE@Z 00000001400c92c4 f   SetDlgButtons.obj
 0001:000c82f4       ?OnBtn_TryToCenter@CSetDlgButtons@@KAXPEAUHWND__@@GE@Z 00000001400c92f4 f   SetDlgButtons.obj
 0001:000c8334       ?OnBtn_UnicodeRangesApply@CSetDlgButtons@@KAXPEAUHWND__@@GE@Z 00000001400c9334 f   SetDlgButtons.obj
 0001:000c83f4       ?OnBtn_UpdateApplyAndCheck@CSetDlgButtons@@KAXPEAUHWND__@@GE@Z 00000001400c93f4 f   SetDlgButtons.obj
 0001:000c84ac       ?OnBtn_UpdateArcCmdLine@CSetDlgButtons@@KAXPEAUHWND__@@GE@Z 00000001400c94ac f   SetDlgButtons.obj
 0001:000c85f0       ?OnBtn_UpdateCheckFast@CSetDlgButtons@@KAXPEAUHWND__@@GE@Z 00000001400c95f0 f   SetDlgButtons.obj
 0001:000c863c       ?OnBtn_UpdateDownloadPath@CSetDlgButtons@@KAXPEAUHWND__@@GE@Z 00000001400c963c f   SetDlgButtons.obj
 0001:000c8780       ?OnBtn_UpdateInetTool@CSetDlgButtons@@KAXPEAUHWND__@@GE@Z 00000001400c9780 f   SetDlgButtons.obj
 0001:000c8808       ?OnBtn_UpdateInetToolCmd@CSetDlgButtons@@KAXPEAUHWND__@@GE@Z 00000001400c9808 f   SetDlgButtons.obj
 0001:000c89ac       ?OnBtn_UpdateTypeRadio@CSetDlgButtons@@KAXPEAUHWND__@@GE@Z 00000001400c99ac f   SetDlgButtons.obj
 0001:000c8a28       ?OnBtn_UpdateUseProxy@CSetDlgButtons@@KAXPEAUHWND__@@GE@Z 00000001400c9a28 f   SetDlgButtons.obj
 0001:000c8ac0       ?OnBtn_UseClink@CSetDlgButtons@@KAXPEAUHWND__@@GE@Z 00000001400c9ac0 f   SetDlgButtons.obj
 0001:000c8b7c       ?OnBtn_UseCurrentSizePos@CSetDlgButtons@@KAXPEAUHWND__@@GE@Z 00000001400c9b7c f   SetDlgButtons.obj
 0001:000c8c44       ?OnBtn_UseWinArrowNumTab@CSetDlgButtons@@KAXPEAUHWND__@@GE@Z 00000001400c9c44 f   SetDlgButtons.obj
 0001:000c8ca4       ?OnBtn_UserScreenTransparent@CSetDlgButtons@@KAXPEAUHWND__@@GE@Z 00000001400c9ca4 f   SetDlgButtons.obj
 0001:000c8ce0       ?OnButtonClicked@CSetDlgButtons@@KA_JPEAUHWND__@@_K_J@Z 00000001400c9ce0 f   SetDlgButtons.obj
 0001:000c8d2c       ?OnButtonClicked_Cursor@CSetDlgButtons@@KAXPEAUHWND__@@GEPEAUAppSettings@@@Z 00000001400c9d2c f   SetDlgButtons.obj
 0001:000c8e70       ?ProcessButtonClick@CSetDlgButtons@@KA_NPEAUHWND__@@GE@Z 00000001400c9e70 f   SetDlgButtons.obj
 0001:000cab04       ?ColorBoxProc@CSetDlgColors@@KA_JPEAUHWND__@@I_K_J@Z 00000001400cbb04 f   SetDlgColors.obj
 0001:000cadcc       ?ColorCtlStatic@CSetDlgColors@@SA_JPEAUHWND__@@G0@Z 00000001400cbdcc f   SetDlgColors.obj
 0001:000caf24       ?ColorEditDialog@CSetDlgColors@@SA_NPEAUHWND__@@G@Z 00000001400cbf24 f   SetDlgColors.obj
 0001:000cafb8       ?ColorSetEdit@CSetDlgColors@@SAXPEAUHWND__@@G@Z 00000001400cbfb8 f   SetDlgColors.obj
 0001:000cb188       ?FillBgImageColors@CSetDlgColors@@SAXPEAUHWND__@@@Z 00000001400cc188 f   SetDlgColors.obj
 0001:000cb2a4       ?GetColorById@CSetDlgColors@@SA_NGPEAK@Z 00000001400cc2a4 f   SetDlgColors.obj
 0001:000cb374       ?GetColorRef@CSetDlgColors@@SA_NPEAUHWND__@@GPEAK@Z 00000001400cc374 f   SetDlgColors.obj
 0001:000cb3e0       ?OnSettingsLoaded@CSetDlgColors@@SAXAEAY0BA@$$CBK@Z 00000001400cc3e0 f   SetDlgColors.obj
 0001:000cb400       ?ReleaseHandles@CSetDlgColors@@SAXXZ 00000001400cc400 f   SetDlgColors.obj
 0001:000cb454       ?SetColorById@CSetDlgColors@@SA_NGK@Z 00000001400cc454 f   SetDlgColors.obj
 0001:000cb598       ?ShowColorDialog@CSetDlgColors@@SA_NPEAUHWND__@@PEAK@Z 00000001400cc598 f   SetDlgColors.obj
 0001:000cb608       ?EnumFamCallBack@CSetDlgFonts@@KAHPEAUtagLOGFONTW@@PEAUtagNEWTEXTMETRICW@@KPEAX@Z 00000001400cc608 f   SetDlgFonts.obj
 0001:000cb718       ?EnumFontCallBackEx@CSetDlgFonts@@KAHPEAUtagENUMLOGFONTEXW@@PEAUtagNEWTEXTMETRICEXW@@K_J@Z 00000001400cc718 f   SetDlgFonts.obj
 0001:000cb764       ?EnumFontsFinished@CSetDlgFonts@@SA_NXZ 00000001400cc764 f   SetDlgFonts.obj
 0001:000cb76c       ?EnumFontsThread@CSetDlgFonts@@CAKPEAX@Z 00000001400cc76c f   SetDlgFonts.obj
 0001:000cba6c       ?StartEnumFontsThread@CSetDlgFonts@@KA_NXZ 00000001400cca6c f   SetDlgFonts.obj
 0001:000cbaac       ?EnableDlgItems@CSetDlgLists@@SAXPEAUHWND__@@PEBK_K_N@Z 00000001400ccaac f   SetDlgLists.obj
 0001:000cbb08       ?EnableDlgItems@CSetDlgLists@@SAXPEAUHWND__@@W4eWordItems@1@_N@Z 00000001400ccb08 f   SetDlgLists.obj
 0001:000cbb44       ?FillCBList@CSetDlgLists@@SAXPEAUHWND__@@_NPEAPEB_WPEB_W@Z 00000001400ccb44 f   SetDlgLists.obj
 0001:000cbc10       ?FillListBox@CSetDlgLists@@SAXPEAUHWND__@@GW4eFillListBoxItems@1@@Z 00000001400ccc10 f   SetDlgLists.obj
 0001:000cbc80       ?FillListBoxItems@CSetDlgLists@@SAXPEAUHWND__@@W4eFillListBoxItems@1@AEAE_N@Z 00000001400ccc80 f   SetDlgLists.obj
 0001:000cbcc0       ?FillListBoxItems@CSetDlgLists@@SAXPEAUHWND__@@W4eFillListBoxItems@1@AEAI_N@Z 00000001400cccc0 f   SetDlgLists.obj
 0001:000cbdc4       ?FillListBoxItems@CSetDlgLists@@SAXPEAUHWND__@@W4eFillListBoxItems@1@AEBI@Z 00000001400ccdc4 f   SetDlgLists.obj
 0001:000cbde4       ?FillListBoxItems@CSetDlgLists@@SAXPEAUHWND__@@W4eWordItems@1@AEAI_N@Z 00000001400ccde4 f   SetDlgLists.obj
 0001:000cbef8       ?GetListBoxItem@CSetDlgLists@@SA_NPEAUHWND__@@GW4eFillListBoxItems@1@AEAE@Z 00000001400ccef8 f   SetDlgLists.obj
 0001:000cbf20       ?GetListBoxItem@CSetDlgLists@@SA_NPEAUHWND__@@GW4eFillListBoxItems@1@AEAI@Z 00000001400ccf20 f   SetDlgLists.obj
 0001:000cbfdc       ?GetListBoxItem@CSetDlgLists@@SA_NPEAUHWND__@@GW4eWordItems@1@AEAI@Z 00000001400ccfdc f   SetDlgLists.obj
 0001:000cc094       ?GetListItems@CSetDlgLists@@SAIW4eFillListBoxItems@1@AEAPEBUListBoxItem@@@Z 00000001400cd094 f   SetDlgLists.obj
 0001:000cc224       ?GetListItems@CSetDlgLists@@SAIW4eWordItems@1@AEAPEBK@Z 00000001400cd224 f   SetDlgLists.obj
 0001:000cc2d4       ?GetListboxCurSel@CSetDlgLists@@SAHPEAUHWND__@@I_N@Z 00000001400cd2d4 f   SetDlgLists.obj
 0001:000cc374       ?GetListboxSelection@CSetDlgLists@@SAHPEAUHWND__@@IAEAPEAH@Z 00000001400cd374 f   SetDlgLists.obj
 0001:000cc458       ?GetSelectedString@CSetDlgLists@@SA_JPEAUHWND__@@GAEAUCEStr@@@Z 00000001400cd458 f   SetDlgLists.obj
 0001:000cc598       ?ListBoxMultiSel@CSetDlgLists@@SAXPEAUHWND__@@IH@Z 00000001400cd598 f   SetDlgLists.obj
 0001:000cc608       ?SelectString@CSetDlgLists@@SAHPEAUHWND__@@GPEB_W@Z 00000001400cd608 f   SetDlgLists.obj
 0001:000cc634       ?SelectStringExact@CSetDlgLists@@SAHPEAUHWND__@@GPEB_W@Z 00000001400cd634 f   SetDlgLists.obj
 0001:000cc7dc       ??0CSetPgANSI@@QEAA@XZ     00000001400cd7dc f   SetPgANSI.obj
 0001:000cc800       ??_ECSetPgANSI@@UEAAPEAXI@Z 00000001400cd800 f i SetPgANSI.obj
 0001:000cc800       ??_GCSetPgANSI@@UEAAPEAXI@Z 00000001400cd800 f i SetPgANSI.obj
 0001:000cc840       ?GetPageType@CSetPgANSI@@UEAA?AW4TabHwndIndex@@XZ 00000001400cd840 f i SetPgANSI.obj
 0001:000cc848       ?OnEditChanged@CSetPgANSI@@UEAA_JPEAUHWND__@@G@Z 00000001400cd848 f   SetPgANSI.obj
 0001:000cc8a4       ?OnInitDialog@CSetPgANSI@@UEAA_JPEAUHWND__@@_N@Z 00000001400cd8a4 f   SetPgANSI.obj
 0001:000cc920       ??0CSetPgAppear@@QEAA@XZ   00000001400cd920 f   SetPgAppear.obj
 0001:000cc944       ??_GCSetPgAppear@@UEAAPEAXI@Z 00000001400cd944 f i SetPgAppear.obj
 0001:000cc944       ??_ECSetPgAppear@@UEAAPEAXI@Z 00000001400cd944 f i SetPgAppear.obj
 0001:000cc984       ?GetPageType@CSetPgAppear@@UEAA?AW4TabHwndIndex@@XZ 00000001400cd984 f i SetPgAppear.obj
 0001:000cc98c       ?OnEditChanged@CSetPgAppear@@UEAA_JPEAUHWND__@@G@Z 00000001400cd98c f   SetPgAppear.obj
 0001:000ccb2c       ?OnInitDialog@CSetPgAppear@@UEAA_JPEAUHWND__@@_N@Z 00000001400cdb2c f   SetPgAppear.obj
 0001:000ccd9c       ??0CSetPgApps@@QEAA@XZ     00000001400cdd9c f   SetPgApps.obj
 0001:000ccdd4       ??1CSetPgApps@@UEAA@XZ     00000001400cddd4 f   SetPgApps.obj
 0001:000cce2c       ??_ECSetPgApps@@UEAAPEAXI@Z 00000001400cde2c f i SetPgApps.obj
 0001:000cce2c       ??_GCSetPgApps@@UEAAPEAXI@Z 00000001400cde2c f i SetPgApps.obj
 0001:000cce60       ?CreateChildDlg@CSetPgApps@@IEAA_NXZ 00000001400cde60 f   SetPgApps.obj
 0001:000cd088       ?DoAppAdd@CSetPgApps@@IEAAXXZ 00000001400ce088 f   SetPgApps.obj
 0001:000cd13c       ?DoAppDel@CSetPgApps@@IEAAXXZ 00000001400ce13c f   SetPgApps.obj
 0001:000cd25c       ?DoAppMove@CSetPgApps@@IEAAX_N@Z 00000001400ce25c f   SetPgApps.obj
 0001:000cd358       ?DoEnableControls@CSetPgApps@@QEAAXG@Z 00000001400ce358 f   SetPgApps.obj
 0001:000cd498       ?DoFillControls@CSetPgApps@@QEAAXPEBUAppSettings@@@Z 00000001400ce498 f   SetPgApps.obj
 0001:000cd784       ?DoReloadApps@CSetPgApps@@IEAAXXZ 00000001400ce784 f   SetPgApps.obj
 0001:000cd7e8       ?GetPageType@CSetPgApps@@UEAA?AW4TabHwndIndex@@XZ 00000001400ce7e8 f i SetPgApps.obj
 0001:000cd7f0       ?NotifyVCon@CSetPgApps@@IEAAXXZ 00000001400ce7f0 f   SetPgApps.obj
 0001:000cd81c       ?OnAppSelectionChanged@CSetPgApps@@IEAAXXZ 00000001400ce81c f   SetPgApps.obj
 0001:000cd8e8       ?OnButtonClicked@CSetPgApps@@UEAA_JPEAUHWND__@@0G@Z 00000001400ce8e8 f   SetPgApps.obj
 0001:000cdd60       ?OnComboBox@CSetPgApps@@UEAA_JPEAUHWND__@@GG@Z 00000001400ced60 f   SetPgApps.obj
 0001:000ce008       ?OnEditChanged@CSetPgApps@@UEAA_JPEAUHWND__@@G@Z 00000001400cf008 f   SetPgApps.obj
 0001:000ce140       ?OnInitDialog@CSetPgApps@@UEAA_JPEAUHWND__@@_N@Z 00000001400cf140 f   SetPgApps.obj
 0001:000ce368       ?PageDlgProc@CSetPgApps@@UEAA_JPEAUHWND__@@I_K_J@Z 00000001400cf368 f   SetPgApps.obj
 0001:000ce55c       ?ProcessDpiChange@CSetPgApps@@UEAAXPEBVCDpiForDialog@@@Z 00000001400cf55c f   SetPgApps.obj
 0001:000ce62c       ?SetListAppName@CSetPgApps@@IEAA_JPEBUAppSettings@@H_J@Z 00000001400cf62c f   SetPgApps.obj
 0001:000ce768       ?pageOpProc_AppsChild@CSetPgApps@@SA_JPEAUHWND__@@I_K_J@Z 00000001400cf768 f   SetPgApps.obj
 0001:000ce9d8       ??0CSetPgBackgr@@QEAA@XZ   00000001400cf9d8 f   SetPgBackgr.obj
 0001:000ce9fc       ??_ECSetPgBackgr@@UEAAPEAXI@Z 00000001400cf9fc f i SetPgBackgr.obj
 0001:000ce9fc       ??_GCSetPgBackgr@@UEAAPEAXI@Z 00000001400cf9fc f i SetPgBackgr.obj
 0001:000cea3c       ?GetPageType@CSetPgBackgr@@UEAA?AW4TabHwndIndex@@XZ 00000001400cfa3c f i SetPgBackgr.obj
 0001:000cea44       ?OnComboBox@CSetPgBackgr@@UEAA_JPEAUHWND__@@GG@Z 00000001400cfa44 f   SetPgBackgr.obj
 0001:000ceabc       ?OnEditChanged@CSetPgBackgr@@UEAA_JPEAUHWND__@@G@Z 00000001400cfabc f   SetPgBackgr.obj
 0001:000cecd8       ?OnInitDialog@CSetPgBackgr@@UEAA_JPEAUHWND__@@_N@Z 00000001400cfcd8 f   SetPgBackgr.obj
 0001:000cee6c       ??0CSetPgBase@@QEAA@XZ     00000001400cfe6c f   SetPgBase.obj
 0001:000ceea8       ??1CSetPgBase@@UEAA@XZ     00000001400cfea8 f   SetPgBase.obj
 0001:000ceef8       ??_GCSetPgBase@@UEAAPEAXI@Z 00000001400cfef8 f i SetPgBase.obj
 0001:000ceef8       ??_ECSetPgBase@@UEAAPEAXI@Z 00000001400cfef8 f i SetPgBase.obj
 0001:000cef2c       ?CreatePage@CSetPgBase@@SAPEAUHWND__@@PEAUConEmuSetupPages@@PEAU2@IPEBVCDpiForDialog@@@Z 00000001400cff2c f   SetPgBase.obj
 0001:000ceff0       ?InitObject@CSetPgBase@@UEAAXPEAUHWND__@@IPEBVCDpiForDialog@@PEAUConEmuSetupPages@@@Z 00000001400cfff0 f   SetPgBase.obj
 0001:000cf030       ?OnButtonClicked@CSetPgBase@@UEAA_JPEAUHWND__@@0G@Z 00000001400d0030 f   SetPgBase.obj
 0001:000cf03c       ?OnCtlColorStatic@CSetPgBase@@UEAA_JPEAUHWND__@@PEAUHDC__@@0G@Z 00000001400d003c f   SetPgBase.obj
 0001:000cf0fc       ?OnDpiChanged@CSetPgBase@@UEAAXPEBVCDpiForDialog@@@Z 00000001400d00fc f   SetPgBase.obj
 0001:000cf14c       ?OnSetCursor@CSetPgBase@@UEAA_JPEAUHWND__@@0GGG@Z 00000001400d014c f   SetPgBase.obj
 0001:000cf1a8       ?ProcessDpiChange@CSetPgBase@@UEAAXPEBVCDpiForDialog@@@Z 00000001400d01a8 f   SetPgBase.obj
 0001:000cf24c       ?pageOpProc@CSetPgBase@@SA_JPEAUHWND__@@I_K_J@Z 00000001400d024c f   SetPgBase.obj
 0001:000cfabc       ?setCtrlTitleByHotkey@CSetPgBase@@SAXPEAUHWND__@@GHPEB_W1@Z 00000001400d0abc f   SetPgBase.obj
 0001:000cfd2c       ?setHotkeyCheckbox@CSetPgBase@@SAXPEAUHWND__@@GHPEB_W1I@Z 00000001400d0d2c f   SetPgBase.obj
 0001:000cfed0       ??0CSetPgChildGui@@QEAA@XZ 00000001400d0ed0 f   SetPgChildGui.obj
 0001:000cfef4       ??_ECSetPgChildGui@@UEAAPEAXI@Z 00000001400d0ef4 f i SetPgChildGui.obj
 0001:000cfef4       ??_GCSetPgChildGui@@UEAAPEAXI@Z 00000001400d0ef4 f i SetPgChildGui.obj
 0001:000cff34       ?GetPageType@CSetPgChildGui@@UEAA?AW4TabHwndIndex@@XZ 00000001400d0f34 f i SetPgChildGui.obj
 0001:000cff3c       ?OnInitDialog@CSetPgChildGui@@UEAA_JPEAUHWND__@@_N@Z 00000001400d0f3c f   SetPgChildGui.obj
 0001:000cff88       ??0CSetPgColors@@QEAA@XZ   00000001400d0f88 f   SetPgColors.obj
 0001:000cffac       ??_GCSetPgColors@@UEAAPEAXI@Z 00000001400d0fac f i SetPgColors.obj
 0001:000cffac       ??_ECSetPgColors@@UEAAPEAXI@Z 00000001400d0fac f i SetPgColors.obj
 0001:000cffec       ?ColorSchemeSaveDelete@CSetPgColors@@QEAAXGE@Z 00000001400d0fec f   SetPgColors.obj
 0001:000d00f0       ?GetPageType@CSetPgColors@@UEAA?AW4TabHwndIndex@@XZ 00000001400d10f0 f i SetPgColors.obj
 0001:000d00f8       ?OnComboBox@CSetPgColors@@UEAA_JPEAUHWND__@@GG@Z 00000001400d10f8 f   SetPgColors.obj
 0001:000d03f0       ?OnEditChanged@CSetPgColors@@UEAA_JPEAUHWND__@@G@Z 00000001400d13f0 f   SetPgColors.obj
 0001:000d052c       ?OnInitDialog@CSetPgColors@@UEAA_JPEAUHWND__@@_N@Z 00000001400d152c f   SetPgColors.obj
 0001:000d0880       ??$swprintf_c@$0BIE@@@YAHAEAY0BIE@_WPEB_WZZ 00000001400d1880 f i SetPgComspec.obj
 0001:000d08ac       ??0CSetPgComspec@@QEAA@XZ  00000001400d18ac f   SetPgComspec.obj
 0001:000d08d0       ??_ECSetPgComspec@@UEAAPEAXI@Z 00000001400d18d0 f i SetPgComspec.obj
 0001:000d08d0       ??_GCSetPgComspec@@UEAAPEAXI@Z 00000001400d18d0 f i SetPgComspec.obj
 0001:000d0910       ?GetPageType@CSetPgComspec@@UEAA?AW4TabHwndIndex@@XZ 00000001400d1910 f i SetPgComspec.obj
 0001:000d0918       ?LoadAutorunValue@CSetPgComspec@@QEAAPEA_WPEAUHKEY__@@_N@Z 00000001400d1918 f   SetPgComspec.obj
 0001:000d0abc       ?OnEditChanged@CSetPgComspec@@UEAA_JPEAUHWND__@@G@Z 00000001400d1abc f   SetPgComspec.obj
 0001:000d0af0       ?OnInitDialog@CSetPgComspec@@UEAA_JPEAUHWND__@@_N@Z 00000001400d1af0 f   SetPgComspec.obj
 0001:000d0bec       ?RegisterCmdAutorun@CSetPgComspec@@QEAAX_N0@Z 00000001400d1bec f   SetPgComspec.obj
 0001:000d0e54       ?ReloadAutorun@CSetPgComspec@@QEAAXXZ 00000001400d1e54 f   SetPgComspec.obj
 0001:000d0f44       ??0CSetPgConfirm@@QEAA@XZ  00000001400d1f44 f   SetPgConfirm.obj
 0001:000d0f68       ??_ECSetPgConfirm@@UEAAPEAXI@Z 00000001400d1f68 f i SetPgConfirm.obj
 0001:000d0f68       ??_GCSetPgConfirm@@UEAAPEAXI@Z 00000001400d1f68 f i SetPgConfirm.obj
 0001:000d0fa8       ?GetPageType@CSetPgConfirm@@UEAA?AW4TabHwndIndex@@XZ 00000001400d1fa8 f i SetPgConfirm.obj
 0001:000d0fb0       ?OnInitDialog@CSetPgConfirm@@UEAA_JPEAUHWND__@@_N@Z 00000001400d1fb0 f   SetPgConfirm.obj
 0001:000d10ec       ??0CSetPgCursor@@QEAA@XZ   00000001400d20ec f   SetPgCursor.obj
 0001:000d1110       ??_GCSetPgCursor@@UEAAPEAXI@Z 00000001400d2110 f i SetPgCursor.obj
 0001:000d1110       ??_ECSetPgCursor@@UEAAPEAXI@Z 00000001400d2110 f i SetPgCursor.obj
 0001:000d1150       ?GetPageType@CSetPgCursor@@UEAA?AW4TabHwndIndex@@XZ 00000001400d2150 f i SetPgCursor.obj
 0001:000d1158       ?InitCursorCtrls@CSetPgCursor@@SAXPEAUHWND__@@PEBUAppSettings@@@Z 00000001400d2158 f   SetPgCursor.obj
 0001:000d130c       ?OnEditChanged@CSetPgCursor@@UEAA_JPEAUHWND__@@G@Z 00000001400d230c f   SetPgCursor.obj
 0001:000d1368       ?OnEditChangedCursor@CSetPgCursor@@SA_NPEAUHWND__@@GPEAUAppSettings@@@Z 00000001400d2368 f   SetPgCursor.obj
 0001:000d148c       ?OnInitDialog@CSetPgCursor@@UEAA_JPEAUHWND__@@_N@Z 00000001400d248c f   SetPgCursor.obj
 0001:000d14b0       ??0CSetPgDebug@@QEAA@XZ    00000001400d24b0 f   SetPgDebug.obj
 0001:000d14dc       ??_ECSetPgDebug@@UEAAPEAXI@Z 00000001400d24dc f i SetPgDebug.obj
 0001:000d14dc       ??_GCSetPgDebug@@UEAAPEAXI@Z 00000001400d24dc f i SetPgDebug.obj
 0001:000d151c       ?GetActivityLoggingType@CSetPgDebug@@SA?AW4GuiLoggingType@@XZ 00000001400d251c f   SetPgDebug.obj
 0001:000d1540       ?GetPageType@CSetPgDebug@@UEAA?AW4TabHwndIndex@@XZ 00000001400d2540 f i SetPgDebug.obj
 0001:000d1548       ?OnActivityLogNotify@CSetPgDebug@@QEAA_J_K_J@Z 00000001400d2548 f   SetPgDebug.obj
 0001:000d1758       ?OnInitDialog@CSetPgDebug@@UEAA_JPEAUHWND__@@_N@Z 00000001400d2758 f   SetPgDebug.obj
 0001:000d1894       ?OnSaveActivityLogFile@CSetPgDebug@@QEAAXXZ 00000001400d2894 f   SetPgDebug.obj
 0001:000d1ba0       ?SetLoggingType@CSetPgDebug@@QEAAXW4GuiLoggingType@@@Z 00000001400d2ba0 f   SetPgDebug.obj
 0001:000d23b4       ?debugLog@CSetPgDebug@@QEAAX_K_J@Z 00000001400d33b4 f   SetPgDebug.obj
 0001:000d2404       ?debugLogCommand@CSetPgDebug@@QEAAXPEAULogCommandsData@1@@Z 00000001400d3404 f   SetPgDebug.obj
 0001:000d2690       ?debugLogCommand@CSetPgDebug@@SAXPEAUCESERVER_REQ@@HKKPEB_W0@Z 00000001400d3690 f   SetPgDebug.obj
 0001:000d287c       ?debugLogInfo@CSetPgDebug@@QEAAXPEAUCESERVER_REQ_PEEKREADINFO@@@Z 00000001400d387c f   SetPgDebug.obj
 0001:000d3050       ?debugLogShell@CSetPgDebug@@QEAAXPEAUDebugLogShellActivity@1@@Z 00000001400d4050 f   SetPgDebug.obj
 0001:000d34cc       ?debugLogShell@CSetPgDebug@@SAXKPEAUCESERVER_REQ_ONCREATEPROCESS@@@Z 00000001400d44cc f   SetPgDebug.obj
 0001:000d3930       ?debugLogShellText@CSetPgDebug@@KAXAEAPEA_WPEB_W@Z 00000001400d4930 f   SetPgDebug.obj
 0001:000d3a58       ?debugLogString@CSetPgDebug@@QEAAXPEAULogRConString@1@@Z 00000001400d4a58 f   SetPgDebug.obj
 0001:000d3bec       ??0CSetPgDefTerm@@QEAA@XZ  00000001400d4bec f   SetPgDefTerm.obj
 0001:000d3c10       ??_ECSetPgDefTerm@@UEAAPEAXI@Z 00000001400d4c10 f i SetPgDefTerm.obj
 0001:000d3c10       ??_GCSetPgDefTerm@@UEAAPEAXI@Z 00000001400d4c10 f i SetPgDefTerm.obj
 0001:000d3c50       ?GetPageType@CSetPgDefTerm@@UEAA?AW4TabHwndIndex@@XZ 00000001400d4c50 f i SetPgDefTerm.obj
 0001:000d3c58       ?OnEditChanged@CSetPgDefTerm@@UEAA_JPEAUHWND__@@G@Z 00000001400d4c58 f   SetPgDefTerm.obj
 0001:000d3cf0       ?OnInitDialog@CSetPgDefTerm@@UEAA_JPEAUHWND__@@_N@Z 00000001400d4cf0 f   SetPgDefTerm.obj
 0001:000d3eb0       ??0CSetPgEnvironment@@QEAA@XZ 00000001400d4eb0 f   SetPgEnvironment.obj
 0001:000d3ed4       ??_GCSetPgEnvironment@@UEAAPEAXI@Z 00000001400d4ed4 f i SetPgEnvironment.obj
 0001:000d3ed4       ??_ECSetPgEnvironment@@UEAAPEAXI@Z 00000001400d4ed4 f i SetPgEnvironment.obj
 0001:000d3f14       ?GetPageType@CSetPgEnvironment@@UEAA?AW4TabHwndIndex@@XZ 00000001400d4f14 f i SetPgEnvironment.obj
 0001:000d3f1c       ?OnEditChanged@CSetPgEnvironment@@UEAA_JPEAUHWND__@@G@Z 00000001400d4f1c f   SetPgEnvironment.obj
 0001:000d3f78       ?OnInitDialog@CSetPgEnvironment@@UEAA_JPEAUHWND__@@_N@Z 00000001400d4f78 f   SetPgEnvironment.obj
 0001:000d3ff0       ??0CSetPgFar@@QEAA@XZ      00000001400d4ff0 f   SetPgFar.obj
 0001:000d4014       ??_ECSetPgFar@@UEAAPEAXI@Z 00000001400d5014 f i SetPgFar.obj
 0001:000d4014       ??_GCSetPgFar@@UEAAPEAXI@Z 00000001400d5014 f i SetPgFar.obj
 0001:000d4054       ?GetPageType@CSetPgFar@@UEAA?AW4TabHwndIndex@@XZ 00000001400d5054 f i SetPgFar.obj
 0001:000d405c       ?OnComboBox@CSetPgFar@@UEAA_JPEAUHWND__@@GG@Z 00000001400d505c f   SetPgFar.obj
 0001:000d40b4       ?OnEditChanged@CSetPgFar@@UEAA_JPEAUHWND__@@G@Z 00000001400d50b4 f   SetPgFar.obj
 0001:000d41dc       ?OnInitDialog@CSetPgFar@@UEAA_JPEAUHWND__@@_N@Z 00000001400d51dc f   SetPgFar.obj
 0001:000d44c0       ??0CSetPgFarMacro@@QEAA@XZ 00000001400d54c0 f   SetPgFarMacro.obj
 0001:000d44e4       ??_GCSetPgFarMacro@@UEAAPEAXI@Z 00000001400d54e4 f i SetPgFarMacro.obj
 0001:000d44e4       ??_ECSetPgFarMacro@@UEAAPEAXI@Z 00000001400d54e4 f i SetPgFarMacro.obj
 0001:000d4524       ?GetPageType@CSetPgFarMacro@@UEAA?AW4TabHwndIndex@@XZ 00000001400d5524 f i SetPgFarMacro.obj
 0001:000d452c       ?OnComboBox@CSetPgFarMacro@@UEAA_JPEAUHWND__@@GG@Z 00000001400d552c f   SetPgFarMacro.obj
 0001:000d4604       ?OnInitDialog@CSetPgFarMacro@@UEAA_JPEAUHWND__@@_N@Z 00000001400d5604 f   SetPgFarMacro.obj
 0001:000d47d8       ??0CSetPgFeatures@@QEAA@XZ 00000001400d57d8 f   SetPgFeatures.obj
 0001:000d47fc       ??_ECSetPgFeatures@@UEAAPEAXI@Z 00000001400d57fc f i SetPgFeatures.obj
 0001:000d47fc       ??_GCSetPgFeatures@@UEAAPEAXI@Z 00000001400d57fc f i SetPgFeatures.obj
 0001:000d483c       ?GetPageType@CSetPgFeatures@@UEAA?AW4TabHwndIndex@@XZ 00000001400d583c f i SetPgFeatures.obj
 0001:000d4844       ?OnEditChanged@CSetPgFeatures@@UEAA_JPEAUHWND__@@G@Z 00000001400d5844 f   SetPgFeatures.obj
 0001:000d48a8       ?OnInitDialog@CSetPgFeatures@@UEAA_JPEAUHWND__@@_N@Z 00000001400d58a8 f   SetPgFeatures.obj
 0001:000d4b84       ?UpdateLogLocation@CSetPgFeatures@@IEAAXXZ 00000001400d5b84 f   SetPgFeatures.obj
 0001:000d4c34       ??0CSetPgFonts@@QEAA@XZ    00000001400d5c34 f   SetPgFonts.obj
 0001:000d4c58       ??_GCSetPgFonts@@UEAAPEAXI@Z 00000001400d5c58 f i SetPgFonts.obj
 0001:000d4c58       ??_ECSetPgFonts@@UEAAPEAXI@Z 00000001400d5c58 f i SetPgFonts.obj
 0001:000d4c98       ?CopyFontsTo@CSetPgFonts@@QEAAXPEAUHWND__@@HZZ 00000001400d5c98 f   SetPgFonts.obj
 0001:000d4ea8       ?OnComboBox@CSetPgFonts@@UEAA_JPEAUHWND__@@GG@Z 00000001400d5ea8 f   SetPgFonts.obj
 0001:000d507c       ?OnInitDialog@CSetPgFonts@@UEAA_JPEAUHWND__@@_N@Z 00000001400d607c f   SetPgFonts.obj
 0001:000d568c       ??0CSetPgGeneral@@QEAA@XZ  00000001400d668c f   SetPgGeneral.obj
 0001:000d56c0       ??_GCSetPgGeneral@@UEAAPEAXI@Z 00000001400d66c0 f i SetPgGeneral.obj
 0001:000d56c0       ??_ECSetPgGeneral@@UEAAPEAXI@Z 00000001400d66c0 f i SetPgGeneral.obj
 0001:000d5710       ?ColorBoxProc@CSetPgGeneral@@KA_JPEAUHWND__@@I_K_J@Z 00000001400d6710 f   SetPgGeneral.obj
 0001:000d581c       ?OnComboBox@CSetPgGeneral@@UEAA_JPEAUHWND__@@GG@Z 00000001400d681c f   SetPgGeneral.obj
 0001:000d59ec       ?OnInitDialog@CSetPgGeneral@@UEAA_JPEAUHWND__@@_N@Z 00000001400d69ec f   SetPgGeneral.obj
 0001:000d5fbc       ??0CSetPgHilight@@QEAA@XZ  00000001400d6fbc f   SetPgHilight.obj
 0001:000d5fe0       ??_ECSetPgHilight@@UEAAPEAXI@Z 00000001400d6fe0 f i SetPgHilight.obj
 0001:000d5fe0       ??_GCSetPgHilight@@UEAAPEAXI@Z 00000001400d6fe0 f i SetPgHilight.obj
 0001:000d6020       ?GetPageType@CSetPgHilight@@UEAA?AW4TabHwndIndex@@XZ 00000001400d7020 f i SetPgHilight.obj
 0001:000d6028       ?OnComboBox@CSetPgHilight@@UEAA_JPEAUHWND__@@GG@Z 00000001400d7028 f   SetPgHilight.obj
 0001:000d60b8       ?OnInitDialog@CSetPgHilight@@UEAA_JPEAUHWND__@@_N@Z 00000001400d70b8 f   SetPgHilight.obj
 0001:000d6210       ??0CSetPgInfo@@QEAA@XZ     00000001400d7210 f   SetPgInfo.obj
 0001:000d6234       ??_ECSetPgInfo@@UEAAPEAXI@Z 00000001400d7234 f i SetPgInfo.obj
 0001:000d6234       ??_GCSetPgInfo@@UEAAPEAXI@Z 00000001400d7234 f i SetPgInfo.obj
 0001:000d6274       ?FillConsoleMode@CSetPgInfo@@QEAAXPEAUHWND__@@PEAVCRealConsole@@@Z 00000001400d7274 f   SetPgInfo.obj
 0001:000d63b4       ?FillCursorInfo@CSetPgInfo@@QEAAXPEAUHWND__@@PEBUConsoleInfoArg@@@Z 00000001400d73b4 f   SetPgInfo.obj
 0001:000d6440       ?FillFontInfo@CSetPgInfo@@QEAAXPEAUHWND__@@@Z 00000001400d7440 f   SetPgInfo.obj
 0001:000d6580       ?GetPageType@CSetPgInfo@@UEAA?AW4TabHwndIndex@@XZ 00000001400d7580 f i SetPgInfo.obj
 0001:000d6588       ?OnInitDialog@CSetPgInfo@@UEAA_JPEAUHWND__@@_N@Z 00000001400d7588 f   SetPgInfo.obj
 0001:000d6684       ?OnPostLocalize@CSetPgInfo@@UEAAXPEAUHWND__@@@Z 00000001400d7684 f   SetPgInfo.obj
 0001:000d6710       ??$SafeDelete@USwitch@@@@YAXAEAPEAUSwitch@@@Z 00000001400d7710 f i SetPgIntegr.obj
 0001:000d6764       ??0CSetPgIntegr@@QEAA@XZ   00000001400d7764 f   SetPgIntegr.obj
 0001:000d6788       ??0Switch@@QEAA@$$QEAPEA_W0@Z 00000001400d7788 f i SetPgIntegr.obj
 0001:000d67f4       ??0SwitchParser@@QEAA@XZ   00000001400d77f4 f i SetPgIntegr.obj
 0001:000d6870       ??1SwitchParser@@QEAA@XZ   00000001400d7870 f i SetPgIntegr.obj
 0001:000d68e8       ??_ECSetPgIntegr@@UEAAPEAXI@Z 00000001400d78e8 f i SetPgIntegr.obj
 0001:000d68e8       ??_GCSetPgIntegr@@UEAAPEAXI@Z 00000001400d78e8 f i SetPgIntegr.obj
 0001:000d6928       ?CreateCommand@SwitchParser@@QEAAPEB_WAEAUCEStr@@@Z 00000001400d7928 f i SetPgIntegr.obj
 0001:000d6af0       ?FillHereValues@CSetPgIntegr@@IEAAXG@Z 00000001400d7af0 f   SetPgIntegr.obj
 0001:000d6e2c       ?GetNextPair@SwitchParser@@QEAAPEAUSwitch@@AEAPEB_W@Z 00000001400d7e2c f i SetPgIntegr.obj
 0001:000d6ebc       ?GetNextSwitch@SwitchParser@@QEAAPEAUSwitch@@AEAPEB_WAEAUCEStr@@@Z 00000001400d7ebc f i SetPgIntegr.obj
 0001:000d6f90       ?GetPageType@CSetPgIntegr@@UEAA?AW4TabHwndIndex@@XZ 00000001400d7f90 f i SetPgIntegr.obj
 0001:000d6f98       ?IsIgnored@SwitchParser@@QEAA_NPEAUSwitch@@AEAV?$MArray@PEAUSwitch@@@@@Z 00000001400d7f98 f i SetPgIntegr.obj
 0001:000d701c       ?LoadCommand@SwitchParser@@QEAAXPEB_W@Z 00000001400d801c f i SetPgIntegr.obj
 0001:000d73d8       ?OnInitDialog@CSetPgIntegr@@UEAA_JPEAUHWND__@@_N@Z 00000001400d83d8 f   SetPgIntegr.obj
 0001:000d7604       ?PageDlgProc@CSetPgIntegr@@UEAA_JPEAUHWND__@@I_K_J@Z 00000001400d8604 f   SetPgIntegr.obj
 0001:000d780c       ?ParseStdSwitches@SwitchParser@@QEAAXXZ 00000001400d880c f i SetPgIntegr.obj
 0001:000d7918       ?RegisterShell@CSetPgIntegr@@SAXPEB_W0000@Z 00000001400d8918 f   SetPgIntegr.obj
 0001:000d7dfc       ?ReleaseVectors@SwitchParser@@QEAAXXZ 00000001400d8dfc f i SetPgIntegr.obj
 0001:000d7e74       ?ReloadHereList@CSetPgIntegr@@IEAA_NPEAH0@Z 00000001400d8e74 f   SetPgIntegr.obj
 0001:000d82b4       ?ShellIntegration@CSetPgIntegr@@QEAAXPEAUHWND__@@W4ShellIntegrType@1@_N2@Z 00000001400d92b4 f   SetPgIntegr.obj
 0001:000d85a8       ?UnregisterShell@CSetPgIntegr@@SAXPEB_W@Z 00000001400d95a8 f   SetPgIntegr.obj
 0001:000d8634       ?UnregisterShellInvalids@CSetPgIntegr@@SAXXZ 00000001400d9634 f   SetPgIntegr.obj
 0001:000d891c       ??0CSetPgKeyboard@@QEAA@XZ 00000001400d991c f   SetPgKeyboard.obj
 0001:000d8940       ??_GCSetPgKeyboard@@UEAAPEAXI@Z 00000001400d9940 f i SetPgKeyboard.obj
 0001:000d8940       ??_ECSetPgKeyboard@@UEAAPEAXI@Z 00000001400d9940 f i SetPgKeyboard.obj
 0001:000d8980       ?GetPageType@CSetPgKeyboard@@UEAA?AW4TabHwndIndex@@XZ 00000001400d9980 f i SetPgKeyboard.obj
 0001:000d8988       ?OnInitDialog@CSetPgKeyboard@@UEAA_JPEAUHWND__@@_N@Z 00000001400d9988 f   SetPgKeyboard.obj
 0001:000d8b58       ??0CSetPgKeys@@QEAA@XZ     00000001400d9b58 f   SetPgKeys.obj
 0001:000d8ba0       ??1CSetPgKeys@@UEAA@XZ     00000001400d9ba0 f   SetPgKeys.obj
 0001:000d8bcc       ??_ECSetPgKeys@@UEAAPEAXI@Z 00000001400d9bcc f i SetPgKeys.obj
 0001:000d8bcc       ??_GCSetPgKeys@@UEAAPEAXI@Z 00000001400d9bcc f i SetPgKeys.obj
 0001:000d8c00       ?FillHotKeysList@CSetPgKeys@@QEAAXPEAUHWND__@@_N@Z 00000001400d9c00 f   SetPgKeys.obj
 0001:000d9144       ?GetPageType@CSetPgKeys@@UEAA?AW4TabHwndIndex@@XZ 00000001400da144 f i SetPgKeys.obj
 0001:000d914c       ?HotkeysCompare@CSetPgKeys@@SAH_J00@Z 00000001400da14c f   SetPgKeys.obj
 0001:000d92dc       ?OnButtonClicked@CSetPgKeys@@UEAA_JPEAUHWND__@@0G@Z 00000001400da2dc f   SetPgKeys.obj
 0001:000d9304       ?OnComboBox@CSetPgKeys@@UEAA_JPEAUHWND__@@GG@Z 00000001400da304 f   SetPgKeys.obj
 0001:000d9600       ?OnEditChanged@CSetPgKeys@@UEAA_JPEAUHWND__@@G@Z 00000001400da600 f   SetPgKeys.obj
 0001:000d9728       ?OnHotkeysNotify@CSetPgKeys@@QEAA_JPEAUHWND__@@_K_J@Z 00000001400da728 f   SetPgKeys.obj
 0001:000d9c30       ?OnInitDialog@CSetPgKeys@@UEAA_JPEAUHWND__@@_N@Z 00000001400dac30 f   SetPgKeys.obj
 0001:000d9f6c       ?PageDlgProc@CSetPgKeys@@UEAA_JPEAUHWND__@@I_K_J@Z 00000001400daf6c f   SetPgKeys.obj
 0001:000da064       ?QueryDialogCancel@CSetPgKeys@@UEAA_NXZ 00000001400db064 f   SetPgKeys.obj
 0001:000da0d4       ?ReInitHotkeys@CSetPgKeys@@SAXXZ 00000001400db0d4 f   SetPgKeys.obj
 0001:000da130       ?RefilterHotkeys@CSetPgKeys@@QEAAX_N@Z 00000001400db130 f   SetPgKeys.obj
 0001:000da160       ?SetHotkeyVkMod@CSetPgKeys@@QEAAXPEAUConEmuHotKey@@K@Z 00000001400db160 f   SetPgKeys.obj
 0001:000da190       ??0CSetPgMarkCopy@@QEAA@XZ 00000001400db190 f   SetPgMarkCopy.obj
 0001:000da1b8       ??_ECSetPgMarkCopy@@UEAAPEAXI@Z 00000001400db1b8 f i SetPgMarkCopy.obj
 0001:000da1b8       ??_GCSetPgMarkCopy@@UEAAPEAXI@Z 00000001400db1b8 f i SetPgMarkCopy.obj
 0001:000da1f8       ?GetPageType@CSetPgMarkCopy@@UEAA?AW4TabHwndIndex@@XZ 00000001400db1f8 f i SetPgMarkCopy.obj
 0001:000da200       ?MarkCopyPreviewProc@CSetPgMarkCopy@@KA_JPEAUHWND__@@I_K_J@Z 00000001400db200 f   SetPgMarkCopy.obj
 0001:000da500       ?OnComboBox@CSetPgMarkCopy@@UEAA_JPEAUHWND__@@GG@Z 00000001400db500 f   SetPgMarkCopy.obj
 0001:000da6c0       ?OnEditChanged@CSetPgMarkCopy@@UEAA_JPEAUHWND__@@G@Z 00000001400db6c0 f   SetPgMarkCopy.obj
 0001:000da704       ?OnInitDialog@CSetPgMarkCopy@@UEAA_JPEAUHWND__@@_N@Z 00000001400db704 f   SetPgMarkCopy.obj
 0001:000dab34       ??0CSetPgMouse@@QEAA@XZ    00000001400dbb34 f   SetPgMouse.obj
 0001:000dab58       ??_GCSetPgMouse@@UEAAPEAXI@Z 00000001400dbb58 f i SetPgMouse.obj
 0001:000dab58       ??_ECSetPgMouse@@UEAAPEAXI@Z 00000001400dbb58 f i SetPgMouse.obj
 0001:000dab98       ?GetPageType@CSetPgMouse@@UEAA?AW4TabHwndIndex@@XZ 00000001400dbb98 f i SetPgMouse.obj
 0001:000daba0       ?OnComboBox@CSetPgMouse@@UEAA_JPEAUHWND__@@GG@Z 00000001400dbba0 f   SetPgMouse.obj
 0001:000dac80       ?OnInitDialog@CSetPgMouse@@UEAA_JPEAUHWND__@@_N@Z 00000001400dbc80 f   SetPgMouse.obj
 0001:000dae24       ?OnPostLocalize@CSetPgMouse@@UEAAXPEAUHWND__@@@Z 00000001400dbe24 f   SetPgMouse.obj
 0001:000dae54       ??0CSetPgPaste@@QEAA@XZ    00000001400dbe54 f   SetPgPaste.obj
 0001:000dae78       ??_ECSetPgPaste@@UEAAPEAXI@Z 00000001400dbe78 f i SetPgPaste.obj
 0001:000dae78       ??_GCSetPgPaste@@UEAAPEAXI@Z 00000001400dbe78 f i SetPgPaste.obj
 0001:000daeb8       ?GetPageType@CSetPgPaste@@UEAA?AW4TabHwndIndex@@XZ 00000001400dbeb8 f i SetPgPaste.obj
 0001:000daec0       ?OnBtn_AutoTrimSingleLine@CSetPgPaste@@SAXPEAUHWND__@@GE@Z 00000001400dbec0 f   SetPgPaste.obj
 0001:000daed4       ?OnBtn_ClipConfirmEnter@CSetPgPaste@@SAXPEAUHWND__@@GE@Z 00000001400dbed4 f   SetPgPaste.obj
 0001:000daee8       ?OnBtn_ClipConfirmLimit@CSetPgPaste@@SAXPEAUHWND__@@GE@Z 00000001400dbee8 f   SetPgPaste.obj
 0001:000daf68       ?OnBtn_ClipCtrlV@CSetPgPaste@@SAXPEAUHWND__@@GE@Z 00000001400dbf68 f   SetPgPaste.obj
 0001:000dafc0       ?OnBtn_ClipPosixCvt@CSetPgPaste@@SAXPEAUHWND__@@GE@Z 00000001400dbfc0 f   SetPgPaste.obj
 0001:000db000       ?OnBtn_ClipShiftIns@CSetPgPaste@@SAXPEAUHWND__@@GE@Z 00000001400dc000 f   SetPgPaste.obj
 0001:000db058       ?OnEditChanged@CSetPgPaste@@UEAA_JPEAUHWND__@@G@Z 00000001400dc058 f   SetPgPaste.obj
 0001:000db114       ?OnInitDialog@CSetPgPaste@@UEAA_JPEAUHWND__@@_N@Z 00000001400dc114 f   SetPgPaste.obj
 0001:000db26c       ?OnPostLocalize@CSetPgPaste@@UEAAXPEAUHWND__@@@Z 00000001400dc26c f   SetPgPaste.obj
 0001:000db2cc       ??0CSetPgQuake@@QEAA@XZ    00000001400dc2cc f   SetPgQuake.obj
 0001:000db2f0       ??_GCSetPgQuake@@UEAAPEAXI@Z 00000001400dc2f0 f i SetPgQuake.obj
 0001:000db2f0       ??_ECSetPgQuake@@UEAAPEAXI@Z 00000001400dc2f0 f i SetPgQuake.obj
 0001:000db330       ?GetPageType@CSetPgQuake@@UEAA?AW4TabHwndIndex@@XZ 00000001400dc330 f i SetPgQuake.obj
 0001:000db338       ?OnEditChanged@CSetPgQuake@@UEAA_JPEAUHWND__@@G@Z 00000001400dc338 f   SetPgQuake.obj
 0001:000db474       ?OnInitDialog@CSetPgQuake@@UEAA_JPEAUHWND__@@_N@Z 00000001400dc474 f   SetPgQuake.obj
 0001:000db5d0       ??0CSetPgSizePos@@QEAA@XZ  00000001400dc5d0 f   SetPgSizePos.obj
 0001:000db5f4       ??_ECSetPgSizePos@@UEAAPEAXI@Z 00000001400dc5f4 f i SetPgSizePos.obj
 0001:000db5f4       ??_GCSetPgSizePos@@UEAAPEAXI@Z 00000001400dc5f4 f i SetPgSizePos.obj
 0001:000db634       ?EnablePosSizeControls@CSetPgSizePos@@QEAAXPEAUHWND__@@@Z 00000001400dc634 f   SetPgSizePos.obj
 0001:000db700       ?FillSizeControls@CSetPgSizePos@@QEAAXPEAUHWND__@@@Z 00000001400dc700 f   SetPgSizePos.obj
 0001:000db840       ?GetPageType@CSetPgSizePos@@UEAA?AW4TabHwndIndex@@XZ 00000001400dc840 f i SetPgSizePos.obj
 0001:000db848       ?OnComboBox@CSetPgSizePos@@UEAA_JPEAUHWND__@@GG@Z 00000001400dc848 f   SetPgSizePos.obj
 0001:000db8b8       ?OnEditChanged@CSetPgSizePos@@UEAA_JPEAUHWND__@@G@Z 00000001400dc8b8 f   SetPgSizePos.obj
 0001:000dbb44       ?OnInitDialog@CSetPgSizePos@@UEAA_JPEAUHWND__@@_N@Z 00000001400dcb44 f   SetPgSizePos.obj
 0001:000dbfa0       ?OnPostLocalize@CSetPgSizePos@@UEAAXPEAUHWND__@@@Z 00000001400dcfa0 f   SetPgSizePos.obj
 0001:000dc054       ??0CSetPgStartup@@QEAA@XZ  00000001400dd054 f   SetPgStartup.obj
 0001:000dc078       ??_GCSetPgStartup@@UEAAPEAXI@Z 00000001400dd078 f i SetPgStartup.obj
 0001:000dc078       ??_ECSetPgStartup@@UEAAPEAXI@Z 00000001400dd078 f i SetPgStartup.obj
 0001:000dc0b8       ?GetPageType@CSetPgStartup@@UEAA?AW4TabHwndIndex@@XZ 00000001400dd0b8 f i SetPgStartup.obj
 0001:000dc0c0       ?OnInitDialog@CSetPgStartup@@UEAA_JPEAUHWND__@@_N@Z 00000001400dd0c0 f   SetPgStartup.obj
 0001:000dc0e4       ?PageDlgProc@CSetPgStartup@@UEAA_JPEAUHWND__@@I_K_J@Z 00000001400dd0e4 f   SetPgStartup.obj
 0001:000dc924       ??0CSetPgStatus@@QEAA@XZ   00000001400dd924 f   SetPgStatus.obj
 0001:000dc948       ??_ECSetPgStatus@@UEAAPEAXI@Z 00000001400dd948 f i SetPgStatus.obj
 0001:000dc948       ??_GCSetPgStatus@@UEAAPEAXI@Z 00000001400dd948 f i SetPgStatus.obj
 0001:000dc988       ?GetPageType@CSetPgStatus@@UEAA?AW4TabHwndIndex@@XZ 00000001400dd988 f i SetPgStatus.obj
 0001:000dc990       ?OnComboBox@CSetPgStatus@@UEAA_JPEAUHWND__@@GG@Z 00000001400dd990 f   SetPgStatus.obj
 0001:000dcb08       ?OnEditChanged@CSetPgStatus@@UEAA_JPEAUHWND__@@G@Z 00000001400ddb08 f   SetPgStatus.obj
 0001:000dcbac       ?OnInitDialog@CSetPgStatus@@UEAA_JPEAUHWND__@@_N@Z 00000001400ddbac f   SetPgStatus.obj
 0001:000dcd90       ?UpdateStatusItems@CSetPgStatus@@QEAAXPEAUHWND__@@@Z 00000001400ddd90 f   SetPgStatus.obj
 0001:000dcf2c       ??0CSetPgTabs@@QEAA@XZ     00000001400ddf2c f   SetPgTabs.obj
 0001:000dcf50       ??_ECSetPgTabs@@UEAAPEAXI@Z 00000001400ddf50 f i SetPgTabs.obj
 0001:000dcf50       ??_GCSetPgTabs@@UEAAPEAXI@Z 00000001400ddf50 f i SetPgTabs.obj
 0001:000dcf90       ?GetPageType@CSetPgTabs@@UEAA?AW4TabHwndIndex@@XZ 00000001400ddf90 f i SetPgTabs.obj
 0001:000dcf98       ?OnComboBox@CSetPgTabs@@UEAA_JPEAUHWND__@@GG@Z 00000001400ddf98 f   SetPgTabs.obj
 0001:000dd1c8       ?OnEditChanged@CSetPgTabs@@UEAA_JPEAUHWND__@@G@Z 00000001400de1c8 f   SetPgTabs.obj
 0001:000dd408       ?OnInitDialog@CSetPgTabs@@UEAA_JPEAUHWND__@@_N@Z 00000001400de408 f   SetPgTabs.obj
 0001:000dd770       ??0CSetPgTaskbar@@QEAA@XZ  00000001400de770 f   SetPgTaskbar.obj
 0001:000dd794       ??_ECSetPgTaskbar@@UEAAPEAXI@Z 00000001400de794 f i SetPgTaskbar.obj
 0001:000dd794       ??_GCSetPgTaskbar@@UEAAPEAXI@Z 00000001400de794 f i SetPgTaskbar.obj
 0001:000dd7d4       ?GetPageType@CSetPgTaskbar@@UEAA?AW4TabHwndIndex@@XZ 00000001400de7d4 f i SetPgTaskbar.obj
 0001:000dd7dc       ?OnInitDialog@CSetPgTaskbar@@UEAA_JPEAUHWND__@@_N@Z 00000001400de7dc f   SetPgTaskbar.obj
 0001:000ddb40       ??0CSetPgTasks@@QEAA@XZ    00000001400deb40 f   SetPgTasks.obj
 0001:000ddb68       ??_GCSetPgTasks@@UEAAPEAXI@Z 00000001400deb68 f i SetPgTasks.obj
 0001:000ddb68       ??_ECSetPgTasks@@UEAAPEAXI@Z 00000001400deb68 f i SetPgTasks.obj
 0001:000ddba8       ?GetPageType@CSetPgTasks@@UEAA?AW4TabHwndIndex@@XZ 00000001400deba8 f i SetPgTasks.obj
 0001:000ddbb0       ?OnComboBox@CSetPgTasks@@UEAA_JPEAUHWND__@@GG@Z 00000001400debb0 f   SetPgTasks.obj
 0001:000dde30       ?OnEditChanged@CSetPgTasks@@UEAA_JPEAUHWND__@@G@Z 00000001400dee30 f   SetPgTasks.obj
 0001:000de014       ?OnInitDialog@CSetPgTasks@@UEAA_JPEAUHWND__@@_N@Z 00000001400df014 f   SetPgTasks.obj
 0001:000de290       ?SelectNextItem@CSetPgTasks@@UEAA_N_N0@Z 00000001400df290 f   SetPgTasks.obj
 0001:000de330       ??0CSetPgTransparent@@QEAA@XZ 00000001400df330 f   SetPgTransparent.obj
 0001:000de354       ??_ECSetPgTransparent@@UEAAPEAXI@Z 00000001400df354 f i SetPgTransparent.obj
 0001:000de354       ??_GCSetPgTransparent@@UEAAPEAXI@Z 00000001400df354 f i SetPgTransparent.obj
 0001:000de394       ?GetPageType@CSetPgTransparent@@UEAA?AW4TabHwndIndex@@XZ 00000001400df394 f i SetPgTransparent.obj
 0001:000de39c       ?OnInitDialog@CSetPgTransparent@@UEAA_JPEAUHWND__@@_N@Z 00000001400df39c f   SetPgTransparent.obj
 0001:000de57c       ??0CSetPgUpdate@@QEAA@XZ   00000001400df57c f   SetPgUpdate.obj
 0001:000de5a0       ??_ECSetPgUpdate@@UEAAPEAXI@Z 00000001400df5a0 f i SetPgUpdate.obj
 0001:000de5a0       ??_GCSetPgUpdate@@UEAAPEAXI@Z 00000001400df5a0 f i SetPgUpdate.obj
 0001:000de5e0       ?GetPageType@CSetPgUpdate@@UEAA?AW4TabHwndIndex@@XZ 00000001400df5e0 f i SetPgUpdate.obj
 0001:000de5e8       ?OnEditChanged@CSetPgUpdate@@UEAA_JPEAUHWND__@@G@Z 00000001400df5e8 f   SetPgUpdate.obj
 0001:000de6ec       ?OnInitDialog@CSetPgUpdate@@UEAA_JPEAUHWND__@@_N@Z 00000001400df6ec f   SetPgUpdate.obj
 0001:000de9c0       ??0CSetPgViews@@QEAA@XZ    00000001400df9c0 f   SetPgViews.obj
 0001:000de9e4       ??_GCSetPgViews@@UEAAPEAXI@Z 00000001400df9e4 f i SetPgViews.obj
 0001:000de9e4       ??_ECSetPgViews@@UEAAPEAXI@Z 00000001400df9e4 f i SetPgViews.obj
 0001:000dea24       ?GetPageType@CSetPgViews@@UEAA?AW4TabHwndIndex@@XZ 00000001400dfa24 f i SetPgViews.obj
 0001:000dea2c       ?OnComboBox@CSetPgViews@@UEAA_JPEAUHWND__@@GG@Z 00000001400dfa2c f   SetPgViews.obj
 0001:000decb0       ?OnEditChanged@CSetPgViews@@UEAA_JPEAUHWND__@@G@Z 00000001400dfcb0 f   SetPgViews.obj
 0001:000deed4       ?OnInitDialog@CSetPgViews@@UEAA_JPEAUHWND__@@_N@Z 00000001400dfed4 f   SetPgViews.obj
 0001:000df454       ??0SizeInfo@@QEAA@AEBV0@@Z 00000001400e0454 f   SizeInfo.obj
 0001:000df50c       ??0SizeInfo@@QEAA@PEAVCConEmuMain@@@Z 00000001400e050c f   SizeInfo.obj
 0001:000df56c       ??1SizeInfo@@UEAA@XZ       00000001400e056c f   SizeInfo.obj
 0001:000df580       ??_GSizeInfo@@UEAAPEAXI@Z  00000001400e0580 f i SizeInfo.obj
 0001:000df580       ??_ESizeInfo@@UEAAPEAXI@Z  00000001400e0580 f i SizeInfo.obj
 0001:000df5c4       ?ClientRect@SizeInfo@@QEAA?AUtagRECT@@XZ 00000001400e05c4 f   SizeInfo.obj
 0001:000df5f4       ?CreateSelfFrameRgn@SizeInfo@@QEAAPEAUHRGN__@@XZ 00000001400e05f4 f   SizeInfo.obj
 0001:000df6cc       ?DoCalculate@SizeInfo@@IEAAXXZ 00000001400e06cc f   SizeInfo.obj
 0001:000dfba0       ?FrameMargins@SizeInfo@@QEAA?AUtagRECT@@XZ 00000001400e0ba0 f   SizeInfo.obj
 0001:000dfbd0       ?GetDefaultTabbarHeight@SizeInfo@@QEBAHXZ 00000001400e0bd0 f   SizeInfo.obj
 0001:000dfc74       ?GetRectState@SizeInfo@@QEBAAEBUWindowRectangles@1@XZ 00000001400e0c74 f   SizeInfo.obj
 0001:000dfc7c       ?IsRectMinimized@SizeInfo@@SA_NAEBUtagRECT@@@Z 00000001400e0c7c f   SizeInfo.obj
 0001:000dfca4       ?IsRectMinimized@SizeInfo@@SA_NHH@Z 00000001400e0ca4 f   SizeInfo.obj
 0001:000dfcb8       ?LogRequest@SizeInfo@@IEAAXAEBUtagRECT@@PEB_W@Z 00000001400e0cb8 f   SizeInfo.obj
 0001:000dfda0       ?LogRequest@SizeInfo@@IEAAXHPEB_W@Z 00000001400e0da0 f   SizeInfo.obj
 0001:000dfe14       ?LogRequest@SizeInfo@@IEAAXPEB_W0@Z 00000001400e0e14 f   SizeInfo.obj
 0001:000dfec4       ?RealClientRect@SizeInfo@@QEAA?AUtagRECT@@XZ 00000001400e0ec4 f   SizeInfo.obj
 0001:000dfef4       ?RebarRect@SizeInfo@@QEAA?AUtagRECT@@XZ 00000001400e0ef4 f   SizeInfo.obj
 0001:000dff24       ?RequestDpi@SizeInfo@@QEAAXAEBUDpiValue@@@Z 00000001400e0f24 f   SizeInfo.obj
 0001:000dff8c       ?RequestPos@SizeInfo@@QEAAXHH@Z 00000001400e0f8c f   SizeInfo.obj
 0001:000e0020       ?RequestRecalc@SizeInfo@@QEAAXXZ 00000001400e1020 f   SizeInfo.obj
 0001:000e0028       ?RequestRect@SizeInfo@@QEAAXAEBUtagRECT@@@Z 00000001400e1028 f   SizeInfo.obj
 0001:000e0034       ?RequestRectInt@SizeInfo@@IEAAXAEBUtagRECT@@PEB_W@Z 00000001400e1034 f   SizeInfo.obj
 0001:000e029c       ?RequestSize@SizeInfo@@QEAAXHH@Z 00000001400e129c f   SizeInfo.obj
 0001:000e02f8       ?StatusRect@SizeInfo@@QEAA?AUtagRECT@@XZ 00000001400e12f8 f   SizeInfo.obj
 0001:000e0328       ?WindowRect@SizeInfo@@QEAA?AUtagRECT@@XZ 00000001400e1328 f   SizeInfo.obj
 0001:000e0354       ?WorkspaceRect@SizeInfo@@QEAA?AUtagRECT@@XZ 00000001400e1354 f   SizeInfo.obj
 0001:000e0384       ?isCalculated@SizeInfo@@QEBA_NXZ 00000001400e1384 f   SizeInfo.obj
 0001:000e0388       ?Transparent_IsMenuChecked@CStatus@@SAHHPEAH@Z 00000001400e1388 f   Status.obj
 0001:000e044c       ?Zoom_IsMenuChecked@CStatus@@SAHHPEAH@Z 00000001400e144c f   Status.obj
 0001:000e049c       ?TermMode_IsMenuChecked@CStatus@@SAHHPEAH@Z 00000001400e149c f   Status.obj
 0001:000e0538       ??0CStatus@@QEAA@PEAVCConEmuMain@@@Z 00000001400e1538 f   Status.obj
 0001:000e07d8       ??1CStatus@@UEAA@XZ        00000001400e17d8 f   Status.obj
 0001:000e0824       ??_ECStatus@@UEAAPEAXI@Z   00000001400e1824 f i Status.obj
 0001:000e0824       ??_GCStatus@@UEAAPEAXI@Z   00000001400e1824 f i Status.obj
 0001:000e0858       ?CreateStatusMenu@CStatus@@IEAAPEAUHMENU__@@PEAUStatusMenuOptions@1@_K@Z 00000001400e1858 f   Status.obj
 0001:000e096c       ?GetAllStatusCols@CStatus@@SA_KPEAPEAUStatusColInfo@@@Z 00000001400e196c f   Status.obj
 0001:000e0984       ?GetSettingName@CStatus@@QEAAPEB_WW4CEStatusItems@@@Z 00000001400e1984 f   Status.obj
 0001:000e09a4       ?GetStatusBarClientRect@CStatus@@QEAA_NAEAUtagRECT@@@Z 00000001400e19a4 f   Status.obj
 0001:000e0a04       ?GetStatusBarItemRect@CStatus@@QEAA_NW4CEStatusItems@@PEAUtagRECT@@@Z 00000001400e1a04 f   Status.obj
 0001:000e0a70       ?InvalidateStatusBar@CStatus@@QEAAXPEAUtagRECT@@@Z 00000001400e1a70 f   Status.obj
 0001:000e0b00       ?IsCursorOverResizeMark@CStatus@@QEAA_NAEBUtagPOINT@@@Z 00000001400e1b00 f   Status.obj
 0001:000e0b40       ?IsKeyboardChanged@CStatus@@AEAA_NXZ 00000001400e1b40 f   Status.obj
 0001:000e0cd8       ?IsResizeAllowed@CStatus@@QEAA_NXZ 00000001400e1cd8 f   Status.obj
 0001:000e0d24       ?IsTimeChanged@CStatus@@AEAA_NXZ 00000001400e1d24 f   Status.obj
 0001:000e0dd8       ?IsWindowChanged@CStatus@@AEAA_NXZ 00000001400e1dd8 f   Status.obj
 0001:000e0ff0       ?LoadActiveProcess@CStatus@@AEAA_NPEAVCRealConsole@@PEA_WH@Z 00000001400e1ff0 f   Status.obj
 0001:000e107c       ?OnActiveVConChanged@CStatus@@QEAAXHPEAVCRealConsole@@@Z 00000001400e207c f   Status.obj
 0001:000e1280       ?OnConsoleBufferChanged@CStatus@@QEAAXPEAVCRealConsole@@@Z 00000001400e2280 f   Status.obj
 0001:000e1398       ?OnConsoleChanged@CStatus@@QEAAXPEBU_CONSOLE_SCREEN_BUFFER_INFO@@PEBU_CONSOLE_CURSOR_INFO@@PEBUTOPLEFTCOORD@@_N@Z 00000001400e2398 f   Status.obj
 0001:000e1708       ?OnCursorChanged@CStatus@@QEAAXPEBU_COORD@@PEBU_CONSOLE_CURSOR_INFO@@HH@Z 00000001400e2708 f   Status.obj
 0001:000e1974       ?OnDataChanged@CStatus@@AEAA_NPEAW4CEStatusItems@@_K_N@Z 00000001400e2974 f   Status.obj
 0001:000e1a24       ?OnKeyboardChanged@CStatus@@QEAAXXZ 00000001400e2a24 f   Status.obj
 0001:000e1a4c       ?OnServerChanged@CStatus@@QEAAXKK@Z 00000001400e2a4c f   Status.obj
 0001:000e1af0       ?OnTimer@CStatus@@QEAAXXZ  00000001400e2af0 f   Status.obj
 0001:000e1c1c       ?OnTransparency@CStatus@@QEAAXXZ 00000001400e2c1c f   Status.obj
 0001:000e1cc8       ?OnWindowReposition@CStatus@@QEAAXPEBUtagRECT@@@Z 00000001400e2cc8 f   Status.obj
 0001:000e2048       ?PaintStatus@CStatus@@QEAAXPEAUHDC__@@PEAUtagRECT@@@Z 00000001400e3048 f   Status.obj
 0001:000e30b8       ?ProcessMenuHighlight@CStatus@@QEAAXPEAUHMENU__@@GG@Z 00000001400e40b8 f   Status.obj
 0001:000e3134       ?ProcessStatusMessage@CStatus@@QEAA_NPEAUHWND__@@I_K_JUtagPOINT@@AEA_J@Z 00000001400e4134 f   Status.obj
 0001:000e35e4       ?ProcessTermModeMenuId@CStatus@@AEAA_NG@Z 00000001400e45e4 f   Status.obj
 0001:000e367c       ?ProcessTransparentMenuId@CStatus@@AEAA_NG_N@Z 00000001400e467c f   Status.obj
 0001:000e378c       ?ProcessZoomMenuId@CStatus@@AEAA_NG@Z 00000001400e478c f   Status.obj
 0001:000e37dc       ?SetClickedItemDesc@CStatus@@AEAAXW4CEStatusItems@@@Z 00000001400e47dc f   Status.obj
 0001:000e381c       ?SetStatus@CStatus@@QEAAXPEB_W@Z 00000001400e481c f   Status.obj
 0001:000e38c0       ?ShowStatusBarMenu@CStatus@@IEAAHUtagPOINT@@PEAUHMENU__@@W4CEStatusItems@@@Z 00000001400e48c0 f   Status.obj
 0001:000e3994       ?ShowStatusSetupMenu@CStatus@@AEAAXXZ 00000001400e4994 f   Status.obj
 0001:000e3d50       ?ShowTermModeMenu@CStatus@@AEAAXUtagPOINT@@@Z 00000001400e4d50 f   Status.obj
 0001:000e3dc4       ?ShowTransparencyMenu@CStatus@@AEAAXUtagPOINT@@@Z 00000001400e4dc4 f   Status.obj
 0001:000e3ebc       ?ShowVConMenu@CStatus@@AEAAXUtagPOINT@@@Z 00000001400e4ebc f   Status.obj
 0001:000e3ef0       ?ShowZoomMenu@CStatus@@AEAAXUtagPOINT@@@Z 00000001400e4ef0 f   Status.obj
 0001:000e3fac       ?UpdateStatusBar@CStatus@@QEAAX_N0@Z 00000001400e4fac f   Status.obj
 0001:000e405c       ?isSettingsOpened@CStatus@@AEAA_NI@Z 00000001400e505c f   Status.obj
 0001:000e40bc       ??0CTabBarClass@@QEAA@XZ   00000001400e50bc f   TabBar.obj
 0001:000e41ec       ??1CTabBarClass@@UEAA@XZ   00000001400e51ec f   TabBar.obj
 0001:000e431c       ??_GCTabBarClass@@UEAAPEAXI@Z 00000001400e531c f i TabBar.obj
 0001:000e431c       ??_ECTabBarClass@@UEAAPEAXI@Z 00000001400e531c f i TabBar.obj
 0001:000e4350       ?Activate@CTabBarClass@@QEAAXH@Z 00000001400e5350 f   TabBar.obj
 0001:000e4458       ?ActivateSearchPane@CTabBarClass@@QEAAPEAUHWND__@@_N@Z 00000001400e5458 f   TabBar.obj
 0001:000e44b0       ?ActivateTabByPoint@CTabBarClass@@QEAAHPEAUtagPOINT@@_N1@Z 00000001400e54b0 f   TabBar.obj
 0001:000e451c       ?ActiveTabByName@CTabBarClass@@QEAAHHPEB_WPEAVCVConGuard@@@Z 00000001400e551c f   TabBar.obj
 0001:000e46f0       ?AddStack@CTabBarClass@@IEAA_NAEAVCTab@@@Z 00000001400e56f0 f   TabBar.obj
 0001:000e4814       ?CanActivateTab@CTabBarClass@@AEAA_NH@Z 00000001400e5814 f   TabBar.obj
 0001:000e4894       ?CheckRebarCreated@CTabBarClass@@QEAAXXZ 00000001400e5894 f   TabBar.obj
 0001:000e48fc       ?CheckStack@CTabBarClass@@IEAA_NXZ 00000001400e58fc f   TabBar.obj
 0001:000e4b30       ?CountActiveTabs@CTabBarClass@@AEAAHH@Z 00000001400e5b30 f   TabBar.obj
 0001:000e4bf0       ?CreateTabIcon@CTabBarClass@@QEAAHPEB_W_N0@Z 00000001400e5bf0 f   TabBar.obj
 0001:000e4c10       ?Deactivate@CTabBarClass@@QEAAXH@Z 00000001400e5c10 f   TabBar.obj
 0001:000e4c58       ?DeleteItem@CTabBarClass@@AEAAXH@Z 00000001400e5c58 f   TabBar.obj
 0001:000e4cc4       ?GetActiveTabRect@CTabBarClass@@QEAA_NPEAUtagRECT@@@Z 00000001400e5cc4 f   TabBar.obj
 0001:000e4cf0       ?GetCurSel@CTabBarClass@@QEAAHXZ 00000001400e5cf0 f   TabBar.obj
 0001:000e4d20       ?GetFirstLastVConTab@CTabBarClass@@IEAAHPEAVCVirtualConsole@@_NH@Z 00000001400e5d20 f   TabBar.obj
 0001:000e4df4       ?GetItemCount@CTabBarClass@@AEAAHXZ 00000001400e5df4 f   TabBar.obj
 0001:000e4e2c       ?GetNextTab@CTabBarClass@@AEAAH_N0@Z 00000001400e5e2c f   TabBar.obj
 0001:000e4f60       ?GetNextTabHelper@CTabBarClass@@AEAAHH_N0@Z 00000001400e5f60 f   TabBar.obj
 0001:000e514c       ?GetTabFromPoint@CTabBarClass@@QEAAHPEAUtagPOINT@@_N1@Z 00000001400e614c f   TabBar.obj
 0001:000e51b0       ?GetTabIcon@CTabBarClass@@QEAAH_N@Z 00000001400e61b0 f   TabBar.obj
 0001:000e51bc       ?GetTabIconByIndex@CTabBarClass@@QEAAPEAUHICON__@@H@Z 00000001400e61bc f   TabBar.obj
 0001:000e51c8       ?GetTabIcons@CTabBarClass@@QEAAPEAU_IMAGELIST@@H@Z 00000001400e61c8 f   TabBar.obj
 0001:000e51fc       ?GetVConFromTab@CTabBarClass@@QEAA_NHPEAVCVConGuard@@PEAK@Z 00000001400e61fc f   TabBar.obj
 0001:000e52f8       ?HighlightTab@CTabBarClass@@QEAAXPEBVCTabID@@_N@Z 00000001400e62f8 f   TabBar.obj
 0001:000e5348       ?Invalidate@CTabBarClass@@QEAAXXZ 00000001400e6348 f   TabBar.obj
 0001:000e5378       ?IsInSwitch@CTabBarClass@@QEAA_NXZ 00000001400e6378 f   TabBar.obj
 0001:000e5380       ?IsSearchShown@CTabBarClass@@QEAA_N_N@Z 00000001400e6380 f   TabBar.obj
 0001:000e53a4       ?IsTabsActive@CTabBarClass@@QEBA_NXZ 00000001400e63a4 f   TabBar.obj
 0001:000e53b0       ?NeedPostUpdate@CTabBarClass@@QEAA_NXZ 00000001400e63b0 f   TabBar.obj
 0001:000e53c8       ?OnAlternative@CTabBarClass@@QEAAXH@Z 00000001400e63c8 f   TabBar.obj
 0001:000e5408       ?OnBufferHeight@CTabBarClass@@QEAAXH@Z 00000001400e6408 f   TabBar.obj
 0001:000e5448       ?OnCaptionHidden@CTabBarClass@@QEAAXXZ 00000001400e6448 f   TabBar.obj
 0001:000e5490       ?OnChooseTabPopup@CTabBarClass@@QEAAXXZ 00000001400e6490 f   TabBar.obj
 0001:000e54fc       ?OnCommand@CTabBarClass@@QEAAX_K_J@Z 00000001400e64fc f   TabBar.obj
 0001:000e5850       ?OnConsoleActivated@CTabBarClass@@QEAAXH@Z 00000001400e6850 f   TabBar.obj
 0001:000e5888       ?OnKeyboard@CTabBarClass@@QEAA_NI_K_J@Z 00000001400e6888 f   TabBar.obj
 0001:000e5948       ?OnNotify@CTabBarClass@@QEAA_NPEAUtagNMHDR@@AEA_J@Z 00000001400e6948 f   TabBar.obj
 0001:000e5cb8       ?OnShowButtonsChanged@CTabBarClass@@QEAAXXZ 00000001400e6cb8 f   TabBar.obj
 0001:000e5d08       ?OnTimer@CTabBarClass@@QEAA_N_K@Z 00000001400e6d08 f   TabBar.obj
 0001:000e5d20       ?OnWindowStateChanged@CTabBarClass@@QEAAXXZ 00000001400e6d20 f   TabBar.obj
 0001:000e5d64       ?PrepareTab@CTabBarClass@@AEAAHAEAVCTab@@PEAVCVirtualConsole@@@Z 00000001400e6d64 f   TabBar.obj
 0001:000e6568       ?RePaint@CTabBarClass@@QEAAXXZ 00000001400e7568 f   TabBar.obj
 0001:000e6578       ?Recreate@CTabBarClass@@QEAAXXZ 00000001400e7578 f   TabBar.obj
 0001:000e65fc       ?Reposition@CTabBarClass@@QEAAXXZ 00000001400e75fc f   TabBar.obj
 0001:000e6624       ?RequestPostUpdate@CTabBarClass@@AEAAXXZ 00000001400e7624 f   TabBar.obj
 0001:000e6680       ?Retrieve@CTabBarClass@@QEAAXXZ 00000001400e7680 f   TabBar.obj
 0001:000e66bc       ?SelectTab@CTabBarClass@@AEAAXH@Z 00000001400e76bc f   TabBar.obj
 0001:000e6770       ?SetRedraw@CTabBarClass@@QEAAX_N@Z 00000001400e7770 f   TabBar.obj
 0001:000e677c       ?ShowSearchPane@CTabBarClass@@QEAA_N_N0@Z 00000001400e777c f   TabBar.obj
 0001:000e678c       ?ShowTabError@CTabBarClass@@QEAAXPEB_WH@Z 00000001400e778c f   TabBar.obj
 0001:000e6798       ?Switch@CTabBarClass@@QEAAX_N0@Z 00000001400e7798 f   TabBar.obj
 0001:000e6834       ?SwitchCommit@CTabBarClass@@QEAAXXZ 00000001400e7834 f   TabBar.obj
 0001:000e688c       ?SwitchNext@CTabBarClass@@QEAAX_N@Z 00000001400e788c f   TabBar.obj
 0001:000e6898       ?SwitchPrev@CTabBarClass@@QEAAX_N@Z 00000001400e7898 f   TabBar.obj
 0001:000e68a4       ?SwitchRollback@CTabBarClass@@QEAAXXZ 00000001400e78a4 f   TabBar.obj
 0001:000e68c4       ?Toolbar_GetBtnRect@CTabBarClass@@QEAA_NHPEAUtagRECT@@@Z 00000001400e78c4 f   TabBar.obj
 0001:000e68e0       ?Update@CTabBarClass@@QEAAXH@Z 00000001400e78e0 f   TabBar.obj
 0001:000e6de8       ?UpdateAddTab@CTabBarClass@@AEAAHPEAXAEAH1AEA_NPEAVCVirtualConsole@@K@Z 00000001400e7de8 f   TabBar.obj
 0001:000e6ff4       ?UpdatePosition@CTabBarClass@@QEAAXXZ 00000001400e7ff4 f   TabBar.obj
 0001:000e7098       ?UpdateToolConsoles@CTabBarClass@@QEAAX_N@Z 00000001400e8098 f   TabBar.obj
 0001:000e70cc       ??0CTabPanelBase@@QEAA@PEAVCTabBarClass@@@Z 00000001400e80cc f   TabCtrlBase.obj
 0001:000e7144       ??1CTabPanelBase@@UEAA@XZ  00000001400e8144 f   TabCtrlBase.obj
 0001:000e7178       ??_ECTabPanelBase@@UEAAPEAXI@Z 00000001400e8178 f i TabCtrlBase.obj
 0001:000e7178       ??_GCTabPanelBase@@UEAAPEAXI@Z 00000001400e8178 f i TabCtrlBase.obj
 0001:000e71ac       ?DoTabDrag@CTabPanelBase@@IEAAXI@Z 00000001400e81ac f   TabCtrlBase.obj
 0001:000e7498       ?EndTabDrag@CTabPanelBase@@IEAAXXZ 00000001400e8498 f   TabCtrlBase.obj
 0001:000e74c8       ?FarSendChangeTab@CTabPanelBase@@QEAA_NHPEAVCVConGuard@@@Z 00000001400e84c8 f   TabCtrlBase.obj
 0001:000e76d4       ?InitTooltips@CTabPanelBase@@IEAAXPEAUHWND__@@@Z 00000001400e86d4 f   TabCtrlBase.obj
 0001:000e7888       ?OnMouseRebar@CTabPanelBase@@QEAA_JIHH@Z 00000001400e8888 f   TabCtrlBase.obj
 0001:000e7a64       ?OnMouseTabbar@CTabPanelBase@@QEAA_JIHHH@Z 00000001400e8a64 f   TabCtrlBase.obj
 0001:000e7e78       ?OnMouseToolbar@CTabPanelBase@@QEAA_JIHHH@Z 00000001400e8e78 f   TabCtrlBase.obj
 0001:000e7fd4       ?OnSetCursorRebar@CTabPanelBase@@QEAA_NXZ 00000001400e8fd4 f   TabCtrlBase.obj
 0001:000e8084       ?OnTimerInt@CTabPanelBase@@UEAA_N_K@Z 00000001400e9084 f   TabCtrlBase.obj
 0001:000e80e0       ?ShowTabErrorInt@CTabPanelBase@@QEAAXPEB_WH@Z 00000001400e90e0 f   TabCtrlBase.obj
 0001:000e8228       ?UpdateTabFontInt@CTabPanelBase@@QEAAXXZ 00000001400e9228 f   TabCtrlBase.obj
 0001:000e833c       ??$SafeDelete@VCFindPanel@@@@YAXAEAPEAVCFindPanel@@@Z 00000001400e933c f i TabCtrlWin.obj
 0001:000e8384       ??0CTabPanelWin@@QEAA@PEAVCTabBarClass@@@Z 00000001400e9384 f   TabCtrlWin.obj
 0001:000e8410       ??1CTabPanelWin@@UEAA@XZ   00000001400e9410 f   TabCtrlWin.obj
 0001:000e8448       ??_ECTabPanelWin@@UEAAPEAXI@Z 00000001400e9448 f i TabCtrlWin.obj
 0001:000e8448       ??_GCTabPanelWin@@UEAAPEAXI@Z 00000001400e9448 f i TabCtrlWin.obj
 0001:000e847c       ?ActivateSearchPaneInt@CTabPanelWin@@UEAAPEAUHWND__@@_N@Z 00000001400e947c f   TabCtrlWin.obj
 0001:000e84b8       ?AddTabInt@CTabPanelWin@@UEAAXPEB_WHIH@Z 00000001400e94b8 f   TabCtrlWin.obj
 0001:000e8688       ?CreateRebar@CTabPanelWin@@UEAAXXZ 00000001400e9688 f   TabCtrlWin.obj
 0001:000e88a0       ?CreateTabbar@CTabPanelWin@@AEAAPEAUHWND__@@XZ 00000001400e98a0 f   TabCtrlWin.obj
 0001:000e8ae0       ?CreateToolbar@CTabPanelWin@@AEAAPEAUHWND__@@XZ 00000001400e9ae0 f   TabCtrlWin.obj
 0001:000e8fb0       ?DeleteItemInt@CTabPanelWin@@UEAAXH@Z 00000001400e9fb0 f   TabCtrlWin.obj
 0001:000e8fd8       ?DestroyRebar@CTabPanelWin@@UEAAXXZ 00000001400e9fd8 f   TabCtrlWin.obj
 0001:000e9058       ?GetCurSelInt@CTabPanelWin@@UEAAHXZ 00000001400ea058 f   TabCtrlWin.obj
 0001:000e907c       ?GetItemCountInt@CTabPanelWin@@UEAAHXZ 00000001400ea07c f   TabCtrlWin.obj
 0001:000e9098       ?GetRebarClientRect@CTabPanelWin@@UEAA_NPEAUtagRECT@@@Z 00000001400ea098 f   TabCtrlWin.obj
 0001:000e90f8       ?GetRect@CTabPanelWin@@AEAA?AUtagRECT@@XZ 00000001400ea0f8 f   TabCtrlWin.obj
 0001:000e91d8       ?GetTabBarClientRect@CTabPanelWin@@UEAA_NPEAUtagRECT@@@Z 00000001400ea1d8 f   TabCtrlWin.obj
 0001:000e91fc       ?GetTabFromPoint@CTabPanelWin@@UEAAHUtagPOINT@@_N1@Z 00000001400ea1fc f   TabCtrlWin.obj
 0001:000e933c       ?GetTabRect@CTabPanelWin@@UEAA_NHPEAUtagRECT@@@Z 00000001400ea33c f   TabCtrlWin.obj
 0001:000e9424       ?GetTabText@CTabPanelWin@@UEAA_NHPEA_WH@Z 00000001400ea424 f   TabCtrlWin.obj
 0001:000e949c       ?GetToolBtnChecked@CTabPanelWin@@UEAA_NW4ToolbarCommandIdx@@@Z 00000001400ea49c f   TabCtrlWin.obj
 0001:000e94c0       ?GetToolBtnRect@CTabPanelWin@@UEAA_NHPEAUtagRECT@@@Z 00000001400ea4c0 f   TabCtrlWin.obj
 0001:000e9530       ?HighlightTab@CTabPanelWin@@UEAAXH_N@Z 00000001400ea530 f   TabCtrlWin.obj
 0001:000e9570       ?InvalidateBar@CTabPanelWin@@UEAAXXZ 00000001400ea570 f   TabCtrlWin.obj
 0001:000e95ac       ?IsCreated@CTabPanelWin@@UEAA_NXZ 00000001400ea5ac f   TabCtrlWin.obj
 0001:000e95c0       ?IsSearchShownInt@CTabPanelWin@@UEAA_N_N@Z 00000001400ea5c0 f   TabCtrlWin.obj
 0001:000e9630       ?IsTabbarCreated@CTabPanelWin@@UEAA_NXZ 00000001400ea630 f   TabCtrlWin.obj
 0001:000e9644       ?IsTabbarNotify@CTabPanelWin@@UEAA_NPEAUtagNMHDR@@@Z 00000001400ea644 f   TabCtrlWin.obj
 0001:000e9664       ?IsToolbarCommand@CTabPanelWin@@UEAA_N_K_J@Z 00000001400ea664 f   TabCtrlWin.obj
 0001:000e967c       ?IsToolbarCreated@CTabPanelWin@@UEAA_NXZ 00000001400ea67c f   TabCtrlWin.obj
 0001:000e9690       ?IsToolbarNotify@CTabPanelWin@@UEAA_NPEAUtagNMHDR@@@Z 00000001400ea690 f   TabCtrlWin.obj
 0001:000e96a8       ?OnCaptionHiddenChanged@CTabPanelWin@@UEAAX_N@Z 00000001400ea6a8 f   TabCtrlWin.obj
 0001:000e979c       ?OnConsoleActivatedInt@CTabPanelWin@@UEAAXH@Z 00000001400ea79c f   TabCtrlWin.obj
 0001:000e98c8       ?OnNotifyInt@CTabPanelWin@@UEAA_NPEAUtagNMHDR@@AEA_J@Z 00000001400ea8c8 f   TabCtrlWin.obj
 0001:000e9a34       ?OnWindowStateChanged@CTabPanelWin@@UEAAXW4ConEmuWindowMode@@@Z 00000001400eaa34 f   TabCtrlWin.obj
 0001:000e9aa0       ?QueryTabbarHeight@CTabPanelWin@@UEAAHXZ 00000001400eaaa0 f   TabCtrlWin.obj
 0001:000e9b40       ?ReBarProc@CTabPanelWin@@AEAA_JPEAUHWND__@@I_K_JP6A_J0I12@Z@Z 00000001400eab40 f   TabCtrlWin.obj
 0001:000e9ce8       ?RePaintInt@CTabPanelWin@@UEAAXXZ 00000001400eace8 f   TabCtrlWin.obj
 0001:000e9d98       ?RepositionInt@CTabPanelWin@@UEAAXXZ 00000001400ead98 f   TabCtrlWin.obj
 0001:000ea1c0       ?SelectTabInt@CTabPanelWin@@UEAAHH@Z 00000001400eb1c0 f   TabCtrlWin.obj
 0001:000ea288       ?SetTabbarFont@CTabPanelWin@@UEAAXPEAUHFONT__@@@Z 00000001400eb288 f   TabCtrlWin.obj
 0001:000ea2c8       ?SetToolBtnChecked@CTabPanelWin@@UEAAXW4ToolbarCommandIdx@@_N@Z 00000001400eb2c8 f   TabCtrlWin.obj
 0001:000ea2f0       ?ShowBar@CTabPanelWin@@UEAAX_N@Z 00000001400eb2f0 f   TabCtrlWin.obj
 0001:000ea334       ?ShowSearchPane@CTabPanelWin@@UEAA_N_N0@Z 00000001400eb334 f   TabCtrlWin.obj
 0001:000ea5bc       ?ShowTabsPane@CTabPanelWin@@UEAAX_N@Z 00000001400eb5bc f   TabCtrlWin.obj
 0001:000ea6ac       ?ShowToolsPane@CTabPanelWin@@UEAAX_N@Z 00000001400eb6ac f   TabCtrlWin.obj
 0001:000ea87c       ?TabHitTest@CTabPanelWin@@AEAA_J_NPEAH@Z 00000001400eb87c f   TabCtrlWin.obj
 0001:000ea918       ?TabProc@CTabPanelWin@@AEAA_JPEAUHWND__@@I_K_JP6A_J0I12@Z@Z 00000001400eb918 f   TabCtrlWin.obj
 0001:000eaa94       ?ToolProc@CTabPanelWin@@AEAA_JPEAUHWND__@@I_K_JP6A_J0I12@Z@Z 00000001400eba94 f   TabCtrlWin.obj
 0001:000eacb4       ?UpdateToolbarPos@CTabPanelWin@@AEAAXXZ 00000001400ebcb4 f   TabCtrlWin.obj
 0001:000eae4c       ?_ReBarProc@CTabPanelWin@@CA_JPEAUHWND__@@I_K_J@Z 00000001400ebe4c f   TabCtrlWin.obj
 0001:000eaed8       ?_TabProc@CTabPanelWin@@CA_JPEAUHWND__@@I_K_J@Z 00000001400ebed8 f   TabCtrlWin.obj
 0001:000eaf64       ?_ToolProc@CTabPanelWin@@CA_JPEAUHWND__@@I_K_J@Z 00000001400ebf64 f   TabCtrlWin.obj
 0001:000eaff0       ??0CEStrA@@QEAA@XZ         00000001400ebff0 f   common-kernel64:CEStr.obj
 0001:000eaff0       ??0CTab@@QEAA@PEBDH@Z      00000001400ebff0 f   TabID.obj
 0001:000eaff8       ??0CTabID@@QEAA@PEAVCVirtualConsole@@PEB_WIHHH@Z 00000001400ebff8 f   TabID.obj
 0001:000eb0f0       ??0CTabStack@@QEAA@XZ      00000001400ec0f0 f   TabID.obj
 0001:000eb154       ??1CTab@@QEAA@XZ           00000001400ec154 f   TabID.obj
 0001:000eb198       ??1CTabID@@MEAA@XZ         00000001400ec198 f   TabID.obj
 0001:000eb1d8       ??1CTabStack@@QEAA@XZ      00000001400ec1d8 f   TabID.obj
 0001:000eb214       ??_GCTabID@@MEAAPEAXI@Z    00000001400ec214 f i TabID.obj
 0001:000eb214       ??_ECTabID@@MEAAPEAXI@Z    00000001400ec214 f i TabID.obj
 0001:000eb248       ?AddRef@CTab@@QEAAPEAVCTabID@@PEBDH@Z 00000001400ec248 f   TabID.obj
 0001:000eb258       ?AppendInt@CTabStack@@IEAAHPEAVCTabID@@HPEAUMSectionLockSimple@@@Z 00000001400ec258 f   TabID.obj
 0001:000eb2f0       ?CleanNulls@CTabStack@@IEAAXXZ 00000001400ec2f0 f   TabID.obj
 0001:000eb384       ?Empty@TabName@@QEBA_NXZ   00000001400ec384 f   TabID.obj
 0001:000eb390       ?GetCount@CTabStack@@QEAAHXZ 00000001400ec390 f   TabID.obj
 0001:000eb394       ?GetIndexByTab@CTabStack@@QEAAHPEBVCTabID@@@Z 00000001400ec394 f   TabID.obj
 0001:000eb428       ?GetLabel@CTabID@@QEAAPEB_WXZ 00000001400ec428 f   TabID.obj
 0001:000eb45c       ?GetName@CTabID@@QEAAPEB_WXZ 00000001400ec45c f   TabID.obj
 0001:000eb47c       ?GetTabByIndex@CTabStack@@QEAA_NHAEAVCTab@@@Z 00000001400ec47c f   TabID.obj
 0001:000eb51c       ?GetTabInfoByIndex@CTabStack@@QEAA_NHAEAUTabInfo@@@Z 00000001400ec51c f   TabID.obj
 0001:000eb5c0       ?GetVisualToRealIndex@CTabStack@@IEAAHH@Z 00000001400ec5c0 f   TabID.obj
 0001:000eb5fc       ?Init@CTab@@QEAAXAEAV1@@Z  00000001400ec5fc f   TabID.obj
 0001:000eb604       ?Init@CTab@@QEAAXPEAVCTabID@@@Z 00000001400ec604 f   TabID.obj
 0001:000eb65c       ?IsEqual@CTabID@@QEAA_NPEAVCVirtualConsole@@PEB_WIHHI@Z 00000001400ec65c f   TabID.obj
 0001:000eb720       ?MarkTabsInvalid@CTabStack@@QEAAXW4MatchTabEnum@1@K@Z 00000001400ec720 f   TabID.obj
 0001:000eb7d0       ?Ptr@TabName@@QEBAPEB_WXZ  00000001400ec7d0 f   TabID.obj
 0001:000eb7d8       ?RefreshFarStatus@CTabStack@@QEAA_NKAEAVCTab@@AEAH1AEA_N@Z 00000001400ec7d8 f   TabID.obj
 0001:000eb9ec       ?ReleaseDrawRegion@CTabID@@QEAAXXZ 00000001400ec9ec f   TabID.obj
 0001:000eba18       ?ReleaseTabs@CTabStack@@QEAAXH@Z 00000001400eca18 f   TabID.obj
 0001:000ebb48       ?RequestSize@CTabStack@@IEAAXHPEAUMSectionLockSimple@@@Z 00000001400ecb48 f   TabID.obj
 0001:000ebbb8       ?Set@CTabID@@QEAA_NPEB_WIHHHI@Z 00000001400ecbb8 f   TabID.obj
 0001:000ebc64       ?Set@TabName@@QEAAPEB_WPEB_W_N@Z 00000001400ecc64 f   TabID.obj
 0001:000ebd00       ?SetLabel@CTabID@@QEAAXPEB_W@Z 00000001400ecd00 f   TabID.obj
 0001:000ebd10       ?SetName@CTabID@@QEAA_NPEB_W@Z 00000001400ecd10 f   TabID.obj
 0001:000ebd94       ?UpdateAppend@CTabStack@@QEAAXPEAXAEAVCTab@@H@Z 00000001400ecd94 f   TabID.obj
 0001:000ebd9c       ?UpdateAppend@CTabStack@@QEAAXPEAXPEAVCTabID@@H@Z 00000001400ecd9c f   TabID.obj
 0001:000ebea4       ?UpdateBegin@CTabStack@@QEAAPEAXXZ 00000001400ecea4 f   TabID.obj
 0001:000ebf00       ?UpdateEnd@CTabStack@@QEAA_NPEAXK@Z 00000001400ecf00 f   TabID.obj
 0001:000ec108       ?UpdateFarWindow@CTabStack@@QEAA_NPEAXPEAVCVirtualConsole@@PEB_WIHHHAEAVCTab@@@Z 00000001400ed108 f   TabID.obj
 0001:000ec320       ??0CTaskBar@@QEAA@PEAVCConEmuMain@@@Z 00000001400ed320 f   TaskBar.obj
 0001:000ec398       ??1CTaskBar@@UEAA@XZ       00000001400ed398 f   TaskBar.obj
 0001:000ec3f8       ??_GCTaskBar@@UEAAPEAXI@Z  00000001400ed3f8 f i TaskBar.obj
 0001:000ec3f8       ??_ECTaskBar@@UEAAPEAXI@Z  00000001400ed3f8 f i TaskBar.obj
 0001:000ec42c       ?Taskbar_AddTabXP@CTaskBar@@QEAAJPEAUHWND__@@@Z 00000001400ed42c f   TaskBar.obj
 0001:000ec444       ?Taskbar_DeleteTabXP@CTaskBar@@QEAAJPEAUHWND__@@@Z 00000001400ed444 f   TaskBar.obj
 0001:000ec45c       ?Taskbar_GhostAppend@CTaskBar@@IEAAXPEAX@Z 00000001400ed45c f   TaskBar.obj
 0001:000ec4bc       ?Taskbar_GhostRemove@CTaskBar@@IEAAXPEAX@Z 00000001400ed4bc f   TaskBar.obj
 0001:000ec534       ?Taskbar_GhostReorder@CTaskBar@@QEAAXXZ 00000001400ed534 f   TaskBar.obj
 0001:000ec650       ?Taskbar_GhostSnapshotRequired@CTaskBar@@QEAA_NXZ 00000001400ed650 f   TaskBar.obj
 0001:000ec65c       ?Taskbar_Init@CTaskBar@@QEAAXXZ 00000001400ed65c f   TaskBar.obj
 0001:000ec754       ?Taskbar_MarkFullscreenWindow@CTaskBar@@QEAAJPEAUHWND__@@H@Z 00000001400ed754 f   TaskBar.obj
 0001:000ec8b8       ?Taskbar_RegisterTab@CTaskBar@@QEAAJPEAUHWND__@@PEAXH@Z 00000001400ed8b8 f   TaskBar.obj
 0001:000ec970       ?Taskbar_Release@CTaskBar@@QEAAXXZ 00000001400ed970 f   TaskBar.obj
 0001:000ec9d0       ?Taskbar_SetActiveTab@CTaskBar@@QEAAJPEAUHWND__@@@Z 00000001400ed9d0 f   TaskBar.obj
 0001:000eca28       ?Taskbar_SetOverlay@CTaskBar@@QEAAXPEAUHICON__@@@Z 00000001400eda28 f   TaskBar.obj
 0001:000ecaf0       ?Taskbar_SetProgressState@CTaskBar@@QEAAJI@Z 00000001400edaf0 f   TaskBar.obj
 0001:000ecb3c       ?Taskbar_SetProgressValue@CTaskBar@@QEAAJH@Z 00000001400edb3c f   TaskBar.obj
 0001:000ecb9c       ?Taskbar_SetShield@CTaskBar@@QEAAX_N@Z 00000001400edb9c f   TaskBar.obj
 0001:000ecc04       ?Taskbar_UnregisterTab@CTaskBar@@QEAAJPEAUHWND__@@PEAX@Z 00000001400edc04 f   TaskBar.obj
 0001:000ecc54       ?Taskbar_UpdateOverlay@CTaskBar@@QEAAXXZ 00000001400edc54 f   TaskBar.obj
 0001:000ecd2c       ?_Reallocate_exactly@?$vector@PEAXV?$MArrayAllocator@PEAX@@@std@@AEAAX_K@Z 00000001400edd2c f i TaskBar.obj
 0001:000ecdd4       ?isTaskbarSmallIcons@CTaskBar@@QEAA_NXZ 00000001400eddd4 f   TaskBar.obj
 0001:000ece80       ??0CTaskBarGhost@@QEAA@PEAVCVirtualConsole@@@Z 00000001400ede80 f   TaskBarGhost.obj
 0001:000ecf24       ??1CTaskBarGhost@@UEAA@XZ  00000001400edf24 f   TaskBarGhost.obj
 0001:000ecfc0       ??_ECTaskBarGhost@@UEAAPEAXI@Z 00000001400edfc0 f i TaskBarGhost.obj
 0001:000ecfc0       ??_GCTaskBarGhost@@UEAAPEAXI@Z 00000001400edfc0 f i TaskBarGhost.obj
 0001:000ecff4       ?ActivateTaskbar@CTaskBarGhost@@QEAAXXZ 00000001400edff4 f   TaskBarGhost.obj
 0001:000ed020       ?CalcThumbnailSize@CTaskBarGhost@@IEAA_NHHAEAH0@Z 00000001400ee020 f   TaskBarGhost.obj
 0001:000ed098       ?CheckTitle@CTaskBarGhost@@QEAAPEB_WH@Z 00000001400ee098 f   TaskBarGhost.obj
 0001:000ed168       ?Create@CTaskBarGhost@@SAPEAV1@PEAVCVirtualConsole@@@Z 00000001400ee168 f   TaskBarGhost.obj
 0001:000ed310       ?CreateTabSnapshot@CTaskBarGhost@@QEAAHXZ 00000001400ee310 f   TaskBarGhost.obj
 0001:000ed6c0       ?CreateThumbnail@CTaskBarGhost@@IEAAPEAUHBITMAP__@@HH@Z 00000001400ee6c0 f   TaskBarGhost.obj
 0001:000eda28       ?GetPreviewPosSize@CTaskBarGhost@@IEAAXPEAUtagPOINT@@000@Z 00000001400eea28 f   TaskBarGhost.obj
 0001:000edb24       ?GhostProc@CTaskBarGhost@@IEAA_JI_K_J@Z 00000001400eeb24 f   TaskBarGhost.obj
 0001:000edc88       ?GhostStatic@CTaskBarGhost@@KA_JPEAUHWND__@@I_K_J@Z 00000001400eec88 f   TaskBarGhost.obj
 0001:000edd38       ?GhostWnd@CTaskBarGhost@@QEAAPEAUHWND__@@XZ 00000001400eed38 f   TaskBarGhost.obj
 0001:000edd48       ?NeedSnapshotCache@CTaskBarGhost@@QEAA_NXZ 00000001400eed48 f   TaskBarGhost.obj
 0001:000eddfc       ?OnActivate@CTaskBarGhost@@IEAA_J_K_J@Z 00000001400eedfc f   TaskBarGhost.obj
 0001:000edf50       ?OnClose@CTaskBarGhost@@IEAA_JXZ 00000001400eef50 f   TaskBarGhost.obj
 0001:000edf8c       ?OnCreate@CTaskBarGhost@@IEAA_JXZ 00000001400eef8c f   TaskBarGhost.obj
 0001:000ee0bc       ?OnDestroy@CTaskBarGhost@@IEAA_JXZ 00000001400ef0bc f   TaskBarGhost.obj
 0001:000ee104       ?OnDwmSendIconicLivePreviewBitmap@CTaskBarGhost@@IEAA_JXZ 00000001400ef104 f   TaskBarGhost.obj
 0001:000ee1b8       ?OnDwmSendIconicThumbnail@CTaskBarGhost@@IEAA_JFF@Z 00000001400ef1b8 f   TaskBarGhost.obj
 0001:000ee204       ?OnSysCommand@CTaskBarGhost@@IEAA_J_K_J@Z 00000001400ef204 f   TaskBarGhost.obj
 0001:000ee2ec       ?OnTimer@CTaskBarGhost@@IEAA_J_K@Z 00000001400ef2ec f   TaskBarGhost.obj
 0001:000ee34c       ?UpdateGhostSize@CTaskBarGhost@@IEAAXXZ 00000001400ef34c f   TaskBarGhost.obj
 0001:000ee450       ?UpdateTabSnapshot@CTaskBarGhost@@QEAAHHH@Z 00000001400ef450 f   TaskBarGhost.obj
 0001:000ee4f0       ??$SafeDelete@VMModule@@@@YAXAEAPEAVMModule@@@Z 00000001400ef4f0 f i TaskScheduler.obj
 0001:000ee538       ??0CTaskScheduler1@@QEAA@XZ 00000001400ef538 f   TaskScheduler.obj
 0001:000ee578       ??0CTaskScheduler2@@QEAA@XZ 00000001400ef578 f   TaskScheduler.obj
 0001:000ee5c8       ??0CTaskSchedulerBase@@QEAA@XZ 00000001400ef5c8 f   TaskScheduler.obj
 0001:000ee62c       ??1CTaskScheduler1@@UEAA@XZ 00000001400ef62c f   TaskScheduler.obj
 0001:000ee6bc       ??1CTaskScheduler2@@UEAA@XZ 00000001400ef6bc f   TaskScheduler.obj
 0001:000ee828       ??1CTaskSchedulerBase@@UEAA@XZ 00000001400ef828 f   TaskScheduler.obj
 0001:000ee864       ??_ECTaskScheduler1@@UEAAPEAXI@Z 00000001400ef864 f i TaskScheduler.obj
 0001:000ee864       ??_GCTaskScheduler1@@UEAAPEAXI@Z 00000001400ef864 f i TaskScheduler.obj
 0001:000ee898       ??_ECTaskScheduler2@@UEAAPEAXI@Z 00000001400ef898 f i TaskScheduler.obj
 0001:000ee898       ??_GCTaskScheduler2@@UEAAPEAXI@Z 00000001400ef898 f i TaskScheduler.obj
 0001:000ee8cc       ??_GCTaskSchedulerBase@@UEAAPEAXI@Z 00000001400ef8cc f i TaskScheduler.obj
 0001:000ee8cc       ??_ECTaskSchedulerBase@@UEAAPEAXI@Z 00000001400ef8cc f i TaskScheduler.obj
 0001:000ee900       ?Create@CTaskScheduler1@@UEAAJ_NPEB_W111@Z 00000001400ef900 f   TaskScheduler.obj
 0001:000eeca4       ?Create@CTaskScheduler2@@UEAAJ_NPEB_W111@Z 00000001400efca4 f   TaskScheduler.obj
 0001:000ef2c0       ?CreateProcessScheduled@@YAH_NKPEA_WPEAU_SECURITY_ATTRIBUTES@@2HKPEAXPEB_WPEAU_STARTUPINFOW@@PEAU_PROCESS_INFORMATION@@PEAK@Z 00000001400f02c0 f   TaskScheduler.obj
 0001:000ef6e4       ?DisplaySchedulerError@CTaskSchedulerBase@@QEAAXPEB_W@Z 00000001400f06e4 f   TaskScheduler.obj
 0001:000ef7f4       ?GetState@CTaskScheduler1@@UEAA?AW4TaskSchedulerState@@XZ 00000001400f07f4 f   TaskScheduler.obj
 0001:000ef964       ?GetState@CTaskScheduler2@@UEAA?AW4TaskSchedulerState@@XZ 00000001400f0964 f   TaskScheduler.obj
 0001:000efae0       ?Run@CTaskScheduler1@@UEAAJXZ 00000001400f0ae0 f   TaskScheduler.obj
 0001:000efc70       ?Run@CTaskScheduler2@@UEAAJXZ 00000001400f0c70 f   TaskScheduler.obj
 0001:000efdbc       ??0TermX@@QEAA@XZ          00000001400f0dbc f   TermX.obj
 0001:000efdd4       ?GetSubstitute@TermX@@QEAA_NAEBU_KEY_EVENT_RECORD@@AEAUCEStr@@@Z 00000001400f0dd4 f   TermX.obj
 0001:000f0430       ?GetSubstitute@TermX@@QEAA_NAEBU_MOUSE_EVENT_RECORD@@W4TermMouseMode@@AEAUCEStr@@@Z 00000001400f1430 f   TermX.obj
 0001:000f0884       ?Reset@TermX@@QEAAXXZ      00000001400f1884 f   TermX.obj
 0001:000f08b4       ??0CToolImg@@QEAA@XZ       00000001400f18b4 f   ToolImg.obj
 0001:000f08fc       ??1CToolImg@@QEAA@XZ       00000001400f18fc f   ToolImg.obj
 0001:000f0924       ?AddBitmap@CToolImg@@IEAAHPEAUHBITMAP__@@H@Z 00000001400f1924 f   ToolImg.obj
 0001:000f09fc       ?AddButtons@CToolImg@@QEAAHPEAUHINSTANCE__@@_JH@Z 00000001400f19fc f   ToolImg.obj
 0001:000f0a74       ?AddButtonsMapped@CToolImg@@QEAAHPEAUHINSTANCE__@@_JHHKKZZ 00000001400f1a74 f   ToolImg.obj
 0001:000f0aec       ?Create@CToolImg@@QEAA_NHHHK@Z 00000001400f1aec f   ToolImg.obj
 0001:000f0b64       ?CreateButtonField@CToolImg@@IEAA_NPEB_WKPEAUButtonRowInfo@1@H_N@Z 00000001400f1b64 f   ToolImg.obj
 0001:000f0c70       ?CreateDonateButton@CToolImg@@SAPEAV1@XZ 00000001400f1c70 f   ToolImg.obj
 0001:000f0d64       ?CreateField@CToolImg@@IEAA_NHHK@Z 00000001400f1d64 f   ToolImg.obj
 0001:000f0eb8       ?CreateSearchButton@CToolImg@@SAPEAV1@XZ 00000001400f1eb8 f   ToolImg.obj
 0001:000f0fbc       ?FreeBMP@CToolImg@@IEAAXXZ 00000001400f1fbc f   ToolImg.obj
 0001:000f0ff4       ?FreeDC@CToolImg@@IEAAXXZ  00000001400f1ff4 f   ToolImg.obj
 0001:000f1040       ?GetBitmap@CToolImg@@QEAAPEAUHBITMAP__@@XZ 00000001400f2040 f   ToolImg.obj
 0001:000f1058       ?GetSizeForHeight@CToolImg@@QEAA_NHAEAH0@Z 00000001400f2058 f   ToolImg.obj
 0001:000f1128       ?PaintBitmap@CToolImg@@IEAA_NPEAUHBITMAP__@@HHPEAUHDC__@@HHHH@Z 00000001400f2128 f   ToolImg.obj
 0001:000f1218       ?PaintButton@CToolImg@@QEAA_NHPEAUHDC__@@HHHH@Z 00000001400f2218 f   ToolImg.obj
 0001:000f14cc       ?AddTrayIcon@TrayIcon@@QEAAXXZ 00000001400f24cc f   TrayIcon.obj
 0001:000f1524       ?HideWindowToTray@TrayIcon@@QEAAXPEB_W@Z 00000001400f2524 f   TrayIcon.obj
 0001:000f15ec       ?LoadIconW@TrayIcon@@QEAAXPEAUHWND__@@H@Z 00000001400f25ec f   TrayIcon.obj
 0001:000f1624       ?OnTaskbarCreated@TrayIcon@@QEAAXXZ 00000001400f2624 f   TrayIcon.obj
 0001:000f1644       ?OnTryIcon@TrayIcon@@QEAA_JPEAUHWND__@@I_K_J@Z 00000001400f2644 f   TrayIcon.obj
 0001:000f1948       ?RemoveTrayIcon@TrayIcon@@QEAAX_N@Z 00000001400f2948 f   TrayIcon.obj
 0001:000f1998       ?RestoreWindowFromTray@TrayIcon@@QEAAX_N0@Z 00000001400f2998 f   TrayIcon.obj
 0001:000f1a80       ?SetMenuItemText@TrayIcon@@AEAAXPEAUHMENU__@@IPEB_W@Z 00000001400f2a80 f   TrayIcon.obj
 0001:000f1b14       ?SettingsChanged@TrayIcon@@QEAAXXZ 00000001400f2b14 f   TrayIcon.obj
 0001:000f1ba0       ?ShowTrayIcon@TrayIcon@@QEAAXPEB_WW4TrayIconMsgSource@@@Z 00000001400f2ba0 f   TrayIcon.obj
 0001:000f1c2c       ?UpdateTitle@TrayIcon@@QEAAXXZ 00000001400f2c2c f   TrayIcon.obj
 0001:000f1d14       ??$swprintf_c@$0IAA@@@YAHAEAY0IAA@_WPEB_WZZ 00000001400f2d14 f i Update.obj
 0001:000f1d40       ??0CConEmuUpdate@@QEAA@XZ  00000001400f2d40 f   Update.obj
 0001:000f1ee4       ??1CConEmuUpdate@@QEAA@XZ  00000001400f2ee4 f   Update.obj
 0001:000f21cc       ?Check7zipInstalled@CConEmuUpdate@@IEAA_NXZ 00000001400f31cc f   Update.obj
 0001:000f2294       ?CheckProcInt@CConEmuUpdate@@IEAAKXZ 00000001400f3294 f   Update.obj
 0001:000f29f4       ?CheckThreadProc@CConEmuUpdate@@KAKPEAX@Z 00000001400f39f4 f   Update.obj
 0001:000f2a34       ?CreateBatchFile@CConEmuUpdate@@IEAAPEA_WPEB_W@Z 00000001400f3a34 f   Update.obj
 0001:000f39c0       ?CreateTempFile@CConEmuUpdate@@IEAAPEA_WPEB_W0AEAPEAX@Z 00000001400f49c0 f   Update.obj
 0001:000f3d44       ?CreateVersionOnServerInfo@CConEmuUpdate@@IEAAPEA_W_NPEB_W@Z 00000001400f4d44 f   Update.obj
 0001:000f3db4       ?Deinit@wininet@CConEmuUpdate@@QEAA_N_N@Z 00000001400f4db4 f   Update.obj
 0001:000f3de0       ?DeleteBadTempFiles@CConEmuUpdate@@IEAAXXZ 00000001400f4de0 f   Update.obj
 0001:000f3e68       ?DownloadFile@CConEmuUpdate@@IEAAHPEB_W0AEAKHPEAT_LARGE_INTEGER@@@Z 00000001400f4e68 f   Update.obj
 0001:000f4088       ?ErrorCallback@CConEmuUpdate@@KAXPEBUCEDownloadInfo@@@Z 00000001400f5088 f   Update.obj
 0001:000f40b4       ?GetCurVerInfo@CConEmuUpdate@@QEAAPEA_WXZ 00000001400f50b4 f   Update.obj
 0001:000f4160       ?GetFormatted@CEDownloadInfo@@QEBAPEA_W_N@Z 00000001400f5160 f i Update.obj
 0001:000f42b8       ?GetUpdateProgress@CConEmuUpdate@@QEAAFXZ 00000001400f52b8 f   Update.obj
 0001:000f4358       ?GetVersionsFromIni@CConEmuUpdate@@IEAAXPEB_WAEAY0GE@_W11@Z 00000001400f5358 f   Update.obj
 0001:000f45c0       ?InUpdate@CConEmuUpdate@@QEAA?AW4UpdateStep@1@XZ 00000001400f55c0 f   Update.obj
 0001:000f460c       ?Init@wininet@CConEmuUpdate@@QEAA_NPEAV2@@Z 00000001400f560c f   Update.obj
 0001:000f47bc       ?IsLocalFile@CConEmuUpdate@@IEAA_NAEAPEA_W@Z 00000001400f57bc f   Update.obj
 0001:000f4874       ?IsLocalFile@CConEmuUpdate@@IEAA_NAEAPEB_W@Z 00000001400f5874 f   Update.obj
 0001:000f48a0       ?IsUpdatePackage@CConEmuUpdate@@SA_NPEB_W@Z 00000001400f58a0 f   Update.obj
 0001:000f49cc       ?LoadVersionInfoFromServer@CConEmuUpdate@@IEAA_NXZ 00000001400f59cc f   Update.obj
 0001:000f4da0       ?LocalUpdate@CConEmuUpdate@@SA_NPEB_W@Z 00000001400f5da0 f   Update.obj
 0001:000f4e0c       ?LogCallback@CConEmuUpdate@@KAXPEBUCEDownloadInfo@@@Z 00000001400f5e0c f   Update.obj
 0001:000f4ea8       ?NeedRunElevation@CConEmuUpdate@@SA_NXZ 00000001400f5ea8 f   Update.obj
 0001:000f5088       ?ProgressCallback@CConEmuUpdate@@KAXPEBUCEDownloadInfo@@@Z 00000001400f6088 f   Update.obj
 0001:000f50d0       ?QueryConfirmation@CConEmuUpdate@@IEAAHW4UpdateStep@1@@Z 00000001400f60d0 f   Update.obj
 0001:000f51f0       ?QueryConfirmationCallback@CConEmuUpdate@@KA_J_J@Z 00000001400f61f0 f   Update.obj
 0001:000f5220       ?QueryConfirmationDownload@CConEmuUpdate@@IEAAHXZ 00000001400f6220 f   Update.obj
 0001:000f564c       ?QueryConfirmationNoNewVer@CConEmuUpdate@@IEAAHXZ 00000001400f664c f   Update.obj
 0001:000f59d8       ?QueryConfirmationUpdate@CConEmuUpdate@@IEAAHXZ 00000001400f69d8 f   Update.obj
 0001:000f5c9c       ?QueryRetryVersionCheck@CConEmuUpdate@@KA_J_J@Z 00000001400f6c9c f   Update.obj
 0001:000f5e64       ?ReportBrokenIni@CConEmuUpdate@@IEAAXPEB_W000@Z 00000001400f6e64 f   Update.obj
 0001:000f5f8c       ?ReportError@CConEmuUpdate@@IEAAXPEB_W00K@Z 00000001400f6f8c f   Update.obj
 0001:000f6058       ?ReportError@CConEmuUpdate@@IEAAXPEB_W0K@Z 00000001400f7058 f   Update.obj
 0001:000f6104       ?ReportError@CConEmuUpdate@@IEAAXPEB_WK@Z 00000001400f7104 f   Update.obj
 0001:000f6188       ?ReportErrorInt@CConEmuUpdate@@IEAAXPEA_W@Z 00000001400f7188 f   Update.obj
 0001:000f6378       ?RequestExitUpdate@CConEmuUpdate@@KA_J_J@Z 00000001400f7378 f   Update.obj
 0001:000f63c0       ?RequestTerminate@CConEmuUpdate@@IEAAXXZ 00000001400f73c0 f   Update.obj
 0001:000f6400       ?SetCallback@wininet@CConEmuUpdate@@QEAAXW4CEDownloadCommand@@P6AXPEBUCEDownloadInfo@@@Z_J@Z 00000001400f7400 f   Update.obj
 0001:000f6434       ?ShowLastError@CConEmuUpdate@@KA_J_J@Z 00000001400f7434 f   Update.obj
 0001:000f6540       ?StartCheckProcedure@CConEmuUpdate@@QEAAXI@Z 00000001400f7540 f   Update.obj
 0001:000f67fc       ?StartLocalUpdate@CConEmuUpdate@@IEAA_NPEB_W@Z 00000001400f77fc f   Update.obj
 0001:000f6d20       ?StopChecking@CConEmuUpdate@@QEAAXXZ 00000001400f7d20 f   Update.obj
 0001:000f6e3c       ?WaitAllInstances@CConEmuUpdate@@IEAAXXZ 00000001400f7e3c f   Update.obj
 0001:000f6f9c       ??0ConEmuUpdateSettings@@QEAA@XZ 00000001400f7f9c f   UpdateSet.obj
 0001:000f6fdc       ??1ConEmuUpdateSettings@@QEAA@XZ 00000001400f7fdc f   UpdateSet.obj
 0001:000f7024       ?CheckHourlyUpdate@ConEmuUpdateSettings@@QEAAXXZ 00000001400f8024 f   UpdateSet.obj
 0001:000f7068       ?FreePointers@ConEmuUpdateSettings@@QEAAXXZ 00000001400f8068 f   UpdateSet.obj
 0001:000f7120       ?GetDefaultUpdateChannel@ConEmuUpdateSettings@@SA?AW4Builds@1@XZ 00000001400f8120 f   UpdateSet.obj
 0001:000f7124       ?GetUpdateInetToolCmd@ConEmuUpdateSettings@@QEAAPEB_WXZ 00000001400f8124 f   UpdateSet.obj
 0001:000f7144       ?IsVerLocationDeprecated@ConEmuUpdateSettings@@QEAA_NPEB_W@Z 00000001400f8144 f   UpdateSet.obj
 0001:000f7234       ?LoadFrom@ConEmuUpdateSettings@@QEAAXPEAU1@@Z 00000001400f8234 f   UpdateSet.obj
 0001:000f7348       ?ResetToDefaults@ConEmuUpdateSettings@@QEAAXXZ 00000001400f8348 f   UpdateSet.obj
 0001:000f7698       ?SetUpdateVerLocation@ConEmuUpdateSettings@@QEAAXPEB_W@Z 00000001400f8698 f   UpdateSet.obj
 0001:000f7748       ?UpdateArcCmdLine@ConEmuUpdateSettings@@QEAAPEB_WXZ 00000001400f8748 f   UpdateSet.obj
 0001:000f776c       ?UpdateDownloadSetup@ConEmuUpdateSettings@@QEAAEXZ 00000001400f876c f   UpdateSet.obj
 0001:000f7958       ?UpdateExeCmdLine@ConEmuUpdateSettings@@QEAAPEB_WAEAY03_W@Z 00000001400f8958 f   UpdateSet.obj
 0001:000f79b4       ?UpdateVerLocation@ConEmuUpdateSettings@@QEAAPEB_WXZ 00000001400f89b4 f   UpdateSet.obj
 0001:000f79cc       ?UpdateVerLocationDefault@ConEmuUpdateSettings@@QEAAPEB_WXZ 00000001400f89cc f   UpdateSet.obj
 0001:000f79d4       ?UpdatesAllowed@ConEmuUpdateSettings@@QEAA_NAEAY0IA@_W@Z 00000001400f89d4 f   UpdateSet.obj
 0001:000f7c08       ??0CConEmuChild@@QEAA@PEAVCVirtualConsole@@@Z 00000001400f8c08 f   VConChild.obj
 0001:000f7db8       ??1CConEmuChild@@MEAA@XZ   00000001400f8db8 f   VConChild.obj
 0001:000f7e08       ??_ECConEmuChild@@MEAAPEAXI@Z 00000001400f8e08 f i VConChild.obj
 0001:000f7e08       ??_GCConEmuChild@@MEAAPEAXI@Z 00000001400f8e08 f i VConChild.obj
 0001:000f7e3c       ?BackWndProc@CConEmuChild@@SA_JPEAUHWND__@@I_K_J@Z 00000001400f8e3c f   VConChild.obj
 0001:000f8314       ?CalcDCMargins@CConEmuChild@@QEAA?AUtagRECT@@AEBU2@@Z 00000001400f9314 f   VConChild.obj
 0001:000f853c       ?CheckMouseOverScroll@CConEmuChild@@QEAA_NXZ 00000001400f953c f   VConChild.obj
 0001:000f86e0       ?CheckPostRedraw@CConEmuChild@@QEAAXXZ 00000001400f96e0 f   VConChild.obj
 0001:000f871c       ?ChildWndProc@CConEmuChild@@SA_JPEAUHWND__@@I_K_J@Z 00000001400f971c f   VConChild.obj
 0001:000f8eb4       ?CreateView@CConEmuChild@@QEAAPEAUHWND__@@XZ 00000001400f9eb4 f   VConChild.obj
 0001:000f90cc       ?DoDestroyDcWindow@CConEmuChild@@QEAAXXZ 00000001400fa0cc f   VConChild.obj
 0001:000f9180       ?GetBack@CConEmuChild@@QEAAPEAUHWND__@@XZ 00000001400fa180 f   VConChild.obj
 0001:000f9190       ?GetView@CConEmuChild@@QEAAPEAUHWND__@@XZ 00000001400fa190 f   VConChild.obj
 0001:000f91a0       ?HideScroll@CConEmuChild@@IEAAX_N@Z 00000001400fa1a0 f   VConChild.obj
 0001:000f9318       ?InScroll@CConEmuChild@@QEAA_NXZ 00000001400fa318 f   VConChild.obj
 0001:000f9350       ?Invalidate@CConEmuChild@@QEAAXXZ 00000001400fa350 f   VConChild.obj
 0001:000f9384       ?InvalidateBack@CConEmuChild@@IEAAXXZ 00000001400fa384 f   VConChild.obj
 0001:000f93a4       ?InvalidateView@CConEmuChild@@IEAAXXZ 00000001400fa3a4 f   VConChild.obj
 0001:000f9508       ?IsDcLocked@CConEmuChild@@QEAAHPEAUtagRECT@@@Z 00000001400fa508 f   VConChild.obj
 0001:000f9558       ?IsInvalidatePending@CConEmuChild@@QEAA_NXZ 00000001400fa558 f   VConChild.obj
 0001:000f9568       ?LockDcRect@CConEmuChild@@QEAAX_NPEAUtagRECT@@@Z 00000001400fa568 f   VConChild.obj
 0001:000f96c4       ?MySetScrollInfo@CConEmuChild@@IEAAX_N0@Z 00000001400fa6c4 f   VConChild.obj
 0001:000f97cc       ?OnAlwaysShowScrollbar@CConEmuChild@@QEAAX_N@Z 00000001400fa7cc f   VConChild.obj
 0001:000f98d0       ?OnMove@CConEmuChild@@IEAA_J_K_J@Z 00000001400fa8d0 f   VConChild.obj
 0001:000f9970       ?OnPaint@CConEmuChild@@QEAA_JXZ 00000001400fa970 f   VConChild.obj
 0001:000f9bd0       ?OnPaintGaps@CConEmuChild@@QEAA_JPEAUHDC__@@@Z 00000001400fabd0 f   VConChild.obj
 0001:000f9f14       ?OnSize@CConEmuChild@@IEAA_J_K_J@Z 00000001400faf14 f   VConChild.obj
 0001:000f9fb4       ?OnVConSizePosChanged@CConEmuChild@@QEAAXXZ 00000001400fafb4 f   VConChild.obj
 0001:000fa004       ?PostDetach@CConEmuChild@@QEAAX_N@Z 00000001400fb004 f   VConChild.obj
 0001:000fa01c       ?PostOnVConClosed@CConEmuChild@@IEAAXXZ 00000001400fb01c f   VConChild.obj
 0001:000fa080       ?PostRestoreChildFocus@CConEmuChild@@QEAAXXZ 00000001400fb080 f   VConChild.obj
 0001:000fa0b4       ?ProcessVConClosed@CConEmuChild@@SAXPEAVCVirtualConsole@@_N@Z 00000001400fb0b4 f   VConChild.obj
 0001:000fa144       ?Redraw@CConEmuChild@@QEAAX_N@Z 00000001400fb144 f   VConChild.obj
 0001:000fa22c       ?RestoreChildFocusPending@CConEmuChild@@QEAAX_N@Z 00000001400fb22c f   VConChild.obj
 0001:000fa260       ?SetAutoCopyTimer@CConEmuChild@@QEAAX_N@Z 00000001400fb260 f   VConChild.obj
 0001:000fa2a8       ?SetRedraw@CConEmuChild@@QEAAX_N@Z 00000001400fb2a8 f   VConChild.obj
 0001:000fa2b4       ?SetScroll@CConEmuChild@@QEAAX_NHHH@Z 00000001400fb2b4 f   VConChild.obj
 0001:000fa3e0       ?SetVConSizePos@CConEmuChild@@QEAAXAEBUtagRECT@@0_N@Z 00000001400fb3e0 f   VConChild.obj
 0001:000fa4b0       ?SetVConSizePos@CConEmuChild@@QEAAXAEBUtagRECT@@_N@Z 00000001400fb4b0 f   VConChild.obj
 0001:000fa528       ?ShowScroll@CConEmuChild@@IEAAX_N@Z 00000001400fb528 f   VConChild.obj
 0001:000fa6d0       ?ShowView@CConEmuChild@@QEAA_NH@Z 00000001400fb6d0 f   VConChild.obj
 0001:000fa8f0       ?TrackMouse@CConEmuChild@@QEAA_NXZ 00000001400fb8f0 f   VConChild.obj
 0001:000faa00       ?UpdateScrollRgn@CConEmuChild@@IEAAX_N@Z 00000001400fba00 f   VConChild.obj
 0001:000fab68       ?isAlreadyDestroyed@CConEmuChild@@QEAA_NXZ 00000001400fbb68 f   VConChild.obj
 0001:000fab70       ??0CGroupGuard@@QEAA@PEAVCVConGroup@@@Z 00000001400fbb70 f   VConGroup.obj
 0001:000fabcc       ??0CVConGroup@@AEAA@PEAV0@@Z 00000001400fbbcc f   VConGroup.obj
 0001:000face4       ??1?$CRefGuard@VCVConGroup@@@@UEAA@XZ 00000001400fbce4 f i VConGroup.obj
 0001:000fad3c       ??1CGroupGuard@@UEAA@XZ    00000001400fbd3c f   VConGroup.obj
 0001:000fad94       ??1CVConGroup@@MEAA@XZ     00000001400fbd94 f   VConGroup.obj
 0001:000fae00       ??_E?$CRefGuard@VCVConGroup@@@@UEAAPEAXI@Z 00000001400fbe00 f i VConGroup.obj
 0001:000fae00       ??_G?$CRefGuard@VCVConGroup@@@@UEAAPEAXI@Z 00000001400fbe00 f i VConGroup.obj
 0001:000fae78       ??_ECGroupGuard@@UEAAPEAXI@Z 00000001400fbe78 f i VConGroup.obj
 0001:000fae78       ??_GCGroupGuard@@UEAAPEAXI@Z 00000001400fbe78 f i VConGroup.obj
 0001:000faeac       ??_ECVConGroup@@MEAAPEAXI@Z 00000001400fbeac f i VConGroup.obj
 0001:000faeac       ??_GCVConGroup@@MEAAPEAXI@Z 00000001400fbeac f i VConGroup.obj
 0001:000faee0       ?Activate@CVConGroup@@SA_NPEAVCVirtualConsole@@@Z 00000001400fbee0 f   VConGroup.obj
 0001:000faf28       ?ActivateNextPane@CVConGroup@@SA_NPEAVCVirtualConsole@@HH@Z 00000001400fbf28 f   VConGroup.obj
 0001:000fb000       ?ActiveConNum@CVConGroup@@SAHXZ 00000001400fc000 f   VConGroup.obj
 0001:000fb030       ?AllTextRect@CVConGroup@@SA?AUtagRECT@@PEAUtagSIZE@@_N@Z 00000001400fc030 f   VConGroup.obj
 0001:000fb15c       ?Attach@CGroupGuard@@UEAA_NPEAVCVConGroup@@@Z 00000001400fc15c f   VConGroup.obj
 0001:000fb20c       ?AttachRequested@CVConGroup@@SAHPEAUHWND__@@PEBUCESERVER_REQ_STARTSTOP@@AEAUCESERVER_REQ_SRVSTARTSTOPRET@@@Z 00000001400fc20c f   VConGroup.obj
 0001:000fb594       ?AttachRequestedGui@CVConGroup@@SAPEAVCRealConsole@@KPEB_WK@Z 00000001400fc594 f   VConGroup.obj
 0001:000fb784       ?CalcRect@CVConGroup@@SA?AUtagRECT@@W4ConEmuRect@@U2@0PEAVCVirtualConsole@@W4ConEmuMargins@@@Z 00000001400fc784 f   VConGroup.obj
 0001:000fbc28       ?CalcSplitRect@CVConGroup@@IEAAXIUtagRECT@@AEAU2@11@Z 00000001400fcc28 f   VConGroup.obj
 0001:000fbff8       ?CalcSplitRootRect@CVConGroup@@IEAAXUtagRECT@@AEAU2@PEAV1@@Z 00000001400fcff8 f   VConGroup.obj
 0001:000fc0d4       ?CheckProcesses@CVConGroup@@SAKXZ 00000001400fd0d4 f   VConGroup.obj
 0001:000fc134       ?CloseAllButActive@CVConGroup@@SAXPEAVCVirtualConsole@@W4CloseConsoleMode@1@_N@Z 00000001400fd134 f   VConGroup.obj
 0001:000fc2ec       ?CloseGroup@CVConGroup@@SAXPEAVCVirtualConsole@@_N@Z 00000001400fd2ec f   VConGroup.obj
 0001:000fc3f4       ?CloseQuery@CVConGroup@@CA_NPEAV?$MArray@PEAVCVConGuard@@@@PEA_N_N2@Z 00000001400fd3f4 f   VConGroup.obj
 0001:000fc7d8       ?ConActivate@CVConGroup@@CA_NAEAVCVConGuard@@H@Z 00000001400fd7d8 f   VConGroup.obj
 0001:000fca78       ?ConActivate@CVConGroup@@SA_NH@Z 00000001400fda78 f   VConGroup.obj
 0001:000fcb58       ?ConActivateByName@CVConGroup@@SA_NPEB_W@Z 00000001400fdb58 f   VConGroup.obj
 0001:000fcbbc       ?ConActivateNext@CVConGroup@@SA_N_N@Z 00000001400fdbbc f   VConGroup.obj
 0001:000fcc6c       ?CreateCon@CVConGroup@@SAPEAVCVirtualConsole@@PEAURConStartArgsEx@@_N1@Z 00000001400fdc6c f   VConGroup.obj
 0001:000fd1e4       ?CreateVCon@CVConGroup@@CAPEAVCVirtualConsole@@PEAURConStartArgsEx@@AEAPEAV2@H@Z 00000001400fe1e4 f   VConGroup.obj
 0001:000fd3f8       ?CreateVConGroup@CVConGroup@@CAPEAV1@XZ 00000001400fe3f8 f   VConGroup.obj
 0001:000fd42c       ?Deinitialize@CVConGroup@@SAXXZ 00000001400fe42c f   VConGroup.obj
 0001:000fd438       ?DestroyAllVCon@CVConGroup@@SAXXZ 00000001400fe438 f   VConGroup.obj
 0001:000fd500       ?DoCloseAllVCon@CVConGroup@@SA_N_N@Z 00000001400fe500 f   VConGroup.obj
 0001:000fd6c4       ?DoSrvCreated@CVConGroup@@SAPEAUHWND__@@KQEAU2@KAEAK1AEAHAEAUCESERVER_REQ_SRVSTARTSTOPRET@@@Z 00000001400fe6c4 f   VConGroup.obj
 0001:000fd7cc       ?EnumVCon@CVConGroup@@SA_NW4EnumVConFlags@@P6A_NPEAVCVirtualConsole@@_J@Z2@Z 00000001400fe7cc f   VConGroup.obj
 0001:000fd8c4       ?ExchangePanes@CVConGroup@@SA_NPEAVCVirtualConsole@@HH@Z 00000001400fe8c4 f   VConGroup.obj
 0001:000fda54       ?ExportEnvVarAll@CVConGroup@@SAXPEAUCESERVER_REQ@@PEAVCRealConsole@@@Z 00000001400fea54 f   VConGroup.obj
 0001:000fdbe0       ?FindNextPane@CVConGroup@@IEAAPEAV1@AEBUtagRECT@@HH@Z 00000001400febe0 f   VConGroup.obj
 0001:000fdde4       ?FindSplitGroup@CVConGroup@@KAPEAV1@UtagPOINT@@PEAV1@@Z 00000001400fede4 f   VConGroup.obj
 0001:000fdf20       ?FreePanesArray@CVConGroup@@SAXAEAV?$MArray@PEAVCVConGuard@@@@@Z 00000001400fef20 f   VConGroup.obj
 0001:000fdfd0       ?GetActiveVCon@CVConGroup@@SAHPEAVCVConGuard@@PEAH@Z 00000001400fefd0 f   VConGroup.obj
 0001:000fe080       ?GetAllTextSize@CVConGroup@@IEAAXAEAUtagSIZE@@0_N@Z 00000001400ff080 f   VConGroup.obj
 0001:000fe200       ?GetConCount@CVConGroup@@SAH_N@Z 00000001400ff200 f   VConGroup.obj
 0001:000fe260       ?GetExclusionRgn@CVConGroup@@SAPEAUHRGN__@@XZ 00000001400ff260 f   VConGroup.obj
 0001:000fe318       ?GetFarPID@CVConGroup@@SAK_N@Z 00000001400ff318 f   VConGroup.obj
 0001:000fe364       ?GetGroupPanes@CVConGroup@@QEAAHPEAV?$MArray@PEAVCVConGuard@@@@@Z 00000001400ff364 f   VConGroup.obj
 0001:000fe430       ?GetProgressInfo@CVConGroup@@SA_NPEAFPEAH11@Z 00000001400ff430 f   VConGroup.obj
 0001:000fe5c8       ?GetRootOfVCon@CVConGroup@@KAPEAV1@PEAVCVirtualConsole@@@Z 00000001400ff5c8 f   VConGroup.obj
 0001:000fe618       ?GetTasks@CVConGroup@@SAPEA_WXZ 00000001400ff618 f   VConGroup.obj
 0001:000fe9c8       ?GetVCon@CVConGroup@@SA_NHPEAVCVConGuard@@_N@Z 00000001400ff9c8 f   VConGroup.obj
 0001:000fea14       ?GetVConByHWND@CVConGroup@@SA_NPEAUHWND__@@0PEAVCVConGuard@@@Z 00000001400ffa14 f   VConGroup.obj
 0001:000fea4c       ?GetVConByName@CVConGroup@@SA_NPEB_WPEAVCVConGuard@@@Z 00000001400ffa4c f   VConGroup.obj
 0001:000feb38       ?GetVConBySrvPID@CVConGroup@@SA_NKKPEAVCVConGuard@@@Z 00000001400ffb38 f   VConGroup.obj
 0001:000fec88       ?GetVConFromPoint@CVConGroup@@SA_NUtagPOINT@@PEAVCVConGuard@@@Z 00000001400ffc88 f   VConGroup.obj
 0001:000fedac       ?GetVConIndex@CVConGroup@@SAHPEAVCVirtualConsole@@@Z 00000001400ffdac f   VConGroup.obj
 0001:000fedd0       ?GroupInput@CVConGroup@@SAXPEAVCVirtualConsole@@W4GroupInputCmd@@@Z 00000001400ffdd0 f   VConGroup.obj
 0001:000feef0       ?GroupSelectedInput@CVConGroup@@SAXPEAVCVirtualConsole@@@Z 00000001400ffef0 f   VConGroup.obj
 0001:000fef98       ?InCreateGroup@CVConGroup@@SA_NXZ 00000001400fff98 f   VConGroup.obj
 0001:000fefa0       ?Initialize@CVConGroup@@SAXXZ 00000001400fffa0 f   VConGroup.obj
 0001:000fefdc       ?InvalidateAll@CVConGroup@@SAXXZ 00000001400fffdc f   VConGroup.obj
 0001:000ff04c       ?InvalidateGaps@CVConGroup@@SAXXZ 000000014010004c f   VConGroup.obj
 0001:000ff06c       ?LogInput@CVConGroup@@SAXI_K_JPEB_W@Z 000000014010006c f   VConGroup.obj
 0001:000ff0dc       ?LogString@CVConGroup@@SAXPEBD@Z 00000001401000dc f   VConGroup.obj
 0001:000ff11c       ?LogString@CVConGroup@@SAXPEB_W@Z 000000014010011c f   VConGroup.obj
 0001:000ff15c       ?MoveActiveTab@CVConGroup@@SAXPEAVCVirtualConsole@@_N@Z 000000014010015c f   VConGroup.obj
 0001:000ff200       ?MoveAllVCon@CVConGroup@@SAXPEAVCVirtualConsole@@UtagRECT@@@Z 0000000140100200 f   VConGroup.obj
 0001:000ff360       ?MoveToParent@CVConGroup@@IEAAXPEAV1@@Z 0000000140100360 f   VConGroup.obj
 0001:000ff3f4       ?NotifyChildrenWindows@CVConGroup@@SAXXZ 00000001401003f4 f   VConGroup.obj
 0001:000ff478       ?OnAlwaysShowScrollbar@CVConGroup@@SAX_N@Z 0000000140100478 f   VConGroup.obj
 0001:000ff490       ?OnCloseQuery@CVConGroup@@SA_NPEA_N@Z 0000000140100490 f   VConGroup.obj
 0001:000ff4f0       ?OnConActivated@CVConGroup@@SAXPEAVCVirtualConsole@@@Z 00000001401004f0 f   VConGroup.obj
 0001:000ff514       ?OnConsoleResize@CVConGroup@@SAX_N@Z 0000000140100514 f   VConGroup.obj
 0001:000ff7c0       ?OnCreateGroupBegin@CVConGroup@@SAXXZ 00000001401007c0 f   VConGroup.obj
 0001:000ff7ec       ?OnCreateGroupEnd@CVConGroup@@SAXXZ 00000001401007ec f   VConGroup.obj
 0001:000ff810       ?OnDestroyConEmu@CVConGroup@@SAXXZ 0000000140100810 f   VConGroup.obj
 0001:000ff8bc       ?OnFlashWindow@CVConGroup@@SA_NKKKPEAUHWND__@@@Z 00000001401008bc f   VConGroup.obj
 0001:000ffb08       ?OnGuiFocused@CVConGroup@@SAX_N0@Z 0000000140100b08 f   VConGroup.obj
 0001:000ffb9c       ?OnMouseEvent@CVConGroup@@SA_JPEAUHWND__@@I_K_J@Z 0000000140100b9c f   VConGroup.obj
 0001:000ffdf0       ?OnPaintGaps@CVConGroup@@SAXPEAUHDC__@@@Z 0000000140100df0 f   VConGroup.obj
 0001:000fffc4       ?OnPaintSplitter@CVConGroup@@IEAAXPEAUHDC__@@PEAUHBRUSH__@@@Z 0000000140100fc4 f   VConGroup.obj
 0001:001000dc       ?OnPanelViewSettingsChanged@CVConGroup@@SAXXZ 00000001401010dc f   VConGroup.obj
 0001:0010010c       ?OnRConTimerCheck@CVConGroup@@SAXXZ 000000014010110c f   VConGroup.obj
 0001:00100178       ?OnTaskbarCreated@CVConGroup@@SAXXZ 0000000140101178 f   VConGroup.obj
 0001:001001f0       ?OnTaskbarSettingsChanged@CVConGroup@@SAXXZ 00000001401011f0 f   VConGroup.obj
 0001:0010024c       ?OnUpdateFarSettings@CVConGroup@@SAXXZ 000000014010124c f   VConGroup.obj
 0001:001002b4       ?OnUpdateGuiInfoMapping@CVConGroup@@SAXPEAUConEmuGuiMapping@@@Z 00000001401012b4 f   VConGroup.obj
 0001:00100338       ?OnUpdateProcessDisplay@CVConGroup@@SAXPEAUHWND__@@@Z 0000000140101338 f   VConGroup.obj
 0001:001004e8       ?OnUpdateScrollInfo@CVConGroup@@SAXXZ 00000001401014e8 f   VConGroup.obj
 0001:00100564       ?OnUpdateTextColorSettings@CVConGroup@@SAX_N0PEBUAppSettings@@@Z 0000000140101564 f   VConGroup.obj
 0001:001005f4       ?OnVConClosed@CVConGroup@@SAXPEAVCVirtualConsole@@@Z 00000001401015f4 f   VConGroup.obj
 0001:0010087c       ?OnVConCreated@CVConGroup@@SAXPEAVCVirtualConsole@@PEBURConStartArgsEx@@@Z 000000014010187c f   VConGroup.obj
 0001:001008d8       ?OnVConDestroyed@CVConGroup@@SAXPEAVCVirtualConsole@@@Z 00000001401018d8 f   VConGroup.obj
 0001:00100920       ?PaneActivateNext@CVConGroup@@SA_N_N@Z 0000000140101920 f   VConGroup.obj
 0001:00100a6c       ?PaneMaximizeRestore@CVConGroup@@SAXPEAVCVirtualConsole@@@Z 0000000140101a6c f   VConGroup.obj
 0001:00100b9c       ?PopulateSplitPanes@CVConGroup@@AEAAXIAEAIAEAV?$MArray@PEAVCVConGuard@@@@@Z 0000000140101b9c f   VConGroup.obj
 0001:00100d6c       ?PreReSize@CVConGroup@@SA_NIUtagRECT@@W4ConEmuRect@@_N@Z 0000000140101d6c f   VConGroup.obj
 0001:00100ef4       ?ReSizePanes@CVConGroup@@SAXUtagRECT@@@Z 0000000140101ef4 f   VConGroup.obj
 0001:00100f48       ?ReSizeSplitter@CVConGroup@@IEAA_NH@Z 0000000140101f48 f   VConGroup.obj
 0001:00101254       ?ReSizeSplitter@CVConGroup@@SA_NPEAVCVirtualConsole@@HH@Z 0000000140102254 f   VConGroup.obj
 0001:00101408       ?ReSizeSplitterHelper@CVConGroup@@KA_J_J@Z 0000000140102408 f   VConGroup.obj
 0001:00101438       ?Redraw@CVConGroup@@SAXXZ  0000000140102438 f   VConGroup.obj
 0001:001014ac       ?RemoveGroup@CVConGroup@@IEAAXXZ 00000001401024ac f   VConGroup.obj
 0001:00101580       ?RepositionVCon@CVConGroup@@IEAAXUtagRECT@@_N@Z 0000000140102580 f   VConGroup.obj
 0001:00101810       ?ResetGroupInput@CVConGroup@@SAXPEAVCConEmuMain@@W4GroupInputCmd@@@Z 0000000140102810 f   VConGroup.obj
 0001:001018d8       ?SetAllConsoleWindowsSize@CVConGroup@@SAXUtagRECT@@U_COORD@@_N@Z 00000001401028d8 f   VConGroup.obj
 0001:00101a20       ?SetConsoleSizes@CVConGroup@@IEAAXAEBU_COORD@@AEBUtagRECT@@_N@Z 0000000140102a20 f   VConGroup.obj
 0001:00101dc4       ?SetRedraw@CVConGroup@@SAX_N@Z 0000000140102dc4 f   VConGroup.obj
 0001:00101e3c       ?ShowActiveGroup@CVConGroup@@KAXPEAVCVirtualConsole@@@Z 0000000140102e3c f   VConGroup.obj
 0001:00101f40       ?ShowAllVCon@CVConGroup@@IEAAXH@Z 0000000140102f40 f   VConGroup.obj
 0001:00101ffc       ?SplitVConGroup@CVConGroup@@AEAAPEAV1@W4SplitType@RConStartArgs@@I@Z 0000000140102ffc f   VConGroup.obj
 0001:0010218c       ?StopSignalAll@CVConGroup@@SAXXZ 000000014010318c f   VConGroup.obj
 0001:001021c4       ?StopSplitDragging@CVConGroup@@KAXXZ 00000001401031c4 f   VConGroup.obj
 0001:001022fc       ?StoreActiveVCon@CVConGroup@@IEAAXPEAVCVirtualConsole@@@Z 00000001401032fc f   VConGroup.obj
 0001:00102348       ?SyncAllConsoles2Window@CVConGroup@@SAXUtagRECT@@_N@Z 0000000140103348 f   VConGroup.obj
 0001:00102434       ?SyncConsoleToWindow@CVConGroup@@SAXPEAUtagRECT@@_N@Z 0000000140103434 f   VConGroup.obj
 0001:00102518       ?Update@CVConGroup@@SAX_N@Z 0000000140103518 f   VConGroup.obj
 0001:001025b4       ?UpdateWindowChild@CVConGroup@@SAXPEAVCVirtualConsole@@@Z 00000001401035b4 f   VConGroup.obj
 0001:001026f8       ?isActiveGroupVCon@CVConGroup@@SA_NPEAVCVirtualConsole@@@Z 00000001401036f8 f   VConGroup.obj
 0001:0010278c       ?isChildWindowVisible@CVConGroup@@SA_NXZ 000000014010378c f   VConGroup.obj
 0001:00102834       ?isConSelectMode@CVConGroup@@SA_NXZ 0000000140103834 f   VConGroup.obj
 0001:0010288c       ?isConsolePID@CVConGroup@@SA_NK@Z 000000014010388c f   VConGroup.obj
 0001:00102928       ?isDetached@CVConGroup@@SA_NXZ 0000000140103928 f   VConGroup.obj
 0001:001029a4       ?isFar@CVConGroup@@SA_N_N@Z 00000001401039a4 f   VConGroup.obj
 0001:00102a10       ?isFarExist@CVConGroup@@SAHIPEA_WPEAVCVConGuard@@@Z 0000000140103a10 f   VConGroup.obj
 0001:00102dac       ?isFilePanel@CVConGroup@@SA_N_N@Z 0000000140103dac f   VConGroup.obj
 0001:00102e20       ?isGroup@CVConGroup@@SA_NPEAVCVirtualConsole@@PEAPEAV1@PEAVCVConGuard@@@Z 0000000140103e20 f   VConGroup.obj
 0001:00102ecc       ?isGroupVisible@CVConGroup@@KA_NPEAV1@@Z 0000000140103ecc f   VConGroup.obj
 0001:00102f40       ?isInCreateRoot@CVConGroup@@SA_NXZ 0000000140103f40 f   VConGroup.obj
 0001:00102fbc       ?isNtvdm@CVConGroup@@SA_NH@Z 0000000140103fbc f   VConGroup.obj
 0001:0010306c       ?isOurConsoleWindow@CVConGroup@@SA_NPEAUHWND__@@@Z 000000014010406c f   VConGroup.obj
 0001:001030fc       ?isOurGuiChildWindow@CVConGroup@@SA_NPEAUHWND__@@@Z 00000001401040fc f   VConGroup.obj
 0001:001031cc       ?isOurWindow@CVConGroup@@SA_NPEAUHWND__@@@Z 00000001401041cc f   VConGroup.obj
 0001:001032c8       ?isPictureView@CVConGroup@@SA_NXZ 00000001401042c8 f   VConGroup.obj
 0001:0010344c       ?isSplitterDragging@CVConGroup@@SA?AW4SplitType@RConStartArgs@@XZ 000000014010444c f   VConGroup.obj
 0001:00103488       ?isVConExists@CVConGroup@@SA_NH@Z 0000000140104488 f   VConGroup.obj
 0001:001034a4       ?isVConHWND@CVConGroup@@SA_NPEAUHWND__@@PEAVCVConGuard@@@Z 00000001401044a4 f   VConGroup.obj
 0001:00103570       ?isValid@CVConGroup@@SA_NPEAVCRealConsole@@@Z 0000000140104570 f   VConGroup.obj
 0001:001035ec       ?isValid@CVConGroup@@SA_NPEAVCVirtualConsole@@@Z 00000001401045ec f   VConGroup.obj
 0001:00103614       ?setActiveVConAndFlags@CVConGroup@@KAXPEAVCVirtualConsole@@@Z 0000000140104614 f   VConGroup.obj
 0001:00103724       ?setRef@CVConGroup@@KA_NAEAPEAVCVirtualConsole@@PEAV2@@Z 0000000140104724 f   VConGroup.obj
 0001:001037ec       ??0CVConGuard@@QEAA@PEAVCVirtualConsole@@@Z 00000001401047ec f   VConRelease.obj
 0001:0010384c       ??0CVConGuard@@QEAA@XZ     000000014010484c f   VConRelease.obj
 0001:00103884       ??0CVConRelease@@QEAA@PEAVCVirtualConsole@@@Z 0000000140104884 f   VConRelease.obj
 0001:001038a8       ??1?$CRefGuard@VCVirtualConsole@@@@UEAA@XZ 00000001401048a8 f i VConRelease.obj
 0001:00103900       ??1CVConGuard@@UEAA@XZ     0000000140104900 f   VConRelease.obj
 0001:00103958       ??_G?$CRefGuard@VCVirtualConsole@@@@UEAAPEAXI@Z 0000000140104958 f i VConRelease.obj
 0001:00103958       ??_E?$CRefGuard@VCVirtualConsole@@@@UEAAPEAXI@Z 0000000140104958 f i VConRelease.obj
 0001:001039d0       ??_GCVConGuard@@UEAAPEAXI@Z 00000001401049d0 f i VConRelease.obj
 0001:001039d0       ??_ECVConGuard@@UEAAPEAXI@Z 00000001401049d0 f i VConRelease.obj
 0001:00103a04       ??_GCVConRelease@@UEAAPEAXI@Z 0000000140104a04 f i VConRelease.obj
 0001:00103a04       ??_ECVConRelease@@UEAAPEAXI@Z 0000000140104a04 f i VConRelease.obj
 0001:00103a30       ?Attach@CVConGuard@@UEAA_NPEAVCVirtualConsole@@@Z 0000000140104a30 f   VConRelease.obj
 0001:00103a94       ?DeleteFromMainThread@CVConRelease@@QEAAXXZ 0000000140104a94 f   VConRelease.obj
 0001:00103ab4       ?FinalRelease@CVConRelease@@MEAAXXZ 0000000140104ab4 f   VConRelease.obj
 0001:00103b00       ??0CVConLine@@QEAA@PEAVCRealConsole@@@Z 0000000140104b00 f   VConText.obj
 0001:00103b60       ??1CVConLine@@QEAA@XZ      0000000140104b60 f   VConText.obj
 0001:00103b78       ??1Shrinker@@QEAA@XZ       0000000140104b78 f i VConText.obj
 0001:00103b84       ?AllocateMemory@CVConLine@@IEAA_NXZ 0000000140104b84 f   VConText.obj
 0001:00103be0       ?CropParts@CVConLine@@IEAAXIII@Z 0000000140104be0 f   VConText.obj
 0001:00103ca8       ?DistributeParts@CVConLine@@IEAAXIII@Z 0000000140104ca8 f   VConText.obj
 0001:00103e70       ?DoShrink@CVConLine@@IEAAXAEAIAEAH00@Z 0000000140104e70 f   VConText.obj
 0001:00103ec0       ?Done@VConTextPart@@QEAAXXZ 0000000140104ec0 f   VConText.obj
 0001:00103ee4       ?ExpandPart@CVConLine@@IEAAXAEAUVConTextPart@@I@Z 0000000140104ee4 f   VConText.obj
 0001:00103f44       ?GetNextPart@CVConLine@@QEAA_NAEAIAEAPEAUVConTextPart@@1@Z 0000000140104f44 f   VConText.obj
 0001:00104014       ?ParseLine@CVConLine@@QEAA_N_NIIIPEA_WPEAUtag_CharAttr@@QEB_WQEBU2@@Z 0000000140105014 f   VConText.obj
 0001:001047ac       ?PolishParts@CVConLine@@QEAAXPEAK@Z 00000001401057ac f   VConText.obj
 0001:001049f8       ?ReleaseMemory@CVConLine@@IEAAXXZ 00000001401059f8 f   VConText.obj
 0001:00104a44       ?SetDialogs@CVConLine@@QEAAXHPEAU_SMALL_RECT@@PEAKKAEBU2@@Z 0000000140105a44 f   VConText.obj
 0001:00104a64       ?SetLen@VConTextPart@@QEAAXII@Z 0000000140105a64 f   VConText.obj
 0001:00104b38       ?eval_compression@Shrinker@@QEAA_NPEAUVConTextPart@@IIH@Z 0000000140105b38 f i VConText.obj
 0001:00104d88       ?get_total@Shrinker@@QEAAXPEAUVConTextPart@@IIAEAMAEAH@Z 0000000140105d88 f i VConText.obj
 0001:00104fac       ?isCharAltFont@@YA_NH@Z    0000000140105fac f   VConText.obj
 0001:00104fbc       ?isCharNonWord@@YA_NH@Z    0000000140105fbc f   VConText.obj
 0001:00104ff4       ?isCharProgress@@YA_NH@Z   0000000140105ff4 f   VConText.obj
 0001:00105010       ?isCharPunctuation@@YA_NH@Z 0000000140106010 f   VConText.obj
 0001:00105054       ?isCharScroll@@YA_NH@Z     0000000140106054 f   VConText.obj
 0001:00105078       ?isCharSeparate@@YA_NH@Z   0000000140106078 f   VConText.obj
 0001:001050c0       ?isCharSpace@@YA_NH@Z      00000001401060c0 f   VConText.obj
 0001:001050f8       ?isCharSpaceSingle@@YA_NH@Z 00000001401060f8 f   VConText.obj
 0001:00105128       ?isDialogBorderCoord@CVConLine@@IEAAKI@Z 0000000140106128 f   VConText.obj
 0001:001052b8       ??$SafeDelete@VCRealConsole@@@@YAXAEAPEAVCRealConsole@@@Z 00000001401062b8 f i VirtualConsole.obj
 0001:00105300       ??$_Buynode@AEBUpiecewise_construct_t@std@@V?$tuple@AEBH@2@V?$tuple@$$V@2@@?$_List_buy@U?$pair@$$CBHG@std@@V?$allocator@U?$pair@$$CBHG@std@@@2@@std@@QEAAPEAU?$_List_node@U?$pair@$$CBHG@std@@PEAX@1@PEAU21@0AEBUpiecewise_construct_t@1@$$QEAV?$tuple@AEBH@1@$$QEAV?$tuple@$$V@1@@Z 0000000140106300 f i VirtualConsole.obj
 0001:0010533c       ??$_Insert@AEAU?$pair@$$CBHG@std@@V?$_List_unchecked_iterator@V?$_List_val@U?$_List_simple_types@U?$pair@$$CBHG@std@@@std@@@std@@@2@@?$_Hash@V?$_Umap_traits@HGV?$_Uhash_compare@HU?$hash@H@std@@U?$equal_to@H@2@@std@@V?$allocator@U?$pair@$$CBHG@std@@@2@$0A@@std@@@std@@IEAA?AU?$pair@V?$_List_iterator@V?$_List_val@U?$_List_simple_types@U?$pair@$$CBHG@std@@@std@@@std@@@std@@_N@1@AEAU?$pair@$$CBHG@1@V?$_List_unchecked_iterator@V?$_List_val@U?$_List_simple_types@U?$pair@$$CBHG@std@@@std@@@std@@@1@@Z 000000014010633c f i VirtualConsole.obj
 0001:001054a8       ??$_Insert@AEBUpiecewise_construct_t@std@@V?$tuple@AEBH@2@V?$tuple@$$V@2@@?$list@U?$pair@$$CBHG@std@@V?$allocator@U?$pair@$$CBHG@std@@@2@@std@@QEAAXV?$_List_unchecked_const_iterator@V?$_List_val@U?$_List_simple_types@U?$pair@$$CBHG@std@@@std@@@std@@U_Iterator_base0@2@@1@AEBUpiecewise_construct_t@1@$$QEAV?$tuple@AEBH@1@$$QEAV?$tuple@$$V@1@@Z 00000001401064a8 f i VirtualConsole.obj
 0001:00105520       ??$_Try_emplace@AEBH$$V@?$unordered_map@HGU?$hash@H@std@@U?$equal_to@H@2@V?$allocator@U?$pair@$$CBHG@std@@@2@@std@@QEAA?AU?$pair@V?$_List_iterator@V?$_List_val@U?$_List_simple_types@U?$pair@$$CBHG@std@@@std@@@std@@@std@@_N@1@AEBH@Z 0000000140106520 f i VirtualConsole.obj
 0001:001055a4       ??$erase@V?$_List_iterator@V?$_List_val@U?$_List_simple_types@U?$pair@$$CBHG@std@@@std@@@std@@@std@@X@?$_Hash@V?$_Umap_traits@HGV?$_Uhash_compare@HU?$hash@H@std@@U?$equal_to@H@2@@std@@V?$allocator@U?$pair@$$CBHG@std@@@2@$0A@@std@@@std@@QEAA?AV?$_List_iterator@V?$_List_val@U?$_List_simple_types@U?$pair@$$CBHG@std@@@std@@@std@@@1@V21@@Z 00000001401065a4 f i VirtualConsole.obj
 0001:001055bc       ??0CVirtualConsole@@IEAA@PEAVCConEmuMain@@H@Z 00000001401065bc f   VirtualConsole.obj
 0001:00105934       ??1CEDC@@QEAA@XZ           0000000140106934 f i VirtualConsole.obj
 0001:00105960       ??1CVirtualConsole@@MEAA@XZ 0000000140106960 f   VirtualConsole.obj
 0001:00105b74       ??1VConHeap@CVirtualConsole@@QEAA@XZ 0000000140106b74 f   VirtualConsole.obj
 0001:00105b98       ??_ECVirtualConsole@@OBI@EAAPEAXI@Z 0000000140106b98 f i VirtualConsole.obj
 0001:00105ba4       ??_GCVirtualConsole@@MEAAPEAXI@Z 0000000140106ba4 f i VirtualConsole.obj
 0001:00105ba4       ??_ECVirtualConsole@@MEAAPEAXI@Z 0000000140106ba4 f i VirtualConsole.obj
 0001:00105bd8       ?Blit@CVirtualConsole@@QEAA_NPEAUHDC__@@HHHH@Z 0000000140106bd8 f   VirtualConsole.obj
 0001:00105c34       ?CalcHighlightRowCol@CVirtualConsole@@IEAA_NPEAU_COORD@@@Z 0000000140106c34 f   VirtualConsole.obj
 0001:00105dec       ?ChangeHighlightMouse@CVirtualConsole@@QEAAXHH@Z 0000000140106dec f   VirtualConsole.obj
 0001:00105f14       ?ChangePalette@CVirtualConsole@@QEAA_NH@Z 0000000140106f14 f   VirtualConsole.obj
 0001:00105f3c       ?ChangePalette@CVirtualConsole@@QEAA_NPEBUColorPalette@@@Z 0000000140106f3c f   VirtualConsole.obj
 0001:001060bc       ?ChangePalette@CVirtualConsole@@QEAA_NPEB_W@Z 00000001401070bc f   VirtualConsole.obj
 0001:001060e4       ?CharAttrFromConAttr@CVirtualConsole@@AEAAXGPEAUtag_CharAttr@@@Z 00000001401070e4 f   VirtualConsole.obj
 0001:00106170       ?CharWidth@CVirtualConsole@@IEAAG_WAEBUtag_CharAttr@@@Z 0000000140107170 f   VirtualConsole.obj
 0001:00106304       ?CheckChangedTextAttr@CVirtualConsole@@IEAA_NXZ 0000000140107304 f   VirtualConsole.obj
 0001:00106500       ?CheckDialogsChanged@CVirtualConsole@@AEAA_NXZ 0000000140107500 f   VirtualConsole.obj
 0001:001065d0       ?CheckTransparent@CVirtualConsole@@QEAA_NXZ 00000001401075d0 f   VirtualConsole.obj
 0001:0010669c       ?CheckTransparentRgn@CVirtualConsole@@IEAA_N_N@Z 000000014010769c f   VirtualConsole.obj
 0001:00106b14       ?ClearPartBrushes@CVirtualConsole@@SAXXZ 0000000140107b14 f   VirtualConsole.obj
 0001:00106b5c       ?ClientToConsole@CVirtualConsole@@QEAA?AU_COORD@@JJ_N@Z 0000000140107b5c f   VirtualConsole.obj
 0001:00106c74       ?ConsoleToClient@CVirtualConsole@@QEAA?AUtagPOINT@@JJ@Z 0000000140107c74 f   VirtualConsole.obj
 0001:00106d4c       ?Constructor@CVirtualConsole@@IEAA_NPEAURConStartArgsEx@@@Z 0000000140107d4c f   VirtualConsole.obj
 0001:00107030       ?CreateBackBrush@CVirtualConsole@@AEAAPEAUHBRUSH__@@_NAEA_NPEAK@Z 0000000140108030 f   VirtualConsole.obj
 0001:001070b8       ?Dump@CVirtualConsole@@QEAA_NPEB_W@Z 00000001401080b8 f   VirtualConsole.obj
 0001:001072f8       ?DumpConsole@CVirtualConsole@@QEAAXXZ 00000001401082f8 f   VirtualConsole.obj
 0001:001073e0       ?FindChanges@CVirtualConsole@@IEAA_NHPEB_WPEBUtag_CharAttr@@01@Z 00000001401083e0 f   VirtualConsole.obj
 0001:00107484       ?FindOpaqueCell@CVirtualConsole@@QEAA?AU_COORD@@XZ 0000000140108484 f   VirtualConsole.obj
 0001:00107588       ?GetBackSize@CVirtualConsole@@QEAA?AUtagSIZE@@XZ 0000000140108588 f   VirtualConsole.obj
 0001:001075a8       ?GetBackgroundObject@CVirtualConsole@@QEAAPEAVCBackgroundInfo@@XZ 00000001401085a8 f   VirtualConsole.obj
 0001:001075d4       ?GetCellSize@CVirtualConsole@@QEAA?AUtagSIZE@@XZ 00000001401085d4 f   VirtualConsole.obj
 0001:001075ec       ?GetColors@CVirtualConsole@@QEAAPEAKXZ 00000001401085ec f   VirtualConsole.obj
 0001:001075f8       ?GetColors@CVirtualConsole@@QEAAPEAK_N@Z 00000001401085f8 f   VirtualConsole.obj
 0001:001076b4       ?GetCursor@CVirtualConsole@@QEAA?ATCECursorType@@_N@Z 00000001401086b4 f   VirtualConsole.obj
 0001:0010777c       ?GetDcClientRect@CVirtualConsole@@QEAA?AUtagRECT@@XZ 000000014010877c f   VirtualConsole.obj
 0001:001077cc       ?GetExclusionRgn@CVirtualConsole@@QEAAPEAUHRGN__@@XZ 00000001401087cc f   VirtualConsole.obj
 0001:00107808       ?GetIntDC@CVirtualConsole@@IEAAPEAUHDC__@@XZ 0000000140108808 f   VirtualConsole.obj
 0001:00107810       ?GetPaletteIndex@CVirtualConsole@@QEAAHXZ 0000000140108810 f   VirtualConsole.obj
 0001:001078a8       ?GetTextHeight@CVirtualConsole@@QEAAJXZ 00000001401088a8 f   VirtualConsole.obj
 0001:001078b0       ?GetTextWidth@CVirtualConsole@@QEAAJXZ 00000001401088b0 f   VirtualConsole.obj
 0001:001078b8       ?GetUCharMapFontPtr@CVirtualConsole@@QEAA_NAEAVCFontPtr@@@Z 00000001401088b8 f   VirtualConsole.obj
 0001:001078e8       ?GetVConHeight@CVirtualConsole@@QEAAJXZ 00000001401088e8 f   VirtualConsole.obj
 0001:001078f0       ?GetVConOffset@CVirtualConsole@@QEAA?AUtagPOINT@@XZ 00000001401088f0 f   VirtualConsole.obj
 0001:00107910       ?GetVConWidth@CVirtualConsole@@QEAAJXZ 0000000140108910 f   VirtualConsole.obj
 0001:00107918       ?GhostWnd@CVirtualConsole@@QEAAPEAUHWND__@@XZ 0000000140108918 f   VirtualConsole.obj
 0001:00107930       ?GuiWnd@CVirtualConsole@@QEAAPEAUHWND__@@XZ 0000000140108930 f   VirtualConsole.obj
 0001:00107948       ?HasBackgroundImage@CVirtualConsole@@QEAA_NPEAJ0@Z 0000000140108948 f   VirtualConsole.obj
 0001:001079a0       ?ID@CVirtualConsole@@QEAAHXZ 00000001401089a0 f   VirtualConsole.obj
 0001:001079a8       ?IDStr@CVirtualConsole@@QEAAPEB_WXZ 00000001401089a8 f   VirtualConsole.obj
 0001:001079d4       ?Index@CVirtualConsole@@QEAAHXZ 00000001401089d4 f   VirtualConsole.obj
 0001:001079dc       ?IndexStr@CVirtualConsole@@QEAAPEB_WXZ 00000001401089dc f   VirtualConsole.obj
 0001:00107a08       ?InitDC@CVirtualConsole@@QEAA_N_N0PEAVMSectionLock@@1@Z 0000000140108a08 f   VirtualConsole.obj
 0001:00107d08       ?InitGhost@CVirtualConsole@@QEAAXXZ 0000000140108d08 f   VirtualConsole.obj
 0001:00107d60       ?InternalOpenCreate@?$MFileMapping@Utag_DetectedDialog@@@@IEAAPEAUtag_DetectedDialog@@HHH@Z 0000000140108d60 f i VirtualConsole.obj
 0001:00107f08       ?IsPanelViews@CVirtualConsole@@QEAA_NXZ 0000000140108f08 f   VirtualConsole.obj
 0001:00107f50       ?LoadConsoleData@CVirtualConsole@@QEAA_NXZ 0000000140108f50 f   VirtualConsole.obj
 0001:00108278       ?LoadDumpConsole@CVirtualConsole@@QEAA_NXZ 0000000140109278 f   VirtualConsole.obj
 0001:00108398       ?Log@VConCreateLogger@@YAXPEAVCVirtualConsole@@W4EventType@1@@Z 0000000140109398 f   VirtualConsole.obj
 0001:001083d4       ?NeedBackgroundUpdate@CVirtualConsole@@QEAAXXZ 00000001401093d4 f   VirtualConsole.obj
 0001:001083f4       ?OnAppSettingsChanged@CVirtualConsole@@QEAAXH@Z 00000001401093f4 f   VirtualConsole.obj
 0001:001084a8       ?OnConsoleSizeChanged@CVirtualConsole@@QEAAXXZ 00000001401094a8 f   VirtualConsole.obj
 0001:001084f0       ?OnConsoleSizeReset@CVirtualConsole@@QEAAXGG@Z 00000001401094f0 f   VirtualConsole.obj
 0001:00108518       ?OnDestroy@CVirtualConsole@@MEAAXXZ 0000000140109518 f   VirtualConsole.obj
 0001:0010854c       ?OnFontChanged@CVirtualConsole@@QEAAXXZ 000000014010954c f   VirtualConsole.obj
 0001:0010855c       ?OnPanelViewSettingsChanged@CVirtualConsole@@QEAAXXZ 000000014010955c f   VirtualConsole.obj
 0001:00108658       ?OnTaskbarFocus@CVirtualConsole@@QEAAXXZ 0000000140109658 f   VirtualConsole.obj
 0001:00108674       ?OnTaskbarSettingsChanged@CVirtualConsole@@QEAAXXZ 0000000140109674 f   VirtualConsole.obj
 0001:001086c4       ?OnTitleChanged@CVirtualConsole@@QEAAXXZ 00000001401096c4 f   VirtualConsole.obj
 0001:001086fc       ?Owner@CVirtualConsole@@QEAAPEAVCConEmuMain@@XZ 00000001401096fc f   VirtualConsole.obj
 0001:0010870c       ?PaintBackgroundImage@CVirtualConsole@@QEAAXPEAUHDC__@@AEBUtagRECT@@K_N@Z 000000014010970c f   VirtualConsole.obj
 0001:00108940       ?PaintVCon@CVirtualConsole@@QEAAXPEAUHDC__@@@Z 0000000140109940 f   VirtualConsole.obj
 0001:00108bd0       ?PaintVConDebug@CVirtualConsole@@IEAAXPEAUHDC__@@UtagRECT@@@Z 0000000140109bd0 f   VirtualConsole.obj
 0001:0010901c       ?PaintVConNormal@CVirtualConsole@@IEAAXPEAUHDC__@@UtagRECT@@@Z 000000014010a01c f   VirtualConsole.obj
 0001:001096fc       ?PaintVConSimple@CVirtualConsole@@IEAAXPEAUHDC__@@UtagRECT@@_N@Z 000000014010a6fc f   VirtualConsole.obj
 0001:00109910       ?PartBrush@CVirtualConsole@@KAPEAUHBRUSH__@@_WKK@Z 000000014010a910 f   VirtualConsole.obj
 0001:00109d30       ?PatInvertRect@CVirtualConsole@@IEAAXPEAUHDC__@@AEBUtagRECT@@0_N@Z 000000014010ad30 f   VirtualConsole.obj
 0001:00109e44       ?PointersAlloc@CVirtualConsole@@AEAA_NXZ 000000014010ae44 f   VirtualConsole.obj
 0001:00109fb8       ?PointersFree@CVirtualConsole@@AEAAXXZ 000000014010afb8 f   VirtualConsole.obj
 0001:0010a14c       ?PointersZero@CVirtualConsole@@AEAAXXZ 000000014010b14c f   VirtualConsole.obj
 0001:0010a21c       ?PolishPanelViews@CVirtualConsole@@AEAAXXZ 000000014010b21c f   VirtualConsole.obj
 0001:0010a90c       ?PrintClient@CVirtualConsole@@QEAA_NPEAUHDC__@@_NQEAUtagRECT@@@Z 000000014010b90c f   VirtualConsole.obj
 0001:0010aa74       ?RCon@CVirtualConsole@@QEAAPEAVCRealConsole@@XZ 000000014010ba74 f   VirtualConsole.obj
 0001:0010aa9c       ?RegisterPanelView@CVirtualConsole@@QEAA_NPEAUPanelViewInit@@@Z 000000014010ba9c f   VirtualConsole.obj
 0001:0010abe4       ?SavePaneSnapshot@CVirtualConsole@@QEAAXXZ 000000014010bbe4 f   VirtualConsole.obj
 0001:0010ac34       ?SelectBrush@CVirtualConsole@@QEAAXPEAUHBRUSH__@@@Z 000000014010bc34 f   VirtualConsole.obj
 0001:0010aca8       ?SelectFont@CVirtualConsole@@IEAAXAEBVCFontPtr@@@Z 000000014010bca8 f   VirtualConsole.obj
 0001:0010ace8       ?SelectFont@CVirtualConsole@@QEAAXW4CEFontStyles@@@Z 000000014010bce8 f   VirtualConsole.obj
 0001:0010ad60       ?SetBackgroundImageData@CVirtualConsole@@QEAAHPEAUCESERVER_REQ_SETBACKGROUND@@@Z 000000014010bd60 f   VirtualConsole.obj
 0001:0010add0       ?SetFlags@CVirtualConsole@@IEAA_NKKH@Z 000000014010bdd0 f   VirtualConsole.obj
 0001:0010ae44       ?SetSelfPalette@CVirtualConsole@@QEAAXGGAEAY0BA@$$CBK@Z 000000014010be44 f   VirtualConsole.obj
 0001:0010b150       ?StretchPaint@CVirtualConsole@@QEAA_NPEAUHDC__@@HHHH@Z 000000014010c150 f   VirtualConsole.obj
 0001:0010b244       ?UndoHighlights@CVirtualConsole@@IEAAXXZ 000000014010c244 f   VirtualConsole.obj
 0001:0010b37c       ?Update@CVirtualConsole@@QEAA_N_NPEAPEAUHDC__@@@Z 000000014010c37c f   VirtualConsole.obj
 0001:0010b73c       ?UpdateCursor@CVirtualConsole@@QEAAXAEA_N@Z 000000014010c73c f   VirtualConsole.obj
 0001:0010ba24       ?UpdateCursorDraw@CVirtualConsole@@IEAAXPEAUHDC__@@UtagRECT@@U_COORD@@I@Z 000000014010ca24 f   VirtualConsole.obj
 0001:0010bf3c       ?UpdateCursorGroup@CVirtualConsole@@SA_NPEAV1@_J@Z 000000014010cf3c f   VirtualConsole.obj
 0001:0010bf74       ?UpdateHighlights@CVirtualConsole@@IEAAXXZ 000000014010cf74 f   VirtualConsole.obj
 0001:0010c004       ?UpdateHighlightsHyperlink@CVirtualConsole@@IEAAXXZ 000000014010d004 f   VirtualConsole.obj
 0001:0010c19c       ?UpdateHighlightsRowCol@CVirtualConsole@@IEAAXXZ 000000014010d19c f   VirtualConsole.obj
 0001:0010c41c       ?UpdateInfo@CVirtualConsole@@QEAAXXZ 000000014010d41c f   VirtualConsole.obj
 0001:0010c6f4       ?UpdatePanelRgn@CVirtualConsole@@AEAA_N_N00@Z 000000014010d6f4 f   VirtualConsole.obj
 0001:0010cbe0       ?UpdatePanelView@CVirtualConsole@@AEAA_N_N0@Z 000000014010dbe0 f   VirtualConsole.obj
 0001:0010cecc       ?UpdatePrepare@CVirtualConsole@@IEAA_NPEAPEAUHDC__@@PEAVMSectionLock@@1@Z 000000014010decc f   VirtualConsole.obj
 0001:0010d47c       ?UpdateText@CVirtualConsole@@IEAAXXZ 000000014010e47c f   VirtualConsole.obj
 0001:0010dfc4       ?UpdateThumbnail@CVirtualConsole@@QEAAX_N@Z 000000014010efc4 f   VirtualConsole.obj
 0001:0010e018       ?WasHighlightRowColChanged@CVirtualConsole@@IEAA_NXZ 000000014010f018 f   VirtualConsole.obj
 0001:0010e1bc       ?_Check_size@?$_Hash@V?$_Umap_traits@HGV?$_Uhash_compare@HU?$hash@H@std@@U?$equal_to@H@2@@std@@V?$allocator@U?$pair@$$CBHG@std@@@2@$0A@@std@@@std@@IEAAXXZ 000000014010f1bc f i VirtualConsole.obj
 0001:0010e26c       ?_Destroy_if_node@?$_Hash@V?$_Umap_traits@HGV?$_Uhash_compare@HU?$hash@H@std@@U?$equal_to@H@2@@std@@V?$allocator@U?$pair@$$CBHG@std@@@2@$0A@@std@@@std@@IEAAXV?$_List_unchecked_iterator@V?$_List_val@U?$_List_simple_types@U?$pair@$$CBHG@std@@@std@@@std@@@2@@Z 000000014010f26c f i VirtualConsole.obj
 0001:0010e298       ?_Make_iter@?$_Hash@V?$_Umap_traits@HGV?$_Uhash_compare@HU?$hash@H@std@@U?$equal_to@H@2@@std@@V?$allocator@U?$pair@$$CBHG@std@@@2@$0A@@std@@@std@@QEBA?AV?$_List_iterator@V?$_List_val@U?$_List_simple_types@U?$pair@$$CBHG@std@@@std@@@std@@@2@V?$_List_unchecked_const_iterator@V?$_List_val@U?$_List_simple_types@U?$pair@$$CBHG@std@@@std@@@std@@U_Iterator_base0@2@@2@@Z 000000014010f298 f i VirtualConsole.obj
 0001:0010e2a0       ?erase@?$_Hash@V?$_Umap_traits@HGV?$_Uhash_compare@HU?$hash@H@std@@U?$equal_to@H@2@@std@@V?$allocator@U?$pair@$$CBHG@std@@@2@$0A@@std@@@std@@QEAA?AV?$_List_iterator@V?$_List_val@U?$_List_simple_types@U?$pair@$$CBHG@std@@@std@@@std@@@2@V?$_List_const_iterator@V?$_List_val@U?$_List_simple_types@U?$pair@$$CBHG@std@@@std@@@std@@@2@@Z 000000014010f2a0 f i VirtualConsole.obj
 0001:0010e35c       ?isActive@CVirtualConsole@@QEAA_N_N@Z 000000014010f35c f   VirtualConsole.obj
 0001:0010e374       ?isGroupedInput@CVirtualConsole@@QEAA?AW4EnumVConFlags@@XZ 000000014010f374 f   VirtualConsole.obj
 0001:0010e3c0       ?isHighlightAny@CVirtualConsole@@IEAA_NXZ 000000014010f3c0 f   VirtualConsole.obj
 0001:0010e40c       ?isVisible@CVirtualConsole@@QEAA_NXZ 000000014010f40c f   VirtualConsole.obj
 0001:0010e428       ?lower_bound@?$_Hash@V?$_Umap_traits@HGV?$_Uhash_compare@HU?$hash@H@std@@U?$equal_to@H@2@@std@@V?$allocator@U?$pair@$$CBHG@std@@@2@$0A@@std@@@std@@QEAA?AV?$_List_iterator@V?$_List_val@U?$_List_simple_types@U?$pair@$$CBHG@std@@@std@@@std@@@2@AEBH@Z 000000014010f428 f i VirtualConsole.obj
 0001:0010e4a8       ?setFocus@CVirtualConsole@@QEAAXXZ 000000014010f4a8 f   VirtualConsole.obj
 0001:0010e500       ??0CWinObjBase@@QEAA@XZ    000000014010f500 f   WinObjBase.obj
 0001:0010e524       ??1CWinObjBase@@UEAA@XZ    000000014010f524 f   WinObjBase.obj
 0001:0010e530       ??_GCWinObjBase@@UEAAPEAXI@Z 000000014010f530 f i WinObjBase.obj
 0001:0010e530       ??_ECWinObjBase@@UEAAPEAXI@Z 000000014010f530 f i WinObjBase.obj
 0001:0010e55c       ?GetObj@CWinObjBase@@KAPEAV1@PEAUHWND__@@PEAUTabPanelWinMap@@_N@Z 000000014010f55c f   WinObjBase.obj
 0001:0010e5c0       ?InitObjMap@CWinObjBase@@SA_NXZ 000000014010f5c0 f   WinObjBase.obj
 0001:0010e63c       ?SetObj@CWinObjBase@@KAXPEAUHWND__@@PEAV1@P6A_J0I_K_J@Z@Z 000000014010f63c f   WinObjBase.obj
 0001:0010e697       GetFileVersionInfoSizeW    000000014010f697 f   version:VERSION.dll
 0001:0010e69d       GetFileVersionInfoW        000000014010f69d f   version:VERSION.dll
 0001:0010e6a3       VerQueryValueW             000000014010f6a3 f   version:VERSION.dll
 0001:0010e6a9       NetUserEnum                000000014010f6a9 f   netapi32:NETAPI32.dll
 0001:0010e6af       NetApiBufferFree           000000014010f6af f   netapi32:NETAPI32.dll
 0001:0010e6b5       CreateToolhelp32Snapshot   000000014010f6b5 f   kernel32:KERNEL32.dll
 0001:0010e6bb       Module32FirstW             000000014010f6bb f   kernel32:KERNEL32.dll
 0001:0010e6c1       Module32NextW              000000014010f6c1 f   kernel32:KERNEL32.dll
 0001:0010e6c7       Process32FirstW            000000014010f6c7 f   kernel32:KERNEL32.dll
 0001:0010e6cd       Process32NextW             000000014010f6cd f   kernel32:KERNEL32.dll
 0001:0010e6d4       ??2@YAPEAX_K@Z             000000014010f6d4 f   common-kernel64:Memory.obj
 0001:0010e6fc       ??3@YAXPEAX@Z              000000014010f6fc f   common-kernel64:Memory.obj
 0001:0010e6fc       ??_V@YAXPEAX@Z             000000014010f6fc f   common-kernel64:Memory.obj
 0001:0010e704       ??_U@YAPEAX_K@Z            000000014010f704 f   common-kernel64:Memory.obj
 0001:0010e70c       ?HeapDeinitialize@@YAXXZ   000000014010f70c f   common-kernel64:Memory.obj
 0001:0010e76c       ?HeapInitialize@@YA_NXZ    000000014010f76c f   common-kernel64:Memory.obj
 0001:0010e7ac       ?xf_calloc@@YAPEAX_K0@Z    000000014010f7ac f   common-kernel64:Memory.obj
 0001:0010e7e0       ?xf_free@@YAXPEAX@Z        000000014010f7e0 f   common-kernel64:Memory.obj
 0001:0010e854       ?xf_malloc@@YAPEAX_K@Z     000000014010f854 f   common-kernel64:Memory.obj
 0001:0010e884       ?xf_realloc@@YAPEAXPEAX_K@Z 000000014010f884 f   common-kernel64:Memory.obj
 0001:0010e8ac       ?lstrcmpni@@YAHPEBD0H@Z    000000014010f8ac f   common-kernel64:MStrSafe.obj
 0001:0010e98c       ?lstrcmpni@@YAHPEB_W0H@Z   000000014010f98c f   common-kernel64:MStrSafe.obj
 0001:0010ea9c       ?msprintf@@YAPEB_WPEA_W_KPEB_WZZ 000000014010fa9c f   common-kernel64:MStrSafe.obj
 0001:0010eeac       ?sprintf_c@@YAHPEAD_JPEBDZZ 000000014010feac f   common-kernel64:MStrSafe.obj
 0001:0010eeec       ?startswith@@YAHPEB_W0_N@Z 000000014010feec f   common-kernel64:MStrSafe.obj
 0001:0010ef74       ?swprintf_c@@YAHPEA_W_JPEB_WZZ 000000014010ff74 f   common-kernel64:MStrSafe.obj
 0001:0010efb4       ?lstrdup@@YAPEA_WPEB_W_K@Z 000000014010ffb4 f   common-kernel64:MStrDup.obj
 0001:0010f028       ?lstrdupW@@YAPEA_WPEBDI@Z  0000000140110028 f   common-kernel64:MStrDup.obj
 0001:0010f0b4       ?lstrmerge@@YAPEA_WPEB_W00000000@Z 00000001401100b4 f   common-kernel64:MStrDup.obj
 0001:0010f1f8       ?lstrmerge@@YA_NPEAPEA_WPEB_W1111111@Z 00000001401101f8 f   common-kernel64:MStrDup.obj
 0001:0010f270       ??0CEStr@@QEAA@$$QEAPEA_W@Z 0000000140110270 f   common-kernel64:CEStr.obj
 0001:0010f290       ??0CEStr@@QEAA@PEB_W00000000@Z 0000000140110290 f   common-kernel64:CEStr.obj
 0001:0010f328       ??0CEStr@@QEAA@XZ          0000000140110328 f   common-kernel64:CEStr.obj
 0001:0010f328       ??0MGlobal@@QEAA@XZ        0000000140110328 f   common-user64:MGlobal.obj
 0001:0010f338       ?clear@CEStrA@@QEAAXXZ     0000000140110338 f   common-kernel64:CEStr.obj
 0001:0010f338       ??1CEStr@@QEAA@XZ          0000000140110338 f   common-kernel64:CEStr.obj
 0001:0010f358       ??4CEStr@@QEAAAEAU0@$$QEAPEA_W@Z 0000000140110358 f   common-kernel64:CEStr.obj
 0001:0010f370       ??4CEStr@@QEAAAEAU0@$$QEAU0@@Z 0000000140110370 f   common-kernel64:CEStr.obj
 0001:0010f3b8       ??4CmdArg@@QEAAAEAU0@PEB_W@Z 00000001401103b8 f   common-kernel64:CmdLine.obj
 0001:0010f3b8       ??4CEStr@@QEAAAEAU0@PEB_W@Z 00000001401103b8 f   common-kernel64:CEStr.obj
 0001:0010f3d4       ??4CEStrA@@QEAAAEAU0@$$QEAPEAD@Z 00000001401103d4 f   common-kernel64:CEStr.obj
 0001:0010f410       ??BCEStr@@QEBA_NXZ         0000000140110410 f   common-kernel64:CEStr.obj
 0001:0010f424       ?Append@CEStr@@QEAAPEB_WPEB_W0000000@Z 0000000140110424 f   common-kernel64:CEStr.obj
 0001:0010f47c       ?Attach@CEStr@@QEAAPEB_W$$QEAPEA_W@Z 000000014011047c f   common-kernel64:CEStr.obj
 0001:0010f484       ?AttachInt@CEStr@@AEAAPEB_WAEAPEA_W@Z 0000000140110484 f   common-kernel64:CEStr.obj
 0001:0010f4fc       ?Clear@CEStr@@QEAAXXZ      00000001401104fc f   common-kernel64:CEStr.obj
 0001:0010f520       ?Compare@CEStr@@QEBAHPEB_W_N@Z 0000000140110520 f   common-kernel64:CEStr.obj
 0001:0010f550       ?Detach@CEStr@@QEAAPEA_WXZ 0000000140110550 f   common-kernel64:CEStr.obj
 0001:0010f560       ?Empty@CEStr@@QEAAXXZ      0000000140110560 f   common-kernel64:CEStr.obj
 0001:0010f570       ?GetBuffer@CEStr@@QEAAPEA_W_J@Z 0000000140110570 f   common-kernel64:CEStr.obj
 0001:0010f620       ?GetLen@CEStr@@QEBA_JXZ    0000000140110620 f   common-kernel64:CEStr.obj
 0001:0010f644       ?GetMaxCount@CEStr@@QEAA_JXZ 0000000140110644 f   common-kernel64:CEStr.obj
 0001:0010f670       ?IsEmpty@CEStr@@QEBA_NXZ   0000000140110670 f   common-kernel64:CEStr.obj
 0001:0010f684       ?Mid@CEStr@@QEBAPEB_W_J@Z  0000000140110684 f   common-kernel64:CEStr.obj
 0001:0010f6bc       ?Set@CEStr@@QEAAPEB_WPEB_W_J@Z 00000001401106bc f   common-kernel64:CEStr.obj
 0001:0010f794       ?StringCchCopyNW@@YAJPEA_W_KPEB_W1@Z 0000000140110794 f i common-kernel64:CEStr.obj
 0001:0010f81c       ?c_str@CEStr@@QEBAPEB_WPEB_W@Z 000000014011081c f   common-kernel64:CEStr.obj
 0001:0010f81c       ?c_str@CEStrA@@QEBAPEBDPEBD@Z 000000014011081c f   common-kernel64:CEStr.obj
 0001:0010f828       ?getbuffer@CEStrA@@QEAAPEAD_J@Z 0000000140110828 f   common-kernel64:CEStr.obj
 0001:0010f878       ?ApplyExportEnvVar@@YAXPEB_W@Z 0000000140110878 f   common-kernel64:WObjects.obj
 0001:0010f9c4       ?CoordInSmallRect@@YA_NAEBU_COORD@@AEBU_SMALL_RECT@@@Z 00000001401109c4 f   common-kernel64:WObjects.obj
 0001:0010f9e8       ?ExpandMacroValues@@YAPEA_WPEB_WPEAPEB_W_K@Z 00000001401109e8 f   common-kernel64:WObjects.obj
 0001:0010fb64       ?FileExists@@YA_NPEB_WPEAK@Z 0000000140110b64 f   common-kernel64:WObjects.obj
 0001:0010fcf0       ?FileExistsSearch@@YA_NPEB_WAEAUCEStr@@_N2@Z 0000000140110cf0 f   common-kernel64:WObjects.obj
 0001:0010fdfc       ?FileSearchInDir@@YA_NPEB_WAEAUCEStr@@@Z 0000000140110dfc f   common-kernel64:WObjects.obj
 0001:0010ff4c       ?GetComspec@@YAPEA_WPEBUConEmuComspec@@@Z 0000000140110f4c f   common-kernel64:WObjects.obj
 0001:0011007c       ?GetComspecFromEnvVar@@YAPEB_WPEA_WKW4ComSpecBits@@@Z 000000014011107c f   common-kernel64:WObjects.obj
 0001:00110210       ?GetCpFromString@@YAIPEB_WPEAPEB_W@Z 0000000140111210 f   common-kernel64:WObjects.obj
 0001:00110374       ?GetOsVersionInformational@@YA_NPEAU_OSVERSIONINFOW@@@Z 0000000140111374 f   common-kernel64:WObjects.obj
 0001:00110388       ?GetShortFileName@@YA_NPEB_WHPEA_WH@Z 0000000140111388 f   common-kernel64:WObjects.obj
 0001:001104a0       ?GetShortFileNameEx@@YAPEA_WPEB_WH@Z 00000001401114a0 f   common-kernel64:WObjects.obj
 0001:001107e8       ?IsExportEnvVarAllowed@@YA_NPEB_W@Z 00000001401117e8 f   common-kernel64:WObjects.obj
 0001:00110880       ?IsHwFullScreenAvailable@@YA_NXZ 0000000140111880 f   common-kernel64:WObjects.obj
 0001:0011091c       ?IsWin10@@YA_NXZ           000000014011191c f   common-kernel64:WObjects.obj
 0001:001109a0       ?IsWin6@@YA_NXZ            00000001401119a0 f   common-kernel64:WObjects.obj
 0001:001109d4       ?IsWin7@@YA_NXZ            00000001401119d4 f   common-kernel64:WObjects.obj
 0001:00110a08       ?IsWin8_1@@YA_NXZ          0000000140111a08 f   common-kernel64:WObjects.obj
 0001:00110a3c       ?IsWinDBCS@@YA_NXZ         0000000140111a3c f   common-kernel64:WObjects.obj
 0001:00110a70       ?IsWinPE@@YA_NXZ           0000000140111a70 f   common-kernel64:WObjects.obj
 0001:00110af0       ?IsWinVerOrHigher@@YA_NG@Z 0000000140111af0 f   common-kernel64:WObjects.obj
 0001:00110b84       ?IsWinXP@@YA_NXZ           0000000140111b84 f   common-kernel64:WObjects.obj
 0001:00110c34       ?IsWindows64@@YA_NXZ       0000000140111c34 f   common-kernel64:WObjects.obj
 0001:00110c58       ?IsWine@@YA_NXZ            0000000140111c58 f   common-kernel64:WObjects.obj
 0001:00110cd4       ?_VerifyVersionInfo@@YA_NPEAU_OSVERSIONINFOEXW@@K_K@Z 0000000140111cd4 f   common-kernel64:WObjects.obj
 0001:00110d84       ?apiGetFullPathName@@YAHPEB_WAEAUCEStr@@@Z 0000000140111d84 f   common-kernel64:WObjects.obj
 0001:00110e6c       ?apiSearchPath@@YAHPEB_W00AEAUCEStr@@@Z 0000000140111e6c f   common-kernel64:WObjects.obj
 0001:00110f70       ??0MModule@@QEAA@PEAUHINSTANCE__@@@Z 0000000140111f70 f   common-kernel64:MModule.obj
 0001:00110f7c       ??0MModule@@QEAA@PEB_W@Z   0000000140111f7c f   common-kernel64:MModule.obj
 0001:00110f9c       ??0MModule@@QEAA@XZ        0000000140111f9c f   common-kernel64:MModule.obj
 0001:00110f9c       ??0MSectionLockSimple@@QEAA@XZ 0000000140111f9c f   common-kernel64:MSectionSimple.obj
 0001:00110fa8       ??1MModule@@QEAA@XZ        0000000140111fa8 f   common-kernel64:MModule.obj
 0001:00110fb0       ?Free@MModule@@QEAAXXZ     0000000140111fb0 f   common-kernel64:MModule.obj
 0001:00110fe0       ?Load@MModule@@QEAAPEAUHINSTANCE__@@PEB_W@Z 0000000140111fe0 f   common-kernel64:MModule.obj
 0001:00111018       ?isPressed@@YA_NG@Z        0000000140112018 f   common-kernel64:Keyboard.obj
 0001:00111030       ??_GMNullDesc@@QEAAPEAXI@Z 0000000140112030 f i common-kernel64:MSecurity.obj
 0001:001110a8       ?LoadAdvApi@MNullDesc@@IEAAHXZ 00000001401120a8 f i common-kernel64:MSecurity.obj
 0001:0011125c       ?LocalSecurity@@YAPEAU_SECURITY_ATTRIBUTES@@XZ 000000014011225c f   common-kernel64:MSecurity.obj
 0001:001112b8       ?LocalSecurity@MNullDesc@@QEAAPEAU_SECURITY_ATTRIBUTES@@XZ 00000001401122b8 f i common-kernel64:MSecurity.obj
 0001:00111434       ?ShutdownSecurity@@YAXXZ   0000000140112434 f   common-kernel64:MSecurity.obj
 0001:0011145c       ??0CmdArg@@QEAA@XZ         000000014011245c f   common-kernel64:CmdLine.obj
 0001:00111480       ??1CmdArg@@QEAA@XZ         0000000140112480 f   common-kernel64:CmdLine.obj
 0001:0011149c       ?CheckProcessName@@YA_NPEB_WPEAPEB_W@Z 000000014011249c f   common-kernel64:CmdLine.obj
 0001:001115a4       ?CompareFileMask@@YA_NPEB_W0@Z 00000001401125a4 f   common-kernel64:CmdLine.obj
 0001:0011173c       ?CompareProcessNames@@YA_NPEB_W0@Z 000000014011273c f   common-kernel64:CmdLine.obj
 0001:001118b8       ?CompareSwitch@CmdArg@@AEBA_NPEB_W@Z 00000001401128b8 f   common-kernel64:CmdLine.obj
 0001:00111958       ?Empty@CmdArg@@QEAAXXZ     0000000140112958 f   common-kernel64:CmdLine.obj
 0001:0011197c       ?GetDrive@@YAPEB_WPEB_WPEA_WH@Z 000000014011297c f   common-kernel64:CmdLine.obj
 0001:00111aa0       ?GetParentPath@@YAPEA_WPEB_W@Z 0000000140112aa0 f   common-kernel64:CmdLine.obj
 0001:00111b40       ?GetPosFrom@CmdArg@@QEAAXAEBU1@@Z 0000000140112b40 f   common-kernel64:CmdLine.obj
 0001:00111b5c       ?IsCmdProcessor@@YA_NPEB_W@Z 0000000140112b5c f   common-kernel64:CmdLine.obj
 0001:00111ba8       ?IsConEmuGui@@YA_NPEB_W@Z  0000000140112ba8 f   common-kernel64:CmdLine.obj
 0001:00111bf4       ?IsConsoleHelper@@YA_NPEB_W@Z 0000000140112bf4 f   common-kernel64:CmdLine.obj
 0001:00111c1c       ?IsConsoleServer@@YA_NPEB_W@Z 0000000140112c1c f   common-kernel64:CmdLine.obj
 0001:00111c68       ?IsConsoleService@@YA_NPEB_W@Z 0000000140112c68 f   common-kernel64:CmdLine.obj
 0001:00111cb4       ?IsExecutable@@YA_NPEB_WPEAPEA_W@Z 0000000140112cb4 f   common-kernel64:CmdLine.obj
 0001:00111d84       ?IsFarExe@@YA_NPEB_W@Z     0000000140112d84 f   common-kernel64:CmdLine.obj
 0001:00111dd0       ?IsFilePath@@YA_NPEB_W_N@Z 0000000140112dd0 f   common-kernel64:CmdLine.obj
 0001:00111f20       ?IsGitBashHelper@@YA_NPEB_W@Z 0000000140112f20 f   common-kernel64:CmdLine.obj
 0001:00111f6c       ?IsNeedCmd@@YA_NHPEB_WAEAUCEStr@@PEAPEB_WPEAH333@Z 0000000140112f6c f   common-kernel64:CmdLine.obj
 0001:001127cc       ?IsNeedDequote@@YA_NPEB_W_NPEAPEB_W@Z 00000001401137cc f   common-kernel64:CmdLine.obj
 0001:0011293c       ?IsPossibleSwitch@CmdArg@@QEBA_NXZ 000000014011393c f   common-kernel64:CmdLine.obj
 0001:001129ac       ?IsQuotationNeeded@@YA_NPEB_W@Z 00000001401139ac f   common-kernel64:CmdLine.obj
 0001:001129d4       ?IsSwitch@CmdArg@@QEBA_NPEB_W@Z 00000001401139d4 f   common-kernel64:CmdLine.obj
 0001:00112a14       ?IsTerminalServer@@YA_NPEB_W@Z 0000000140113a14 f   common-kernel64:CmdLine.obj
 0001:00112a84       ?JoinPath@@YAPEA_WPEB_W00@Z 0000000140113a84 f   common-kernel64:CmdLine.obj
 0001:00112b9c       ?MergeCmdLine@@YAPEA_WPEB_W0@Z 0000000140113b9c f   common-kernel64:CmdLine.obj
 0001:00112c30       ?NextArg@@YAPEB_WPEB_WAEAUCmdArg@@PEAPEB_W@Z 0000000140113c30 f   common-kernel64:CmdLine.obj
 0001:00112fd4       ?NextLine@@YAPEB_WPEB_WAEAUCEStr@@K@Z 0000000140113fd4 f   common-kernel64:CmdLine.obj
 0001:00113108       ?OneOfSwitches@CmdArg@@QEBA_NPEB_W000000000@Z 0000000140114108 f   common-kernel64:CmdLine.obj
 0001:00113200       ?PointToExt@@YAPEB_WPEB_W@Z 0000000140114200 f   common-kernel64:CmdLine.obj
 0001:00113224       ?PointToName@@YAPEB_WPEB_W@Z 0000000140114224 f   common-kernel64:CmdLine.obj
 0001:00113280       ?SkipNonPrintable@@YAPEB_WPEB_W@Z 0000000140114280 f   common-kernel64:CmdLine.obj
 0001:001132ac       ?Unquote@@YAPEB_WPEA_W_N@Z 00000001401142ac f   common-kernel64:CmdLine.obj
 0001:00113314       ?ExecuteCmd@@YAPEAUCESERVER_REQ@@PEB_WPEAU1@KPEAUHWND__@@HKH@Z 0000000140114314 f   common-kernel64:ConEmuCheck.obj
 0001:001134fc       ?ExecuteFreeResult@@YAXAEAPEAUCESERVER_REQ@@@Z 00000001401144fc f   common-kernel64:ConEmuCheck.obj
 0001:0011351c       ?ExecuteGuiCmd@@YAPEAUCESERVER_REQ@@PEAUHWND__@@PEAU1@0H@Z 000000014011451c f   common-kernel64:ConEmuCheck.obj
 0001:001135dc       ?ExecuteHkCmd@@YAPEAUCESERVER_REQ@@KPEAU1@PEAUHWND__@@HH@Z 00000001401145dc f   common-kernel64:ConEmuCheck.obj
 0001:001136a0       ?ExecuteNewCmd@@YAPEAUCESERVER_REQ@@K_K@Z 00000001401146a0 f   common-kernel64:ConEmuCheck.obj
 0001:00113704       ?ExecuteNewCmd@@YA_NAEAPEAUCESERVER_REQ@@AEAKK_K@Z 0000000140114704 f   common-kernel64:ConEmuCheck.obj
 0001:0011379c       ?ExecuteOpenPipe@@YAPEAXPEB_WAEAY0CAI@_W0KKHPEAXH@Z 000000014011479c f   common-kernel64:ConEmuCheck.obj
 0001:0011394c       ?ExecutePrepareCmd@@YAXPEAUCESERVER_REQ@@K_K@Z 000000014011494c f   common-kernel64:ConEmuCheck.obj
 0001:00113988       ?ExecutePrepareCmd@@YAXPEAUCESERVER_REQ_HDR@@K_K@Z 0000000140114988 f   common-kernel64:ConEmuCheck.obj
 0001:001139f8       ?ExecuteSrvCmd@@YAPEAUCESERVER_REQ@@KPEAU1@PEAUHWND__@@HKH@Z 00000001401149f8 f   common-kernel64:ConEmuCheck.obj
 0001:00113acc       ?GuiMessageBox@@YAHPEAUHWND__@@PEB_W1H@Z 0000000140114acc f   common-kernel64:ConEmuCheck.obj
 0001:00113c3c       ?LoadSrvMapping@@YAHPEAUHWND__@@AEAUCESERVER_CONSOLE_MAPPING_HDR@@@Z 0000000140114c3c f   common-kernel64:ConEmuCheck.obj
 0001:00113d8c       ?ModuleName@@YAPEB_WPEB_W@Z 0000000140114d8c f   common-kernel64:ConEmuCheck.obj
 0001:00113e50       ?isConsoleClass@@YA_NPEB_W@Z 0000000140114e50 f   common-kernel64:ConEmuCheck.obj
 0001:00113ea0       ?isConsoleWindow@@YA_NPEAUHWND__@@@Z 0000000140114ea0 f   common-kernel64:ConEmuCheck.obj
 0001:00113f90       ?myGetConsoleWindow@@YAPEAUHWND__@@XZ 0000000140114f90 f   common-kernel64:ConEmuCheck.obj
 0001:0011402c       ?GetProcessBits@@YAHKPEAX@Z 000000014011502c f   common-kernel64:MProcessBits.obj
 0001:0011414c       ??$sprintf_c@$0CI@@@YAHAEAY0CI@DPEBDZZ 000000014011514c f i common-kernel64:WThreads.obj
 0001:00114178       ?SetThreadName@@YAXKPEAD@Z 0000000140115178 f   common-kernel64:WThreads.obj
 0001:001141b0       ?apiCreateThread@@YAPEAXP6AKPEAX@Z0PEAKPEBDH@Z 00000001401151b0 f   common-kernel64:WThreads.obj
 0001:00114304       ?apiTerminateThreadEx@@YAHPEAXKPEBDH@Z 0000000140115304 f   common-kernel64:WThreads.obj
 0001:0011440c       ?apiThreadHelper@@YAKPEAX@Z 000000014011540c f   common-kernel64:WThreads.obj
 0001:00114618       ?wasTerminateThreadCalled@@YA_NXZ 0000000140115618 f   common-kernel64:WThreads.obj
 0001:00114624       ??8@YA_NAEBU_COORD@@0@Z    0000000140115624 f   common-kernel64:MRect.obj
 0001:0011463c       ??8@YA_NAEBUtagRECT@@0@Z   000000014011563c f   common-kernel64:MRect.obj
 0001:00114660       ??9@YA_NAEBU_COORD@@0@Z    0000000140115660 f   common-kernel64:MRect.obj
 0001:00114678       ??9@YA_NAEBUtagRECT@@0@Z   0000000140115678 f   common-kernel64:MRect.obj
 0001:0011469c       ?CoordCompare@@YAHAEBU_COORD@@0@Z 000000014011569c f   common-kernel64:MRect.obj
 0001:001146d4       ?CoordInRect@@YA_NAEBU_COORD@@AEBUtagRECT@@@Z 00000001401156d4 f   common-kernel64:MRect.obj
 0001:001146f4       ?IntersectSmallRect@@YA_NAEBUtagRECT@@AEBU_SMALL_RECT@@PEAU1@@Z 00000001401156f4 f   common-kernel64:MRect.obj
 0001:00114768       ?MakeCoord@@YA?AU_COORD@@HH@Z 0000000140115768 f   common-kernel64:MRect.obj
 0001:00114778       ?MakePoint@@YA?AUtagPOINT@@HH@Z 0000000140115778 f   common-kernel64:MRect.obj
 0001:00114788       ?MakeRect@@YA?AUtagRECT@@HH@Z 0000000140115788 f   common-kernel64:MRect.obj
 0001:0011479c       ?MakeRect@@YA?AUtagRECT@@HHHH@Z 000000014011579c f   common-kernel64:MRect.obj
 0001:001147b4       ?MakeShort@@YAFH@Z         00000001401157b4 f   common-kernel64:MRect.obj
 0001:001147b4       ?MakeUShort@@YAGI@Z        00000001401157b4 f   common-kernel64:MRect.obj
 0001:001147b8       ?MakeSmallRect@@YA?AU_SMALL_RECT@@HHHH@Z 00000001401157b8 f   common-kernel64:MRect.obj
 0001:001147dc       ?PtDiffTest@@YA_NHHHHII@Z  00000001401157dc f   common-kernel64:MRect.obj
 0001:00114808       ?PtDiffTest@@YA_NUtagPOINT@@HHI@Z 0000000140115808 f   common-kernel64:MRect.obj
 0001:00114830       ??0MSection@@QEAA@XZ       0000000140115830 f   common-kernel64:MSection.obj
 0001:001148b8       ??0MSectionLock@@QEAA@XZ   00000001401158b8 f   common-kernel64:MSection.obj
 0001:001148c8       ??1MSection@@QEAA@XZ       00000001401158c8 f   common-kernel64:MSection.obj
 0001:0011493c       ??1MSectionLock@@QEAA@XZ   000000014011593c f   common-kernel64:MSection.obj
 0001:00114960       ?AddRef@MSection@@IEAAXK@Z 0000000140115960 f   common-kernel64:MSection.obj
 0001:001149f4       ?Lock@MSection@@IEAAHHK@Z  00000001401159f4 f   common-kernel64:MSection.obj
 0001:00114af0       ?Lock@MSectionLock@@QEAAHPEAVMSection@@HK@Z 0000000140115af0 f   common-kernel64:MSection.obj
 0001:00114b44       ?MyEnterCriticalSection@MSection@@IEAA_NK@Z 0000000140115b44 f   common-kernel64:MSection.obj
 0001:00114c74       ?ReleaseRef@MSection@@IEAAHK@Z 0000000140115c74 f   common-kernel64:MSection.obj
 0001:00114d14       ?RelockExclusive@MSectionLock@@QEAAHK@Z 0000000140115d14 f   common-kernel64:MSection.obj
 0001:00114d64       ?Unlock@MSection@@IEAAXH@Z 0000000140115d64 f   common-kernel64:MSection.obj
 0001:00114dbc       ?Unlock@MSectionLock@@QEAAXXZ 0000000140115dbc f   common-kernel64:MSection.obj
 0001:00114de8       ?WaitUnlocked@MSection@@IEAAXKK@Z 0000000140115de8 f   common-kernel64:MSection.obj
 0001:00114e7c       ?isLocked@MSectionLock@@QEAAHH@Z 0000000140115e7c f   common-kernel64:MSection.obj
 0001:00114e98       ??1CEnvRestorer@@QEAA@XZ   0000000140115e98 f   common-kernel64:EnvVar.obj
 0001:00114f0c       ?Clear@CEnvRestorer@@QEAAXXZ 0000000140115f0c f   common-kernel64:EnvVar.obj
 0001:00114f30       ?ExpandEnvStr@@YAPEA_WPEB_W@Z 0000000140115f30 f   common-kernel64:EnvVar.obj
 0001:00114fd8       ?GetEnvVar@@YAPEA_WPEB_W@Z 0000000140115fd8 f   common-kernel64:EnvVar.obj
 0001:0011507c       ?SavePathVar@CEnvRestorer@@QEAAXPEB_W@Z 000000014011607c f   common-kernel64:EnvVar.obj
 0001:001150b0       ?CommonShutdown@@YAXXZ     00000001401160b0 f   common-kernel64:Common.obj
 0001:001150c0       ?GetCommand@CESERVER_REQ_NEWCMD@@QEAAPEA_WXZ 00000001401160c0 f   common-kernel64:Common.obj
 0001:001150e0       ?GetEnvStrings@CESERVER_REQ_NEWCMD@@QEAAPEA_WXZ 00000001401160e0 f   common-kernel64:Common.obj
 0001:00115100       ?IsEnvBlockVariableValid@@YA_NPEB_W@Z 0000000140116100 f   common-kernel64:Common.obj
 0001:00115134       ?Mangle@STRPTR2@@QEAAPEAEPEAE@Z 0000000140116134 f   common-kernel64:Common.obj
 0001:001151ac       ?PackInputRecord@@YAHPEBU_INPUT_RECORD@@PEAUMsgStr@MSG64@@@Z 00000001401161ac f   common-kernel64:Common.obj
 0001:00115304       ?Set@STRPTR2@@QEAAX$$QEAPEA_WH@Z 0000000140116304 f   common-kernel64:Common.obj
 0001:0011533c       ?SetCommand@CESERVER_REQ_NEWCMD@@QEAAXPEB_W@Z 000000014011633c f   common-kernel64:Common.obj
 0001:001153a4       ?TranslateKeyPress@@YAXGK_WHPEAU_INPUT_RECORD@@1@Z 00000001401163a4 f   common-kernel64:Common.obj
 0001:00115534       ?GetImageSubsystem@@YA_NPEB_WAEAK11@Z 0000000140116534 f   common-kernel64:execute.obj
 0001:001157c8       ?IsFileBatch@@YA_NPEB_W@Z  00000001401167c8 f   common-kernel64:execute.obj
 0001:00115860       ??0MSectionLockSimple@@QEAA@AEAUMSectionSimple@@@Z 0000000140116860 f   common-kernel64:MSectionSimple.obj
 0001:00115884       ??0MSectionSimple@@QEAA@_N@Z 0000000140116884 f   common-kernel64:MSectionSimple.obj
 0001:001158bc       ??1MSectionLockSimple@@QEAA@XZ 00000001401168bc f   common-kernel64:MSectionSimple.obj
 0001:001158d0       ?Close@MSectionSimple@@QEAAXXZ 00000001401168d0 f   common-kernel64:MSectionSimple.obj
 0001:001158d0       ??1MSectionSimple@@QEAA@XZ 00000001401168d0 f   common-kernel64:MSectionSimple.obj
 0001:001158f0       ?Enter@MSectionSimple@@QEAAXXZ 00000001401168f0 f   common-kernel64:MSectionSimple.obj
 0001:001158f8       ?Init@MSectionSimple@@QEAAXXZ 00000001401168f8 f   common-kernel64:MSectionSimple.obj
 0001:00115918       ?Leave@MSectionSimple@@QEAAXXZ 0000000140116918 f   common-kernel64:MSectionSimple.obj
 0001:00115920       ?Lock@MSectionLockSimple@@QEAAHPEAUMSectionSimple@@K@Z 0000000140116920 f   common-kernel64:MSectionSimple.obj
 0001:001159bc       ?RecreateAndLock@MSectionSimple@@QEAA_NXZ 00000001401169bc f   common-kernel64:MSectionSimple.obj
 0001:00115a2c       ?TryEnter@MSectionSimple@@QEAA_NXZ 0000000140116a2c f   common-kernel64:MSectionSimple.obj
 0001:00115a54       ?Unlock@MSectionLockSimple@@QEAAXXZ 0000000140116a54 f   common-kernel64:MSectionSimple.obj
 0001:00115a7c       ??0MFileLog@@QEAA@PEB_W0K@Z 0000000140116a7c f   common-kernel64:MFileLog.obj
 0001:00115b2c       ??1MFileLog@@UEAA@XZ       0000000140116b2c f   common-kernel64:MFileLog.obj
 0001:00115b90       ??_GMFileLog@@UEAAPEAXI@Z  0000000140116b90 f i common-kernel64:MFileLog.obj
 0001:00115b90       ??_EMFileLog@@UEAAPEAXI@Z  0000000140116b90 f i common-kernel64:MFileLog.obj
 0001:00115bc4       ?CloseLogFile@MFileLog@@QEAAXXZ 0000000140116bc4 f   common-kernel64:MFileLog.obj
 0001:00115c3c       ?CreateLogFile@MFileLog@@QEAAJPEB_WKK@Z 0000000140116c3c f   common-kernel64:MFileLog.obj
 0001:001160e0       ?GetLogFileName@MFileLog@@QEAAPEB_WXZ 00000001401170e0 f   common-kernel64:MFileLog.obj
 0001:00116100       ?InitFileName@MFileLog@@IEAAJPEB_WK@Z 0000000140117100 f   common-kernel64:MFileLog.obj
 0001:001161a4       ?LogString@MFileLog@@QEAAXPEBD_N01I@Z 00000001401171a4 f   common-kernel64:MFileLog.obj
 0001:001162e0       ?LogString@MFileLog@@QEAAXPEB_W_N01@Z 00000001401172e0 f   common-kernel64:MFileLog.obj
 0001:001165a8       ??0?$MToolHelp@UtagPROCESSENTRY32W@@$1?Process32FirstW@@YAHPEAXPEAU1@@Z$1?Process32NextW@@YAH01@Z@@QEAA@KK@Z 00000001401175a8 f i common-kernel64:MProcess.obj
 0001:00116614       ??_G?$MToolHelp@UtagPROCESSENTRY32W@@$1?Process32FirstW@@YAHPEAXPEAU1@@Z$1?Process32NextW@@YAH01@Z@@UEAAPEAXI@Z 0000000140117614 f i common-kernel64:MProcess.obj
 0001:00116614       ??_E?$MToolHelp@UtagPROCESSENTRY32W@@$1?Process32FirstW@@YAHPEAXPEAU1@@Z$1?Process32NextW@@YAH01@Z@@UEAAPEAXI@Z 0000000140117614 f i common-kernel64:MProcess.obj
 0001:00116614       ??_GMToolHelpProcess@@UEAAPEAXI@Z 0000000140117614 f i common-kernel64:MProcess.obj
 0001:00116614       ??_EMToolHelpProcess@@UEAAPEAXI@Z 0000000140117614 f i common-kernel64:MProcess.obj
 0001:00116680       ?Close@?$MToolHelp@UtagPROCESSENTRY32W@@$1?Process32FirstW@@YAHPEAXPEAU1@@Z$1?Process32NextW@@YAH01@Z@@QEAAX_N@Z 0000000140117680 f i common-kernel64:MProcess.obj
 0001:00116704       ?Find@?$MToolHelp@UtagPROCESSENTRY32W@@$1?Process32FirstW@@YAHPEAXPEAU1@@Z$1?Process32NextW@@YAH01@Z@@QEAA_NP6A_NPEAUtagPROCESSENTRY32W@@_J@Z10@Z 0000000140117704 f i common-kernel64:MProcess.obj
 0001:001167a4       ?GetProcessInfo@@YA_NKPEAUtagPROCESSENTRY32W@@@Z 00000001401177a4 f   common-kernel64:MProcess.obj
 0001:0011684c       ?GetProcessInfo@@YA_NPEB_WPEAUtagPROCESSENTRY32W@@@Z 000000014011784c f   common-kernel64:MProcess.obj
 0001:00116918       ?Next@?$MToolHelp@UtagPROCESSENTRY32W@@$1?Process32FirstW@@YAHPEAXPEAU1@@Z$1?Process32NextW@@YAH01@Z@@QEAA_NPEAUtagPROCESSENTRY32W@@@Z 0000000140117918 f i common-kernel64:MProcess.obj
 0001:00116998       ?compare@cmp@?1??Find@MToolHelpProcess@@QEAA_NKPEAUtagPROCESSENTRY32W@@@Z@SA_N0_J@Z 0000000140117998 f i common-kernel64:MProcess.obj
 0001:001169a0       ?compare@cmp@?1??Find@MToolHelpProcess@@QEAA_NPEB_WPEAUtagPROCESSENTRY32W@@@Z@SA_N1_J@Z 00000001401179a0 f i common-kernel64:MProcess.obj
 0001:001169cc       ?getNext@?$MToolHelp@UtagPROCESSENTRY32W@@$1?Process32FirstW@@YAHPEAXPEAU1@@Z$1?Process32NextW@@YAH01@Z@@IEAA_NXZ 00000001401179cc f i common-kernel64:MProcess.obj
 0001:00116a90       ?StripSourceRoot@@YAPEB_WPEB_W@Z 0000000140117a90 f   common-kernel64:MAssert.obj
 0001:00116b08       ??0RConStartArgs@@QEAA@XZ  0000000140117b08 f   common-kernel64:RConStartArgs.obj
 0001:00116bb0       ??1RConStartArgs@@UEAA@XZ  0000000140117bb0 f   common-kernel64:RConStartArgs.obj
 0001:00116c7c       ??_GRConStartArgs@@UEAAPEAXI@Z 0000000140117c7c f i common-kernel64:RConStartArgs.obj
 0001:00116c7c       ??_ERConStartArgs@@UEAAPEAXI@Z 0000000140117c7c f i common-kernel64:RConStartArgs.obj
 0001:00116cb0       ?AppendServerArgs@RConStartArgs@@QEAAXPEA_W_J@Z 0000000140117cb0 f   common-kernel64:RConStartArgs.obj
 0001:00116d40       ?CleanSecure@RConStartArgs@@QEAAXXZ 0000000140117d40 f   common-kernel64:RConStartArgs.obj
 0001:00116db4       ?ProcessNewConArg@RConStartArgs@@QEAAH_N@Z 0000000140117db4 f   common-kernel64:RConStartArgs.obj
 0001:00117b2c       ??0CEHandle@@QEAA@AEBQEAX@Z 0000000140118b2c f   common-kernel64:CEHandle.obj
 0001:00117b38       ??1CEHandle@@QEAA@XZ       0000000140118b38 f   common-kernel64:CEHandle.obj
 0001:00117b40       ??4CEHandle@@QEAAAEBV0@$$QEAPEAX@Z 0000000140118b40 f   common-kernel64:CEHandle.obj
 0001:00117b78       ??BCEHandle@@QEBA_NXZ      0000000140118b78 f   common-kernel64:CEHandle.obj
 0001:00117b88       ?Close@CEHandle@@QEAAXXZ   0000000140118b88 f   common-kernel64:CEHandle.obj
 0001:00117bac       ?GetRowIdFromAttrs@@YAGPEBG@Z 0000000140118bac f   common-kernel64:ConsoleMixAttr.obj
 0001:00117cf8       ?Init@HkFunc@@QEAA_NPEB_WPEAUHINSTANCE__@@@Z 0000000140118cf8 f   common-kernel64:HkFunc.obj
 0001:00117d88       ?isConEmuHk@HkFunc@@QEAA_NXZ 0000000140118d88 f   common-kernel64:HkFunc.obj
 0001:00117d90       ??0MSetter@@QEAA@AEAU?$atomic@H@std@@@Z 0000000140118d90 f   common-user64:MSetter.obj
 0001:00117da4       ??0MSetter@@QEAA@PEAJ@Z    0000000140118da4 f   common-user64:MSetter.obj
 0001:00117dbc       ??0MSetter@@QEAA@PEA_N@Z   0000000140118dbc f   common-user64:MSetter.obj
 0001:00117dd8       ??1MSetter@@QEAA@XZ        0000000140118dd8 f   common-user64:MSetter.obj
 0001:00117de0       ?Unlock@MSetter@@QEAAXXZ   0000000140118de0 f   common-user64:MSetter.obj
 0001:00117e40       ?apiGetConsoleSessionID@@YAKXZ 0000000140118e40 f   common-user64:WSession.obj
 0001:00117e9c       ?apiQuerySessionID@@YAHKAEAK@Z 0000000140118e9c f   common-user64:WSession.obj
 0001:00117f1c       ?apiQuerySessionID@@YAPEB_WXZ 0000000140118f1c f   common-user64:WSession.obj
 0001:00117f80       ?ucs32_from_wchar@@YAHPEB_WAEA_N@Z 0000000140118f80 f   common-user64:wcchars.obj
 0001:00117fd4       ?wchar_from_ucs32@@YAPEB_WHAEAY02_W@Z 0000000140118fd4 f   common-user64:wcchars.obj
 0001:00118004       ?FindComspec@@YAXPEAUConEmuComspec@@_N@Z 0000000140119004 f   common-user64:WUser.obj
 0001:001186d8       ?IsUserAdmin@@YA_NXZ       00000001401196d8 f   common-user64:WUser.obj
 0001:001187f0       ?SetEnvVarExpanded@@YAXPEB_W0@Z 00000001401197f0 f   common-user64:WUser.obj
 0001:001188d4       ?UpdateComspec@@YAXPEAUConEmuComspec@@_N@Z 00000001401198d4 f   common-user64:WUser.obj
 0001:00118b78       ?apiSetForegroundWindow@@YA_NPEAUHWND__@@@Z 0000000140119b78 f   common-user64:WUser.obj
 0001:00118b8c       ?apiShowWindow@@YA_NPEAUHWND__@@H@Z 0000000140119b8c f   common-user64:WUser.obj
 0001:00118ba0       ?getWindowInfo@@YAXPEAUHWND__@@AEAY0EAA@_W_NPEAK@Z 0000000140119ba0 f   common-user64:WUser.obj
 0001:00118d68       ??0RConStartArgsEx@@QEAA@XZ 0000000140119d68 f   common-user64:RConStartArgsEx.obj
 0001:00118da0       ??1RConStartArgsEx@@UEAA@XZ 0000000140119da0 f   common-user64:RConStartArgsEx.obj
 0001:00118e00       ??_GRConStartArgsEx@@UEAAPEAXI@Z 0000000140119e00 f i common-user64:RConStartArgsEx.obj
 0001:00118e00       ??_ERConStartArgsEx@@UEAAPEAXI@Z 0000000140119e00 f i common-user64:RConStartArgsEx.obj
 0001:00118e34       ?AssignFrom@RConStartArgsEx@@QEAA_NPEBU1@_N@Z 0000000140119e34 f   common-user64:RConStartArgsEx.obj
 0001:00119194       ?AssignInheritedArgs@RConStartArgsEx@@QEAA_NPEBU1@_N@Z 000000014011a194 f   common-user64:RConStartArgsEx.obj
 0001:001191a8       ?AssignUserArgs@RConStartArgsEx@@QEAA_NPEBU1@_N@Z 000000014011a1a8 f   common-user64:RConStartArgsEx.obj
 0001:00119284       ?CheckUserToken@RConStartArgsEx@@QEAAPEAXXZ 000000014011a284 f   common-user64:RConStartArgsEx.obj
 0001:001192e8       ?CheckUserToken@RConStartArgsEx@@QEAA_NPEAUHWND__@@@Z 000000014011a2e8 f   common-user64:RConStartArgsEx.obj
 0001:001193cc       ?CreateCommandLine@RConStartArgsEx@@QEBAPEA_W_N@Z 000000014011a3cc f   common-user64:RConStartArgsEx.obj
 0001:00119d6c       ?HasInheritedArgs@RConStartArgsEx@@QEBA_NXZ 000000014011ad6c f   common-user64:RConStartArgsEx.obj
 0001:00119d8c       ?MD5_Final@@YAXPEAEPEAUMD5_CTX@@@Z 000000014011ad8c f   common-user64:md5.obj
 0001:00119ecc       ?MD5_Init@@YAXPEAUMD5_CTX@@@Z 000000014011aecc f   common-user64:md5.obj
 0001:00119ef0       ?MD5_Update@@YAXPEAUMD5_CTX@@PEBXK@Z 000000014011aef0 f   common-user64:md5.obj
 0001:0011aa3c       ??0MFileLogEx@@QEAA@PEB_W0K@Z 000000014011ba3c f   common-user64:MFileLogEx.obj
 0001:0011aa60       ??_EMFileLogEx@@UEAAPEAXI@Z 000000014011ba60 f i common-user64:MFileLogEx.obj
 0001:0011aa60       ??_GMFileLogEx@@UEAAPEAXI@Z 000000014011ba60 f i common-user64:MFileLogEx.obj
 0001:0011aaa0       ?LogStartEnv@MFileLogEx@@QEAAXPEAUCEStartupEnv@@@Z 000000014011baa0 f   common-user64:MFileLogEx.obj
 0001:0011aae0       ?LogStartEnvInt@MFileLogEx@@KAXPEB_W_J_N2@Z 000000014011bae0 f   common-user64:MFileLogEx.obj
 0001:0011ab00       ??$_Guess_median_unchecked@PEAU_FindAllMonitorsItem@@P6A_NAEBU1@0@Z@std@@YAXPEAU_FindAllMonitorsItem@@00P6A_NAEBU1@1@Z@Z 000000014011bb00 f i common-user64:Monitors.obj
 0001:0011abc0       ??$_Insertion_sort_unchecked@PEAU_FindAllMonitorsItem@@P6A_NAEBU1@0@Z@std@@YAPEAU_FindAllMonitorsItem@@PEAU1@QEAU1@P6A_NAEBU1@2@Z@Z 000000014011bbc0 f i common-user64:Monitors.obj
 0001:0011acd0       ??$_Make_heap_unchecked@PEAU_FindAllMonitorsItem@@P6A_NAEBU1@0@Z@std@@YAXPEAU_FindAllMonitorsItem@@0P6A_NAEBU1@1@Z@Z 000000014011bcd0 f i common-user64:Monitors.obj
 0001:0011ad5c       ??$_Med3_unchecked@PEAU_FindAllMonitorsItem@@P6A_NAEBU1@0@Z@std@@YAXPEAU_FindAllMonitorsItem@@00P6A_NAEBU1@1@Z@Z 000000014011bd5c f i common-user64:Monitors.obj
 0001:0011ae0c       ??$_Partition_by_median_guess_unchecked@PEAU_FindAllMonitorsItem@@P6A_NAEBU1@0@Z@std@@YA?AU?$pair@PEAU_FindAllMonitorsItem@@PEAU1@@0@PEAU_FindAllMonitorsItem@@0P6A_NAEBU2@1@Z@Z 000000014011be0c f i common-user64:Monitors.obj
 0001:0011b050       ??$_Pop_heap_hole_by_index@PEAU_FindAllMonitorsItem@@U1@P6A_NAEBU1@0@Z@std@@YAXPEAU_FindAllMonitorsItem@@_J1$$QEAU1@P6A_NAEBU1@3@Z@Z 000000014011c050 f i common-user64:Monitors.obj
 0001:0011b144       ??$_Pop_heap_unchecked@PEAU_FindAllMonitorsItem@@P6A_NAEBU1@0@Z@std@@YAXPEAU_FindAllMonitorsItem@@0P6A_NAEBU1@1@Z@Z 000000014011c144 f i common-user64:Monitors.obj
 0001:0011b1b8       ??$_Push_heap_by_index@PEAU_FindAllMonitorsItem@@U1@P6A_NAEBU1@0@Z@std@@YAXPEAU_FindAllMonitorsItem@@_J1$$QEAU1@P6A_NAEBU1@3@Z@Z 000000014011c1b8 f i common-user64:Monitors.obj
 0001:0011b24c       ??$_Sort_unchecked@PEAU_FindAllMonitorsItem@@P6A_NAEBU1@0@Z@std@@YAXPEAU_FindAllMonitorsItem@@0_JP6A_NAEBU1@2@Z@Z 000000014011c24c f i common-user64:Monitors.obj
 0001:0011b364       ?EnumAllMonitors@@YAHPEAUHMONITOR__@@PEAUHDC__@@PEAUtagRECT@@_J@Z 000000014011c364 f   common-user64:Monitors.obj
 0001:0011b490       ?FindPrimaryMonitor@@YAHPEAUHMONITOR__@@PEAUHDC__@@PEAUtagRECT@@_J@Z 000000014011c490 f   common-user64:Monitors.obj
 0001:0011b524       ?FindTaskbarWindow@@YAPEAUHWND__@@PEAUtagRECT@@@Z 000000014011c524 f   common-user64:Monitors.obj
 0001:0011b5ac       ?GetMonitorInfoSafe@@YA_NPEAUHMONITOR__@@AEAUtagMONITORINFO@@@Z 000000014011c5ac f   common-user64:Monitors.obj
 0001:0011b5ec       ?GetNearestMonitorInfo@@YAPEAUHMONITOR__@@PEAUtagMONITORINFO@@PEAU1@PEBUtagRECT@@PEAUHWND__@@@Z 000000014011c5ec f   common-user64:Monitors.obj
 0001:0011b6ec       ?GetNextMonitorInfo@@YAPEAUHMONITOR__@@PEAUtagMONITORINFO@@PEBUtagRECT@@_N@Z 000000014011c6ec f   common-user64:Monitors.obj
 0001:0011b890       ?GetPrimaryMonitorInfo@@YAPEAUHMONITOR__@@PEAUtagMONITORINFO@@@Z 000000014011c890 f   common-user64:Monitors.obj
 0001:0011b954       ?GetStartupMonitor@@YAPEAUHMONITOR__@@XZ 000000014011c954 f   common-user64:Monitors.obj
 0001:0011ba3c       ?IsTaskbarAutoHidden@@YA_NPEAUtagRECT@@PEAIPEAPEAUHWND__@@@Z 000000014011ca3c f   common-user64:Monitors.obj
 0001:0011bb10       ?MonitorFromParam@@YAPEAUHMONITOR__@@PEB_W@Z 000000014011cb10 f   common-user64:Monitors.obj
 0001:0011bc48       ??0CToolTip@@QEAA@XZ       000000014011cc48 f   common-user64:MToolTip.obj
 0001:0011bc90       ??1CToolTip@@UEAA@XZ       000000014011cc90 f   common-user64:MToolTip.obj
 0001:0011bd10       ??_ECToolTip@@UEAAPEAXI@Z  000000014011cd10 f i common-user64:MToolTip.obj
 0001:0011bd10       ??_GCToolTip@@UEAAPEAXI@Z  000000014011cd10 f i common-user64:MToolTip.obj
 0001:0011bd44       ?HideTip@CToolTip@@QEAAXXZ 000000014011cd44 f   common-user64:MToolTip.obj
 0001:0011bd88       ?ShowTip@CToolTip@@QEAAXPEAUHWND__@@0PEB_WHUtagPOINT@@PEAUHINSTANCE__@@@Z 000000014011cd88 f   common-user64:MToolTip.obj
 0001:0011c058       ??0CProcessEnvCmd@@QEAA@XZ 000000014011d058 f   common-user64:ProcessSetEnv.obj
 0001:0011c08c       ??0CStartEnvTitle@@QEAA@PEAUCEStr@@@Z 000000014011d08c f   common-user64:ProcessSetEnv.obj
 0001:0011c0a4       ??1CProcessEnvCmd@@QEAA@XZ 000000014011d0a4 f   common-user64:ProcessSetEnv.obj
 0001:0011c158       ??_GCStartEnvTitle@@UEAAPEAXI@Z 000000014011d158 f i common-user64:ProcessSetEnv.obj
 0001:0011c158       ??_ECStartEnvTitle@@UEAAPEAXI@Z 000000014011d158 f i common-user64:ProcessSetEnv.obj
 0001:0011c184       ?Add@CProcessEnvCmd@@IEAAPEAUCommand@1@PEB_W00_J@Z 000000014011d184 f   common-user64:ProcessSetEnv.obj
 0001:0011c390       ?AddCommands@CProcessEnvCmd@@QEAA_NPEB_WPEAPEB_W_N_J@Z 000000014011d390 f   common-user64:ProcessSetEnv.obj
 0001:0011cadc       ?AddLines@CProcessEnvCmd@@QEAAXPEB_W_N@Z 000000014011dadc f   common-user64:ProcessSetEnv.obj
 0001:0011cbf0       ?AddZeroedPairs@CProcessEnvCmd@@QEAAXPEB_W@Z 000000014011dbf0 f   common-user64:ProcessSetEnv.obj
 0001:0011cc94       ?Allocate@CProcessEnvCmd@@QEAAPEA_WPEA_K@Z 000000014011dc94 f   common-user64:ProcessSetEnv.obj
 0001:0011cf10       ?Apply@CProcessEnvCmd@@QEAA_NPEAVCStartEnvBase@@@Z 000000014011df10 f   common-user64:ProcessSetEnv.obj
 0001:0011d07c       ?ProcessSetEnvCmd@@YA_NAEAPEB_WPEAVCProcessEnvCmd@@PEAVCStartEnvBase@@@Z 000000014011e07c f   common-user64:ProcessSetEnv.obj
 0001:0011d130       ?Title@CStartEnvTitle@@UEAAXPEB_W@Z 000000014011e130 f   common-user64:ProcessSetEnv.obj
 0001:0011d1a4       ?cpyadv@CProcessEnvCmd@@IEAAXAEAPEA_WPEB_W@Z 000000014011e1a4 f   common-user64:ProcessSetEnv.obj
 0001:0011d1f0       ?DirectoryExists@@YA_NPEB_W@Z 000000014011e1f0 f   common-user64:WFiles.obj
 0001:0011d358       ?DropZoneIdentifier@@YA_NPEB_WAEAK@Z 000000014011e358 f   common-user64:WFiles.obj
 0001:0011d410       ?FileExistSubDir@@YA_NPEB_W0HAEAUCEStr@@@Z 000000014011e410 f   common-user64:WFiles.obj
 0001:0011d5f4       ?FilesExists@@YA_NPEB_W0_NH@Z 000000014011e5f4 f   common-user64:WFiles.obj
 0001:0011d740       ?FindFileName@@YA_NPEB_WAEAUCEStr@@@Z 000000014011e740 f   common-user64:WFiles.obj
 0001:0011d8a8       ?GetFullPathNameEx@@YAPEA_WPEB_W@Z 000000014011e8a8 f   common-user64:WFiles.obj
 0001:0011d94c       ?HasZoneIdentifier@@YA_NPEB_WAEAH@Z 000000014011e94c f   common-user64:WFiles.obj
 0001:0011da30       ?IsDotsName@@YA_NPEB_W@Z   000000014011ea30 f   common-user64:WFiles.obj
 0001:0011da54       ?MakePathProperCase@@YA_NAEAUCEStr@@@Z 000000014011ea54 f   common-user64:WFiles.obj
 0001:0011dc20       ?MyCreateDirectory@@YA_NPEA_W@Z 000000014011ec20 f   common-user64:WFiles.obj
 0001:0011dd1c       ?ReadTextFile@@YAHPEB_WKAEAPEADAEAK2@Z 000000014011ed1c f   common-user64:WFiles.obj
 0001:0011dd54       ?ReadTextFile@@YAHPEB_WKAEAPEA_WAEAK2K@Z 000000014011ed54 f   common-user64:WFiles.obj
 0001:0011e038       ?SearchAppPaths@@YA_NPEB_WAEAUCEStr@@_NPEAVCEnvRestorer@@@Z 000000014011f038 f   common-user64:WFiles.obj
 0001:0011e438       ?WriteTextFile@@YAHPEB_W0HK_NPEAK@Z 000000014011f438 f   common-user64:WFiles.obj
 0001:0011e650       ?CheckStrForSpecials@@YA_NPEB_WPEA_N1@Z 000000014011f650 f   common-user64:MStrEsc.obj
 0001:0011e704       ?EscapeChar@@YAXAEAPEB_WAEAPEA_W@Z 000000014011f704 f   common-user64:MStrEsc.obj
 0001:0011e864       ?UnescapeChar@@YAXAEAPEB_WAEAPEA_W@Z 000000014011f864 f   common-user64:MStrEsc.obj
 0001:0011ea18       ?RegDeleteKeyRecursive@@YA_NPEAUHKEY__@@PEB_W1@Z 000000014011fa18 f   common-user64:WRegistry.obj
 0001:0011eb80       ?RegEnumKeys@@YAHPEAUHKEY__@@PEB_WP6A_N01_J@Z2@Z 000000014011fb80 f   common-user64:WRegistry.obj
 0001:0011ed44       ?RegEnumValues@@YAHPEAUHKEY__@@PEB_WP6A_N01K_J@Z2@Z 000000014011fd44 f   common-user64:WRegistry.obj
 0001:0011eed0       ?RegGetStringValue@@YAHPEAUHKEY__@@PEB_W1AEAUCEStr@@K@Z 000000014011fed0 f   common-user64:WRegistry.obj
 0001:0011f088       ?RegSetStringValue@@YAJPEAUHKEY__@@PEB_W11K@Z 0000000140120088 f   common-user64:WRegistry.obj
 0001:0011f15c       ??$sprintf_s@$0IA@@@YAHAEAY0IA@DPEBDZZ 000000014012015c f i common-user64:MJsonReader.obj
 0001:0011f1b0       ??0MJsonValue@@QEAA@XZ     00000001401201b0 f   common-user64:MJsonReader.obj
 0001:0011f1c0       ??1MJsonValue@@QEAA@XZ     00000001401201c0 f   common-user64:MJsonReader.obj
 0001:0011f1d8       ?FreeData@MJsonValue@@AEAAXXZ 00000001401201d8 f   common-user64:MJsonReader.obj
 0001:0011f21c       ?ParseJson@MJsonValue@@QEAA_NPEB_W@Z 000000014012021c f   common-user64:MJsonReader.obj
 0001:0011f34c       ?getInt@MJsonValue@@QEAA_JXZ 000000014012034c f   common-user64:MJsonReader.obj
 0001:0011f354       ?getItem@MJsonValue@@QEAA_NPEB_WAEAV1@@Z 0000000140120354 f   common-user64:MJsonReader.obj
 0001:0011f400       ?getItem@MJsonValue@@QEAA_N_KAEAV1@@Z 0000000140120400 f   common-user64:MJsonReader.obj
 0001:0011f488       ?getLength@MJsonValue@@QEAA_KXZ 0000000140120488 f   common-user64:MJsonReader.obj
 0001:0011f4a4       ?getObjectName@MJsonValue@@QEAAPEB_W_K@Z 00000001401204a4 f   common-user64:MJsonReader.obj
 0001:0011f4b4       ?getString@MJsonValue@@QEAAPEB_WXZ 00000001401204b4 f   common-user64:MJsonReader.obj
 0001:0011f4bc       ?getType@MJsonValue@@QEAA?AW4JSON_TYPE@1@XZ 00000001401204bc f   common-user64:MJsonReader.obj
 0001:0011f6d0       json_parse_ex              00000001401206d0 f   common-user64:MJsonReader.obj
 0001:001207f0       json_value_free            00000001401217f0 f   common-user64:MJsonReader.obj
 0001:00120828       json_value_free_ex         0000000140121828 f   common-user64:MJsonReader.obj
 0001:001208b4       ?CreateRootInfoXml@@YAPEB_WPEB_WPEAUCESERVER_ROOT_INFO@@AEAUCEStr@@@Z 00000001401218b4 f   common-user64:MGuiMacro.obj
 0001:00120b48       ?bisearch@@YA_NHPEBUinterval@@H@Z 0000000140121b48 f   common-user64:wcwidth.obj
 0001:00120b94       ?get_wcwidth@@YAHH@Z       0000000140121b94 f   common-user64:wcwidth.obj
 0001:00120be4       ?is_char_cjk@@YA_NH@Z      0000000140121be4 f   common-user64:wcwidth.obj
 0001:00120c90       ??0MGlobal@@QEAA@I_K@Z     0000000140121c90 f   common-user64:MGlobal.obj
 0001:00120cb0       ??1MGlobal@@QEAA@XZ        0000000140121cb0 f   common-user64:MGlobal.obj
 0001:00120cb8       ??BMGlobal@@QEAAPEAXXZ     0000000140121cb8 f   common-user64:MGlobal.obj
 0001:00120cd0       ?Alloc@MGlobal@@QEAAPEAXI_K@Z 0000000140121cd0 f   common-user64:MGlobal.obj
 0001:00120d10       ?Detach@MGlobal@@QEAAPEAXXZ 0000000140121d10 f   common-user64:MGlobal.obj
 0001:00120d2c       ?Free@MGlobal@@QEAAXXZ     0000000140121d2c f   common-user64:MGlobal.obj
 0001:00120d58       ?Lock@MGlobal@@QEAAPEAXXZ  0000000140121d58 f   common-user64:MGlobal.obj
 0001:00120d8c       ?Unlock@MGlobal@@QEAAXXZ   0000000140121d8c f   common-user64:MGlobal.obj
 0001:00120db0       ??0CRgnDetect@@QEAA@XZ     0000000140121db0 f   common-user64:RgnDetect.obj
 0001:00120e70       ??0CRgnRects@@QEAA@XZ      0000000140121e70 f   common-user64:RgnDetect.obj
 0001:00120eb0       ??1CRgnDetect@@QEAA@XZ     0000000140121eb0 f   common-user64:RgnDetect.obj
 0001:00120f18       ??1CRgnRects@@QEAA@XZ      0000000140121f18 f   common-user64:RgnDetect.obj
 0001:00120f3c       ?DetectDialog@CRgnDetect@@IEAA_NPEA_WPEAUtag_CharAttr@@HHHHPEAH2@Z 0000000140121f3c f   common-user64:RgnDetect.obj
 0001:001212d4       ?Diff@CRgnRects@@QEAAHPEAUtagRECT@@@Z 00000001401222d4 f   common-user64:RgnDetect.obj
 0001:00121434       ?DiffSmall@CRgnRects@@QEAAHPEAU_SMALL_RECT@@@Z 0000000140122434 f   common-user64:RgnDetect.obj
 0001:00121464       ?ExpandDialogFrame@CRgnDetect@@IEAA_NPEA_WPEAUtag_CharAttr@@HHAEAH2HH22@Z 0000000140122464 f   common-user64:RgnDetect.obj
 0001:001217a0       ?FindByBackground@CRgnDetect@@IEAA_NPEA_WPEAUtag_CharAttr@@HHAEAH222AEA_N@Z 00000001401227a0 f   common-user64:RgnDetect.obj
 0001:001218c8       ?FindDialog_Any@CRgnDetect@@IEAA_NPEA_WPEAUtag_CharAttr@@HHAEAH222AEA_N@Z 00000001401228c8 f   common-user64:RgnDetect.obj
 0001:00121b64       ?FindDialog_Inner@CRgnDetect@@IEAA_NPEA_WPEAUtag_CharAttr@@HHAEAH2@Z 0000000140122b64 f   common-user64:RgnDetect.obj
 0001:00121cd4       ?FindDialog_Left@CRgnDetect@@IEAA_NPEA_WPEAUtag_CharAttr@@HHAEAH222AEA_N@Z 0000000140122cd4 f   common-user64:RgnDetect.obj
 0001:00121ed0       ?FindDialog_Right@CRgnDetect@@IEAA_NPEA_WPEAUtag_CharAttr@@HHAEAH222AEA_N@Z 0000000140122ed0 f   common-user64:RgnDetect.obj
 0001:00122038       ?FindDialog_TopLeft@CRgnDetect@@IEAA_NPEA_WPEAUtag_CharAttr@@HHAEAH222AEA_N@Z 0000000140123038 f   common-user64:RgnDetect.obj
 0001:00122144       ?FindDialog_TopRight@CRgnDetect@@IEAA_NPEA_WPEAUtag_CharAttr@@HHAEAH222AEA_N@Z 0000000140123144 f   common-user64:RgnDetect.obj
 0001:0012225c       ?FindFrameBottom_ByLeft@CRgnDetect@@IEAA_NPEA_WPEAUtag_CharAttr@@HHAEAH22@Z 000000014012325c f   common-user64:RgnDetect.obj
 0001:001222f0       ?FindFrameBottom_ByRight@CRgnDetect@@IEAA_NPEA_WPEAUtag_CharAttr@@HHAEAH22@Z 00000001401232f0 f   common-user64:RgnDetect.obj
 0001:001223a4       ?FindFrameLeft_ByBottom@CRgnDetect@@IEAA_NPEA_WPEAUtag_CharAttr@@HHAEAH22@Z 00000001401233a4 f   common-user64:RgnDetect.obj
 0001:00122468       ?FindFrameLeft_ByTop@CRgnDetect@@IEAA_NPEA_WPEAUtag_CharAttr@@HHAEAH22@Z 0000000140123468 f   common-user64:RgnDetect.obj
 0001:001225d4       ?FindFrameRight_ByBottom@CRgnDetect@@IEAA_NPEA_WPEAUtag_CharAttr@@HHAEAH22@Z 00000001401235d4 f   common-user64:RgnDetect.obj
 0001:001226a0       ?FindFrameRight_ByTop@CRgnDetect@@IEAA_NPEA_WPEAUtag_CharAttr@@HHAEAH22@Z 00000001401236a0 f   common-user64:RgnDetect.obj
 0001:00122804       ?FindFrameTop_ByLeft@CRgnDetect@@IEAA_NPEA_WPEAUtag_CharAttr@@HHAEAH22@Z 0000000140123804 f   common-user64:RgnDetect.obj
 0001:00122888       ?FindFrameTop_ByRight@CRgnDetect@@IEAA_NPEA_WPEAUtag_CharAttr@@HHAEAH22@Z 0000000140123888 f   common-user64:RgnDetect.obj
 0001:00122930       ?FindFrame_TopLeft@CRgnDetect@@IEAA_NPEA_WPEAUtag_CharAttr@@HHAEAH222@Z 0000000140123930 f   common-user64:RgnDetect.obj
 0001:00122a38       ?GetDetectedDialogs@CRgnDetect@@QEBAHHPEAU_SMALL_RECT@@PEAKKK@Z 0000000140123a38 f   common-user64:RgnDetect.obj
 0001:00122b34       ?GetDetectedDialogsPtr@CRgnDetect@@QEBAPEBUtag_DetectedDialog@@XZ 0000000140123b34 f   common-user64:RgnDetect.obj
 0001:00122b3c       ?GetDialog@CRgnDetect@@QEBAKKPEAU_SMALL_RECT@@@Z 0000000140123b3c f   common-user64:RgnDetect.obj
 0001:00122b98       ?GetFlags@CRgnDetect@@QEBAKXZ 0000000140123b98 f   common-user64:RgnDetect.obj
 0001:00122ba0       ?Init@CRgnRects@@QEAAXPEAUtagRECT@@@Z 0000000140123ba0 f   common-user64:RgnDetect.obj
 0001:00122c7c       ?LoadFrom@CRgnRects@@QEAA_NPEAV1@@Z 0000000140123c7c f   common-user64:RgnDetect.obj
 0001:00122d44       ?MarkDialog@CRgnDetect@@IEAAHPEA_WPEAUtag_CharAttr@@HHHHHHI_NK@Z 0000000140123d44 f   common-user64:RgnDetect.obj
 0001:001235fc       ?PrepareTransparent@CRgnDetect@@QEAAXPEBUCEFAR_INFO_MAPPING@@PEBKPEBU_CONSOLE_SCREEN_BUFFER_INFO@@PEA_WPEAUtag_CharAttr@@HH_N@Z 00000001401245fc f   common-user64:RgnDetect.obj
 0001:00123df0       ?Reset@CRgnRects@@QEAAXXZ  0000000140124df0 f   common-user64:RgnDetect.obj
 0001:00123e00       ?SetFarRect@CRgnDetect@@QEAAXPEAU_SMALL_RECT@@@Z 0000000140124e00 f   common-user64:RgnDetect.obj
 0001:00123e74       ?SetNeedTransparency@CRgnDetect@@QEAAX_N@Z 0000000140124e74 f   common-user64:RgnDetect.obj
 0001:00123e78       ?ChangeScreenBufferSize@@YAXAEAU_CONSOLE_SCREEN_BUFFER_INFO@@FFFF@Z 0000000140124e78 f   common-user64:WConsoleInfo.obj
 0001:00123ef0       ??0MEvent@@QEAA@XZ         0000000140124ef0 f   common-user64:MEvent.obj
 0001:00123f0c       ??1MEvent@@QEAA@XZ         0000000140124f0c f   common-user64:MEvent.obj
 0001:00123f24       ?Close@MEvent@@QEAAXXZ     0000000140124f24 f   common-user64:MEvent.obj
 0001:00123f68       ?Create@MEvent@@QEAAPEAXPEAU_SECURITY_ATTRIBUTES@@_N1PEB_W@Z 0000000140124f68 f   common-user64:MEvent.obj
 0001:00123fec       ?InitName@MEvent@@QEAAXPEB_WK@Z 0000000140124fec f   common-user64:MEvent.obj
 0001:0012404c       ?Open@MEvent@@QEAAPEAX_NPEAU_SECURITY_ATTRIBUTES@@00@Z 000000014012504c f   common-user64:MEvent.obj
 0001:0012411c       ?Reset@MEvent@@QEAA_NXZ    000000014012511c f   common-user64:MEvent.obj
 0001:0012414c       ?Set@MEvent@@QEAA_NXZ      000000014012514c f   common-user64:MEvent.obj
 0001:0012417c       ?Wait@MEvent@@QEAAKKH@Z    000000014012517c f   common-user64:MEvent.obj
 0001:001241d8       ?SetConEmuEnvHWND@@YAXPEB_WPEAUHWND__@@@Z 00000001401251d8 f   common-user64:SetEnvVar.obj
 0001:00124230       ?SetConEmuEnvVar@@YAXPEAUHWND__@@@Z 0000000140125230 f   common-user64:SetEnvVar.obj
 0001:001242b4       ?SetConEmuEnvVarChild@@YAXPEAUHWND__@@0@Z 00000001401252b4 f   common-user64:SetEnvVar.obj
 0001:001242e0       ??0MBSTR@@QEAA@PEB_W@Z     00000001401252e0 f   common-user64:MBSTR.obj
 0001:00124308       ??1MBSTR@@QEAA@XZ          0000000140125308 f   common-user64:MBSTR.obj
 0001:00124310       ??4MBSTR@@QEAAAEAV0@PEB_W@Z 0000000140125310 f   common-user64:MBSTR.obj
 0001:0012434c       ?Free@MBSTR@@QEAAXXZ       000000014012534c f   common-user64:MBSTR.obj
 0001:00124370       ??0CTimer@@QEAA@XZ         0000000140125370 f   common-user64:MTimer.obj
 0001:00124384       ?Stop@CTimer@@QEAAXXZ      0000000140125384 f   common-user64:MTimer.obj
 0001:00124384       ??1CTimer@@QEAA@XZ         0000000140125384 f   common-user64:MTimer.obj
 0001:001243a4       ?Init@CTimer@@QEAAXPEAUHWND__@@_KI@Z 00000001401253a4 f   common-user64:MTimer.obj
 0001:001243fc       ?IsStarted@CTimer@@QEAA_NXZ 00000001401253fc f   common-user64:MTimer.obj
 0001:00124400       ?Start@CTimer@@QEAAXI@Z    0000000140125400 f   common-user64:MTimer.obj
 0001:00124434       ??0length_error@std@@QEAA@AEBV01@@Z 0000000140125434 f i libcpmt:xthrow.obj
 0001:00124474       ??0length_error@std@@QEAA@PEBD@Z 0000000140125474 f i libcpmt:xthrow.obj
 0001:001244c0       ??0logic_error@std@@QEAA@AEBV01@@Z 00000001401254c0 f i libcpmt:xthrow.obj
 0001:00124500       ?_Xlength_error@std@@YAXPEBD@Z 0000000140125500 f   libcpmt:xthrow.obj
 0001:0012477c       WinMainCRTStartup          000000014012577c f   LIBCMT:exe_winmain.obj
 0001:00124790       ??3@YAXPEAX_K@Z            0000000140125790 f   LIBCMT:delete_scalar_size.obj
 0001:00124798       __GSHandlerCheck           0000000140125798 f   LIBCMT:gshandler.obj
 0001:001247b8       __GSHandlerCheckCommon     00000001401257b8 f   LIBCMT:gshandler.obj
 0001:00124814       __GSHandlerCheck_EH        0000000140125814 f   LIBCMT:gshandlereh.obj
 0001:001248b0       __chkstk                   00000001401258b0 f   LIBCMT:chkstk.obj
 0001:001248b0       _alloca_probe              00000001401258b0 f   LIBCMT:chkstk.obj
 0001:00124920       __security_check_cookie    0000000140125920 f   LIBCMT:amdsecgs.obj
 0001:00124acc       _Init_thread_abort         0000000140125acc f   LIBCMT:thread_safe_statics.obj
 0001:00124afc       _Init_thread_footer        0000000140125afc f   LIBCMT:thread_safe_statics.obj
 0001:00124b5c       _Init_thread_header        0000000140125b5c f   LIBCMT:thread_safe_statics.obj
 0001:00124bc4       _Init_thread_notify        0000000140125bc4 f   LIBCMT:thread_safe_statics.obj
 0001:00124c14       _Init_thread_wait          0000000140125c14 f   LIBCMT:thread_safe_statics.obj
 0001:00124c8c       ??_Gtype_info@@UEAAPEAXI@Z 0000000140125c8c f i LIBCMT:std_type_info_static.obj
 0001:00124c8c       ??_Etype_info@@UEAAPEAXI@Z 0000000140125c8c f i LIBCMT:std_type_info_static.obj
 0001:00124cb8       __scrt_acquire_startup_lock 0000000140125cb8 f   LIBCMT:utility.obj
 0001:00124cf4       __scrt_initialize_crt      0000000140125cf4 f   LIBCMT:utility.obj
 0001:00124d40       __scrt_initialize_onexit_tables 0000000140125d40 f   LIBCMT:utility.obj
 0001:00124e18       __scrt_is_nonwritable_in_current_image 0000000140125e18 f   LIBCMT:utility.obj
 0001:00124eb4       __scrt_release_startup_lock 0000000140125eb4 f   LIBCMT:utility.obj
 0001:00124ed8       __scrt_uninitialize_crt    0000000140125ed8 f   LIBCMT:utility.obj
 0001:00124f04       _onexit                    0000000140125f04 f   LIBCMT:utility.obj
 0001:00124f54       atexit                     0000000140125f54 f   LIBCMT:utility.obj
 0001:00124f6c       __raise_securityfailure    0000000140125f6c f   LIBCMT:gs_report.obj
 0001:00124fa0       __report_gsfailure         0000000140125fa0 f   LIBCMT:gs_report.obj
 0001:00125074       __report_rangecheckfailure 0000000140126074 f   LIBCMT:gs_report.obj
 0001:00125088       __report_securityfailure   0000000140126088 f   LIBCMT:gs_report.obj
 0001:00125208       ??_L@YAXPEAX_K1P6AX0@Z2@Z  0000000140126208 f   LIBCMT:ehvecctr.obj
 0001:00125278       ??_M@YAXPEAX_K1P6AX0@Z@Z   0000000140126278 f   LIBCMT:ehvecdtr.obj
 0001:001252e4       ?__ArrayUnwind@@YAXPEAX_K1P6AX0@Z@Z 00000001401262e4 f   LIBCMT:ehvecdtr.obj
 0001:00125348       __security_init_cookie     0000000140126348 f   LIBCMT:gs_support.obj
 0001:001253f4       _get_startup_file_mode     00000001401263f4 f   LIBCMT:file_mode.obj
 0001:001253fc       ?__scrt_initialize_type_info@@YAXXZ 00000001401263fc f   LIBCMT:tncleanup.obj
 0001:0012540c       __local_stdio_scanf_options 000000014012640c f i LIBCMT:default_local_stdio_options.obj
 0001:00125414       __scrt_initialize_default_local_stdio_options 0000000140126414 f   LIBCMT:default_local_stdio_options.obj
 0001:00125430       __scrt_is_user_matherr_present 0000000140126430 f   LIBCMT:matherr_detection.obj
 0001:0012543c       __scrt_get_dyn_tls_init_callback 000000014012643c f   LIBCMT:dyn_tls_init.obj
 0001:00125444       __scrt_get_dyn_tls_dtor_callback 0000000140126444 f   LIBCMT:dyn_tls_dtor.obj
 0001:0012544c       __crt_debugger_hook        000000014012644c f   LIBCMT:utility_desktop.obj
 0001:00125454       __scrt_fastfail            0000000140126454 f   LIBCMT:utility_desktop.obj
 0001:001255a0       __scrt_get_show_window_mode 00000001401265a0 f   LIBCMT:utility_desktop.obj
 0001:001255dc       __scrt_initialize_mta      00000001401265dc f   LIBCMT:utility_desktop.obj
 0001:001255e4       __scrt_is_managed_app      00000001401265e4 f   LIBCMT:utility_desktop.obj
 0001:00125638       __scrt_set_unhandled_exception_filter 0000000140126638 f   LIBCMT:utility_desktop.obj
 0001:00125648       __scrt_unhandled_exception_filter 0000000140126648 f   LIBCMT:utility_desktop.obj
 0001:00125680       _RTC_Initialize            0000000140126680 f   LIBCMT:initsect.obj
 0001:001256bc       _RTC_Terminate             00000001401266bc f   LIBCMT:initsect.obj
 0001:001256f8       __isa_available_init       00000001401266f8 f   LIBCMT:cpu_disp.obj
 0001:001258b4       __scrt_is_ucrt_dll_in_use  00000001401268b4 f   LIBCMT:ucrt_detection.obj
 0001:001258c0       wcschr                     00000001401268c0 f   libvcruntime:wcschr.obj
